
main.elf:     file format elf32-littlearm

Sections:
Idx Name          Size      VMA       LMA       File off  Algn
  0 .text         00012c84  00000000  00000000  00008000  2**3
                  CONTENTS, ALLOC, LOAD, READONLY, CODE
  1 .data         00000b80  40000000  00012c84  00020000  2**2
                  CONTENTS, ALLOC, LOAD, DATA
  2 .bss          00001c14  40000b80  00013804  00020b80  2**2
                  ALLOC
  3 .stack        00001980  40002800  40002800  00020b80  2**4
                  CONTENTS
  4 .stab         00009360  00000000  00000000  00022500  2**2
                  CONTENTS, READONLY, DEBUGGING
  5 .stabstr      00009d04  00000000  00000000  0002b860  2**0
                  CONTENTS, READONLY, DEBUGGING
  6 .comment      00000047  00000000  00000000  00035564  2**0
                  CONTENTS, READONLY
  7 .ARM.attributes 00000010  00000000  00000000  000355ab  2**0
                  CONTENTS, READONLY
  8 .debug_aranges 000003c0  00000000  00000000  000355bb  2**0
                  CONTENTS, READONLY, DEBUGGING
  9 .debug_pubnames 00000414  00000000  00000000  0003597b  2**0
                  CONTENTS, READONLY, DEBUGGING
 10 .debug_info   00006b9c  00000000  00000000  00035d8f  2**0
                  CONTENTS, READONLY, DEBUGGING
 11 .debug_abbrev 00001947  00000000  00000000  0003c92b  2**0
                  CONTENTS, READONLY, DEBUGGING
 12 .debug_line   00004f09  00000000  00000000  0003e272  2**0
                  CONTENTS, READONLY, DEBUGGING
 13 .debug_frame  000005f0  00000000  00000000  0004317c  2**2
                  CONTENTS, READONLY, DEBUGGING
 14 .debug_str    0000024a  00000000  00000000  0004376c  2**0
                  CONTENTS, READONLY, DEBUGGING
 15 .debug_loc    00003b07  00000000  00000000  000439b6  2**0
                  CONTENTS, READONLY, DEBUGGING
 16 .debug_ranges 00000128  00000000  00000000  000474bd  2**0
                  CONTENTS, READONLY, DEBUGGING

Disassembly of section .text:

00000000 <__Vectors>:
       0:	e59ff018 	ldr	pc, [pc, #24]	; 20 <Reset_Addr>
       4:	e59ff018 	ldr	pc, [pc, #24]	; 24 <Undef_Addr>
       8:	e59ff018 	ldr	pc, [pc, #24]	; 28 <SWI_Addr>
       c:	e59ff018 	ldr	pc, [pc, #24]	; 2c <PAbt_Addr>
      10:	e59ff018 	ldr	pc, [pc, #24]	; 30 <DAbt_Addr>
      14:	e1a00000 	nop			; (mov r0, r0)
      18:	e59ff018 	ldr	pc, [pc, #24]	; 38 <IRQ_Wrapper_Addr>
      1c:	e59ff018 	ldr	pc, [pc, #24]	; 3c <FIQ_Addr>

00000020 <Reset_Addr>:
      20:	00000168 	.word	0x00000168

00000024 <Undef_Addr>:
      24:	00000040 	.word	0x00000040

00000028 <SWI_Addr>:
      28:	00000098 	.word	0x00000098

0000002c <PAbt_Addr>:
      2c:	00000044 	.word	0x00000044

00000030 <DAbt_Addr>:
      30:	00000048 	.word	0x00000048
      34:	00000000 	.word	0x00000000

00000038 <IRQ_Wrapper_Addr>:
      38:	00000050 	.word	0x00000050

0000003c <FIQ_Addr>:
      3c:	0000004c 	.word	0x0000004c

00000040 <Undef_Handler>:
      40:	eafffffe 	b	40 <Undef_Handler>

00000044 <PAbt_Handler>:
      44:	eafffffe 	b	44 <PAbt_Handler>

00000048 <DAbt_Handler>:
      48:	eafffffe 	b	48 <DAbt_Handler>

0000004c <FIQ_Handler>:
      4c:	eafffffe 	b	4c <FIQ_Handler>

00000050 <__IRQ_Wrapper>:
        .global __IRQ_Wrapper
        .func   __IRQ_Wrapper
__IRQ_Wrapper:
/*- Manage Exception Entry  */
/*- Adjust and save LR_irq in IRQ stack  */
            sub         lr, lr, #4
      50:	e24ee004 	sub	lr, lr, #4
            stmfd       sp!, {lr}
      54:	e92d4000 	push	{lr}

/*- Save SPSR need to be saved for nested interrupt */
            mrs         r14, SPSR
      58:	e14fe000 	mrs	lr, SPSR
            stmfd       sp!, {r14}
      5c:	e92d4000 	push	{lr}

/*- Save and r0 in IRQ stack  */
            stmfd       sp!, {r0}
      60:	e92d0001 	push	{r0}

/*- Write in the IVR to support Protect Mode  */
/*- No effect in Normal Mode  */
/*- De-assert the NIRQ and clear the source in Protect Mode */
/* R14 = LR */
            ldr         r14, =VIC_base_addr
      64:	e59fe028 	ldr	lr, [pc, #40]	; 94 <ABT_Stack_Size+0x14>
            ldr         r0 , [r14, #VIC_vect_offs]
      68:	e59e0030 	ldr	r0, [lr, #48]	; 0x30
            /*str         r14, [r14, #VIC_vect_offs]*/

/*- Enable Interrupt and Switch in Supervisor Mode */
            msr         CPSR_c, #I_Bit | Mode_SVC
      6c:	e321f093 	msr	CPSR_c, #147	; 0x93

/*- Save scratch/used registers and LR in User Stack */
            /*stmfd       sp!, { r1-r3, r12, r14}*/
            stmfd       sp!, { r1-r12, r14 }
      70:	e92d5ffe 	push	{r1, r2, r3, r4, r5, r6, r7, r8, r9, sl, fp, ip, lr}

/*- Branch to the routine pointed by the VIC-Vector-Address  */
            mov         r14, pc
      74:	e1a0e00f 	mov	lr, pc
            bx          r0
      78:	e12fff10 	bx	r0
/*- Restore scratch/used registers and LR from User Stack*/
            /* ldmia       sp!, { r1-r3, r12, r14} */
            ldmia       sp!, { r1-r12, r14 }
      7c:	e8bd5ffe 	pop	{r1, r2, r3, r4, r5, r6, r7, r8, r9, sl, fp, ip, lr}

/*- Disable Interrupt and switch back in IRQ mode */
            msr         CPSR_c, #I_Bit | Mode_IRQ
      80:	e321f092 	msr	CPSR_c, #146	; 0x92
            ldr         r14, =VIC_base_addr
            str         r14, [r14, #VIC_vect_offs]
#endif

/*- Restore SPSR_irq and r0 from IRQ stack */
            ldmia       sp!, {r0}
      84:	e8bd0001 	pop	{r0}

/*- Restore SPSR_irq and r0 from IRQ stack */
            ldmia       sp!, {r14}
      88:	e8bd4000 	pop	{lr}
            msr         SPSR_cxsf, r14
      8c:	e16ff00e 	msr	SPSR_fsxc, lr

/*- Restore adjusted  LR_irq from IRQ stack directly in the PC */
            ldmia       sp!, {pc}^
      90:	e8fd8000 	ldm	sp!, {pc}^
      94:	fffff000 	.word	0xfffff000

00000098 <SoftwareInterrupt>:
      98:	e92d4010 	push	{r4, lr}
      9c:	e14f4000 	mrs	r4, SPSR
      a0:	e3140020 	tst	r4, #32
      a4:	115e40b2 	ldrhne	r4, [lr, #-2]
      a8:	13c44cff 	bicne	r4, r4, #65280	; 0xff00
      ac:	051e4004 	ldreq	r4, [lr, #-4]
      b0:	03c444ff 	biceq	r4, r4, #-16777216	; 0xff000000
      b4:	e3540006 	cmp	r4, #6
      b8:	979ff104 	ldrls	pc, [pc, r4, lsl #2]

000000bc <SWIOutOfRange>:
      bc:	eafffffe 	b	bc <SWIOutOfRange>

000000c0 <SwiTableStart>:
      c0:	000000dc 	.word	0x000000dc
      c4:	000000ec 	.word	0x000000ec
      c8:	000000fc 	.word	0x000000fc
      cc:	00000110 	.word	0x00000110
      d0:	00000124 	.word	0x00000124
      d4:	0000012c 	.word	0x0000012c
      d8:	00000148 	.word	0x00000148

000000dc <IRQDisable>:
      dc:	e14f0000 	mrs	r0, SPSR
      e0:	e3804080 	orr	r4, r0, #128	; 0x80
      e4:	e161f004 	msr	SPSR_c, r4
      e8:	ea00001d 	b	164 <EndofSWI>

000000ec <IRQEnable>:
      ec:	e14f0000 	mrs	r0, SPSR
      f0:	e3c04080 	bic	r4, r0, #128	; 0x80
      f4:	e161f004 	msr	SPSR_c, r4
      f8:	ea000019 	b	164 <EndofSWI>

000000fc <FIQDisable>:
      fc:	e14f0000 	mrs	r0, SPSR
     100:	e3804040 	orr	r4, r0, #64	; 0x40
     104:	e2000040 	and	r0, r0, #64	; 0x40
     108:	e161f004 	msr	SPSR_c, r4
     10c:	ea000014 	b	164 <EndofSWI>

00000110 <FIQEnable>:
     110:	e14f0000 	mrs	r0, SPSR
     114:	e3c04040 	bic	r4, r0, #64	; 0x40
     118:	e2000040 	and	r0, r0, #64	; 0x40
     11c:	e161f004 	msr	SPSR_c, r4
     120:	ea00000f 	b	164 <EndofSWI>

00000124 <CPSRget>:
     124:	e14f0000 	mrs	r0, SPSR
     128:	ea00000d 	b	164 <EndofSWI>

0000012c <IRQRestore>:
     12c:	e14f4000 	mrs	r4, SPSR
     130:	e2000080 	and	r0, r0, #128	; 0x80
     134:	e3100080 	tst	r0, #128	; 0x80
     138:	03c44080 	biceq	r4, r4, #128	; 0x80
     13c:	13844080 	orrne	r4, r4, #128	; 0x80
     140:	e161f004 	msr	SPSR_c, r4
     144:	ea000006 	b	164 <EndofSWI>

00000148 <FIQRestore>:
     148:	e14f4000 	mrs	r4, SPSR
     14c:	e2000040 	and	r0, r0, #64	; 0x40
     150:	e3100040 	tst	r0, #64	; 0x40
     154:	03c44040 	biceq	r4, r4, #64	; 0x40
     158:	13844040 	orrne	r4, r4, #64	; 0x40
     15c:	e161f004 	msr	SPSR_c, r4
     160:	eaffffff 	b	164 <EndofSWI>

00000164 <EndofSWI>:
     164:	e8fd8010 	ldm	sp!, {r4, pc}^

00000168 <__startup>:
__startup:

Reset_Handler:  

.if (VPBDIV_SETUP)
                LDR     R0, =VPBDIV
     168:	e59f0128 	ldr	r0, [pc, #296]	; 298 <__exit_THUMB+0x4>
                LDR     R1, =VPBDIV_Val
     16c:	e3a01000 	mov	r1, #0
                STR     R1, [R0]
     170:	e5801000 	str	r1, [r0]
.endif


.if (PLL_SETUP)
                LDR     R0, =PLL_BASE
     174:	e59f0120 	ldr	r0, [pc, #288]	; 29c <__exit_THUMB+0x8>
                MOV     R1, #0xAA
     178:	e3a010aa 	mov	r1, #170	; 0xaa
                MOV     R2, #0x55
     17c:	e3a02055 	mov	r2, #85	; 0x55

// Configure and Enable PLL
                MOV     R3, #PLLCFG_Val
     180:	e3a03024 	mov	r3, #36	; 0x24
                STR     R3, [R0, #PLLCFG_OFS] 
     184:	e5803004 	str	r3, [r0, #4]
                MOV     R3, #PLLCON_PLLE
     188:	e3a03001 	mov	r3, #1
                STR     R3, [R0, #PLLCON_OFS]
     18c:	e5803000 	str	r3, [r0]
                STR     R1, [R0, #PLLFEED_OFS]
     190:	e580100c 	str	r1, [r0, #12]
                STR     R2, [R0, #PLLFEED_OFS]
     194:	e580200c 	str	r2, [r0, #12]

00000198 <PLL_Loop>:

// Wait until PLL Locked
PLL_Loop:       LDR     R3, [R0, #PLLSTAT_OFS]
     198:	e5903008 	ldr	r3, [r0, #8]
                ANDS    R3, R3, #PLLSTAT_PLOCK
     19c:	e2133b01 	ands	r3, r3, #1024	; 0x400
                BEQ     PLL_Loop
     1a0:	0afffffc 	beq	198 <PLL_Loop>

// Switch to PLL Clock
                MOV     R3, #(PLLCON_PLLE | PLLCON_PLLC)
     1a4:	e3a03003 	mov	r3, #3
                STR     R3, [R0, #PLLCON_OFS]
     1a8:	e5803000 	str	r3, [r0]
                STR     R1, [R0, #PLLFEED_OFS]
     1ac:	e580100c 	str	r1, [r0, #12]
                STR     R2, [R0, #PLLFEED_OFS]
     1b0:	e580200c 	str	r2, [r0, #12]
.endif


.if (MAM_SETUP)
                LDR     R0, =MAM_BASE
     1b4:	e59f00e4 	ldr	r0, [pc, #228]	; 2a0 <__exit_THUMB+0xc>
                MOV     R1, #MAMTIM_Val
     1b8:	e3a01004 	mov	r1, #4
                STR     R1, [R0, #MAMTIM_OFS] 
     1bc:	e5801004 	str	r1, [r0, #4]
                MOV     R1, #MAMCR_Val
     1c0:	e3a01002 	mov	r1, #2
                STR     R1, [R0, #MAMCR_OFS] 
     1c4:	e5801000 	str	r1, [r0]
.endif
                STR     R1, [R0]
.endif

// Setup Stack for each mode
                LDR     R0, =Top_Stack
     1c8:	e59f00d4 	ldr	r0, [pc, #212]	; 2a4 <__exit_THUMB+0x10>

// Enter Undefined Instruction Mode and set its Stack Pointer
                MSR     CPSR_c, #Mode_UND|I_Bit|F_Bit
     1cc:	e321f0db 	msr	CPSR_c, #219	; 0xdb
                MOV     SP, R0
     1d0:	e1a0d000 	mov	sp, r0
                SUB     R0, R0, #UND_Stack_Size
     1d4:	e2400080 	sub	r0, r0, #128	; 0x80

// Enter Abort Mode and set its Stack Pointer
                MSR     CPSR_c, #Mode_ABT|I_Bit|F_Bit
     1d8:	e321f0d7 	msr	CPSR_c, #215	; 0xd7
                MOV     SP, R0
     1dc:	e1a0d000 	mov	sp, r0
                SUB     R0, R0, #ABT_Stack_Size
     1e0:	e2400080 	sub	r0, r0, #128	; 0x80

// Enter FIQ Mode and set its Stack Pointer
                MSR     CPSR_c, #Mode_FIQ|I_Bit|F_Bit
     1e4:	e321f0d1 	msr	CPSR_c, #209	; 0xd1
                MOV     SP, R0
     1e8:	e1a0d000 	mov	sp, r0
                SUB     R0, R0, #FIQ_Stack_Size
     1ec:	e2400080 	sub	r0, r0, #128	; 0x80

// Enter IRQ Mode and set its Stack Pointer
                MSR     CPSR_c, #Mode_IRQ|I_Bit|F_Bit
     1f0:	e321f0d2 	msr	CPSR_c, #210	; 0xd2
                MOV     SP, R0
     1f4:	e1a0d000 	mov	sp, r0
                SUB     R0, R0, #IRQ_Stack_Size
     1f8:	e2400b02 	sub	r0, r0, #2048	; 0x800

// Enter Supervisor Mode and set its Stack Pointer
                MSR     CPSR_c, #Mode_SVC|I_Bit|F_Bit
     1fc:	e321f0d3 	msr	CPSR_c, #211	; 0xd3
                MOV     SP, R0
     200:	e1a0d000 	mov	sp, r0
                SUB     R0, R0, #SVC_Stack_Size
     204:	e2400b02 	sub	r0, r0, #2048	; 0x800

// Enter User Mode and set its Stack Pointer
                MSR     CPSR_c, #Mode_USR /* Interrupts enabled */
     208:	e321f010 	msr	CPSR_c, #16
//				MSR     CPSR_c, #Mode_USR|I_Bit|F_Bit /* Interrupts disabled */
                MOV     SP, R0
     20c:	e1a0d000 	mov	sp, r0


.if (RAM_MODE==0)
/* Relocate .data section (Copy from ROM to RAM) */
                LDR     R1, =_etext 
     210:	e59f1090 	ldr	r1, [pc, #144]	; 2a8 <__exit_THUMB+0x14>
                LDR     R2, =_data 
     214:	e59f2090 	ldr	r2, [pc, #144]	; 2ac <__exit_THUMB+0x18>
                LDR     R3, =_edata 
     218:	e59f3090 	ldr	r3, [pc, #144]	; 2b0 <__exit_THUMB+0x1c>
                CMP     R2, R3
     21c:	e1520003 	cmp	r2, r3
                BEQ     DataIsEmpty
     220:	0a000003 	beq	234 <DataIsEmpty>

00000224 <LoopRel>:
LoopRel:        CMP     R2, R3 
     224:	e1520003 	cmp	r2, r3
                LDRLO   R0, [R1], #4 
     228:	34910004 	ldrcc	r0, [r1], #4
                STRLO   R0, [R2], #4 
     22c:	34820004 	strcc	r0, [r2], #4
                BLO     LoopRel 
     230:	3afffffb 	bcc	224 <LoopRel>

00000234 <DataIsEmpty>:
DataIsEmpty:
.endif
 
/* Clear .bss section (Zero init) */
                MOV     R0, #0 
     234:	e3a00000 	mov	r0, #0
                LDR     R1, =__bss_start__ 
     238:	e59f1074 	ldr	r1, [pc, #116]	; 2b4 <__exit_THUMB+0x20>
                LDR     R2, =__bss_end__ 
     23c:	e59f2074 	ldr	r2, [pc, #116]	; 2b8 <__exit_THUMB+0x24>
                CMP     R1,R2
     240:	e1510002 	cmp	r1, r2
                BEQ     BSSIsEmpty
     244:	0a000002 	beq	254 <BSSIsEmpty>

00000248 <LoopZI>:
LoopZI:         CMP     R1, R2 
     248:	e1510002 	cmp	r1, r2
                STRLO   R0, [R1], #4 
     24c:	34810004 	strcc	r0, [r1], #4
                BLO     LoopZI 
     250:	3afffffc 	bcc	248 <LoopZI>

00000254 <BSSIsEmpty>:
BSSIsEmpty:


// call C++ constructors of global objects
		LDR 	r0, =__ctors_start__
     254:	e59f0060 	ldr	r0, [pc, #96]	; 2bc <__exit_THUMB+0x28>
		LDR 	r1, =__ctors_end__
     258:	e59f1060 	ldr	r1, [pc, #96]	; 2c0 <__exit_THUMB+0x2c>

0000025c <ctor_loop>:
ctor_loop:
		CMP 	r0, r1
     25c:	e1500001 	cmp	r0, r1
		BEQ 	ctor_end
     260:	0a000005 	beq	27c <ctor_end>
		LDR 	r2, [r0], #4
     264:	e4902004 	ldr	r2, [r0], #4
		STMFD 	sp!, {r0-r1}
     268:	e92d0003 	push	{r0, r1}
		MOV 	lr, pc
     26c:	e1a0e00f 	mov	lr, pc
		MOV 	pc, r2
     270:	e1a0f002 	mov	pc, r2
		LDMFD 	sp!, {r0-r1}
     274:	e8bd0003 	pop	{r0, r1}
		B 		ctor_loop
     278:	eafffff7 	b	25c <ctor_loop>

0000027c <ctor_end>:
ctor_end:

// Enter the C code
                //LDR     R0,=INIT
                LDR     R0,=main
     27c:	e59f0040 	ldr	r0, [pc, #64]	; 2c4 <__exit_THUMB+0x30>
                TST     R0,#1             // Bit-0 set: main is Thumb
     280:	e3100001 	tst	r0, #1
                LDREQ   LR,=__exit_ARM    // ARM Mode
     284:	059fe03c 	ldreq	lr, [pc, #60]	; 2c8 <__exit_THUMB+0x34>
                LDRNE   LR,=__exit_THUMB  // Thumb Mode
     288:	159fe03c 	ldrne	lr, [pc, #60]	; 2cc <__exit_THUMB+0x38>
                BX      R0
     28c:	e12fff10 	bx	r0

00000290 <__exit_ARM>:

.arm
.global __exit_ARM
.func __exit_ARM
__exit_ARM:
                B       __exit_ARM
     290:	eafffffe 	b	290 <__exit_ARM>

00000294 <__exit_THUMB>:

.thumb
.global __exit_THUMB
.func __exit_THUMB
__exit_THUMB:
                B       __exit_THUMB
     294:	e7fe      	b.n	294 <__exit_THUMB>
     296:	0000      	.short	0x0000
     298:	e01fc100 	.word	0xe01fc100
     29c:	e01fc080 	.word	0xe01fc080
     2a0:	e01fc000 	.word	0xe01fc000
     2a4:	40004180 	.word	0x40004180
     2a8:	00012c84 	.word	0x00012c84
     2ac:	40000000 	.word	0x40000000
     2b0:	40000b80 	.word	0x40000b80
     2b4:	40000b80 	.word	0x40000b80
     2b8:	40002794 	.word	0x40002794
     2bc:	00012c84 	.word	0x00012c84
     2c0:	00012c84 	.word	0x00012c84
     2c4:	00005424 	.word	0x00005424
     2c8:	00000290 	.word	0x00000290
     2cc:	00000294 	.word	0x00000294

000002d0 <IntRestore>:
.text
.section .text, "ax"
.global IntRestore
.func   IntRestore
IntRestore:
		SWI     SWI_IRQ_REST
     2d0:	ef000005 	svc	0x00000005
		BX      lr
     2d4:	e12fff1e 	bx	lr

000002d8 <FiqRestore>:
.text
.section .text, "ax"
.global FiqRestore
.func   FiqRestore
FiqRestore:
		SWI     SWI_FIQ_REST
     2d8:	ef000006 	svc	0x00000006
		BX      lr
     2dc:	e12fff1e 	bx	lr

000002e0 <IntGetCPSR>:
.text
.section .text, "ax"
.global IntGetCPSR
.func   IntGetCPSR
IntGetCPSR:
		SWI     SWI_GET_CPSR
     2e0:	ef000004 	svc	0x00000004
		BX      lr
     2e4:	e12fff1e 	bx	lr

000002e8 <IntEnable>:
.text
.section .text, "ax"
.global IntEnable
.func   IntEnable
IntEnable:
        SWI     SWI_IRQ_EN
     2e8:	ef000001 	svc	0x00000001
        BX      lr
     2ec:	e12fff1e 	bx	lr

000002f0 <IntDisable>:
.arm
.global IntDisable
.section .text, "ax"
.func   IntDisable
IntDisable:
        SWI     SWI_IRQ_DIS
     2f0:	ef000000 	svc	0x00000000
        BX      lr
     2f4:	e12fff1e 	bx	lr

000002f8 <FiqEnable>:
.text
.section .text, "ax"
.global FiqEnable
.func   FiqEnable
FiqEnable:
        SWI     SWI_FIQ_EN
     2f8:	ef000003 	svc	0x00000003
        BX      lr
     2fc:	e12fff1e 	bx	lr

00000300 <FiqDisable>:
.arm
.global FiqDisable
.section .text, "ax"
.func   FiqDisable
FiqDisable:
        SWI     SWI_FIQ_DIS
     300:	ef000002 	svc	0x00000002
        BX      lr
     304:	e12fff1e 	bx	lr

00000308 <SSP_data_distribution_HL>:
unsigned short wpCtrlDistToWp=0;

struct WAYPOINT wpToLL;

void SSP_data_distribution_HL(void)
{
     308:	e1a0c00d 	mov	ip, sp
     30c:	e92dd800 	push	{fp, ip, lr, pc}
     310:	e24cb004 	sub	fp, ip, #4
     314:	e24dd004 	sub	sp, sp, #4
	unsigned char i;
	unsigned char current_page=LL_1khz_attitude_data.system_flags&0x03;
     318:	e59f35c4 	ldr	r3, [pc, #1476]	; 8e4 <IRQ_Stack_Size+0xe4>
     31c:	e1d330b0 	ldrh	r3, [r3]
     320:	e20330ff 	and	r3, r3, #255	; 0xff
     324:	e20330ff 	and	r3, r3, #255	; 0xff
     328:	e2033003 	and	r3, r3, #3
     32c:	e54b300e 	strb	r3, [fp, #-14]

	if(LL_1khz_attitude_data.system_flags&SF_GPS_NEW) gpsDataOkTrigger=0;
     330:	e59f35ac 	ldr	r3, [pc, #1452]	; 8e4 <IRQ_Stack_Size+0xe4>
     334:	e1d330b0 	ldrh	r3, [r3]
     338:	e2033008 	and	r3, r3, #8
     33c:	e3530000 	cmp	r3, #0
     340:	0a000002 	beq	350 <SSP_data_distribution_HL+0x48>
     344:	e59f259c 	ldr	r2, [pc, #1436]	; 8e8 <IRQ_Stack_Size+0xe8>
     348:	e3a03000 	mov	r3, #0
     34c:	e5823000 	str	r3, [r2]

	IMU_CalcData.angle_nick=LL_1khz_attitude_data.angle_pitch*10;
     350:	e59f358c 	ldr	r3, [pc, #1420]	; 8e4 <IRQ_Stack_Size+0xe4>
     354:	e1d330b2 	ldrh	r3, [r3, #2]
     358:	e1a03803 	lsl	r3, r3, #16
     35c:	e1a02843 	asr	r2, r3, #16
     360:	e1a03002 	mov	r3, r2
     364:	e1a03103 	lsl	r3, r3, #2
     368:	e0833002 	add	r3, r3, r2
     36c:	e1a03083 	lsl	r3, r3, #1
     370:	e1a02003 	mov	r2, r3
     374:	e59f3570 	ldr	r3, [pc, #1392]	; 8ec <IRQ_Stack_Size+0xec>
     378:	e5832000 	str	r2, [r3]
	IMU_CalcData.angle_roll=LL_1khz_attitude_data.angle_roll*10;
     37c:	e59f3560 	ldr	r3, [pc, #1376]	; 8e4 <IRQ_Stack_Size+0xe4>
     380:	e1d330b4 	ldrh	r3, [r3, #4]
     384:	e1a03803 	lsl	r3, r3, #16
     388:	e1a02843 	asr	r2, r3, #16
     38c:	e1a03002 	mov	r3, r2
     390:	e1a03103 	lsl	r3, r3, #2
     394:	e0833002 	add	r3, r3, r2
     398:	e1a03083 	lsl	r3, r3, #1
     39c:	e1a02003 	mov	r2, r3
     3a0:	e59f3544 	ldr	r3, [pc, #1348]	; 8ec <IRQ_Stack_Size+0xec>
     3a4:	e5832004 	str	r2, [r3, #4]
	IMU_CalcData.angle_yaw=LL_1khz_attitude_data.angle_yaw*10;
     3a8:	e59f3534 	ldr	r3, [pc, #1332]	; 8e4 <IRQ_Stack_Size+0xe4>
     3ac:	e1d330b6 	ldrh	r3, [r3, #6]
     3b0:	e1a02003 	mov	r2, r3
     3b4:	e1a03002 	mov	r3, r2
     3b8:	e1a03103 	lsl	r3, r3, #2
     3bc:	e0833002 	add	r3, r3, r2
     3c0:	e1a03083 	lsl	r3, r3, #1
     3c4:	e1a02003 	mov	r2, r3
     3c8:	e59f351c 	ldr	r3, [pc, #1308]	; 8ec <IRQ_Stack_Size+0xec>
     3cc:	e5832008 	str	r2, [r3, #8]

	IMU_CalcData.angvel_nick=LL_1khz_attitude_data.angvel_pitch;
     3d0:	e59f350c 	ldr	r3, [pc, #1292]	; 8e4 <IRQ_Stack_Size+0xe4>
     3d4:	e1d330b8 	ldrh	r3, [r3, #8]
     3d8:	e1a03803 	lsl	r3, r3, #16
     3dc:	e1a02843 	asr	r2, r3, #16
     3e0:	e59f3504 	ldr	r3, [pc, #1284]	; 8ec <IRQ_Stack_Size+0xec>
     3e4:	e583200c 	str	r2, [r3, #12]
	IMU_CalcData.angvel_roll=LL_1khz_attitude_data.angvel_roll;
     3e8:	e59f34f4 	ldr	r3, [pc, #1268]	; 8e4 <IRQ_Stack_Size+0xe4>
     3ec:	e1d330ba 	ldrh	r3, [r3, #10]
     3f0:	e1a03803 	lsl	r3, r3, #16
     3f4:	e1a02843 	asr	r2, r3, #16
     3f8:	e59f34ec 	ldr	r3, [pc, #1260]	; 8ec <IRQ_Stack_Size+0xec>
     3fc:	e5832010 	str	r2, [r3, #16]
	IMU_CalcData.angvel_yaw=LL_1khz_attitude_data.angvel_yaw;
     400:	e59f34dc 	ldr	r3, [pc, #1244]	; 8e4 <IRQ_Stack_Size+0xe4>
     404:	e1d330bc 	ldrh	r3, [r3, #12]
     408:	e1a03803 	lsl	r3, r3, #16
     40c:	e1a02843 	asr	r2, r3, #16
     410:	e59f34d4 	ldr	r3, [pc, #1236]	; 8ec <IRQ_Stack_Size+0xec>
     414:	e5832014 	str	r2, [r3, #20]

	RO_ALL_Data.angle_pitch=IMU_CalcData.angle_nick;
     418:	e59f34cc 	ldr	r3, [pc, #1228]	; 8ec <IRQ_Stack_Size+0xec>
     41c:	e5932000 	ldr	r2, [r3]
     420:	e59f34c8 	ldr	r3, [pc, #1224]	; 8f0 <IRQ_Stack_Size+0xf0>
     424:	e5832010 	str	r2, [r3, #16]
	RO_ALL_Data.angle_roll=IMU_CalcData.angle_roll;
     428:	e59f34bc 	ldr	r3, [pc, #1212]	; 8ec <IRQ_Stack_Size+0xec>
     42c:	e5932004 	ldr	r2, [r3, #4]
     430:	e59f34b8 	ldr	r3, [pc, #1208]	; 8f0 <IRQ_Stack_Size+0xf0>
     434:	e5832014 	str	r2, [r3, #20]
	RO_ALL_Data.angle_yaw=IMU_CalcData.angle_yaw;
     438:	e59f34ac 	ldr	r3, [pc, #1196]	; 8ec <IRQ_Stack_Size+0xec>
     43c:	e5932008 	ldr	r2, [r3, #8]
     440:	e59f34a8 	ldr	r3, [pc, #1192]	; 8f0 <IRQ_Stack_Size+0xf0>
     444:	e5832018 	str	r2, [r3, #24]

	RO_ALL_Data.angvel_pitch=LL_1khz_attitude_data.angvel_pitch;
     448:	e59f3494 	ldr	r3, [pc, #1172]	; 8e4 <IRQ_Stack_Size+0xe4>
     44c:	e1d330b8 	ldrh	r3, [r3, #8]
     450:	e1a03803 	lsl	r3, r3, #16
     454:	e1a02843 	asr	r2, r3, #16
     458:	e59f3490 	ldr	r3, [pc, #1168]	; 8f0 <IRQ_Stack_Size+0xf0>
     45c:	e583201c 	str	r2, [r3, #28]
	RO_ALL_Data.angvel_roll=LL_1khz_attitude_data.angvel_roll;
     460:	e59f347c 	ldr	r3, [pc, #1148]	; 8e4 <IRQ_Stack_Size+0xe4>
     464:	e1d330ba 	ldrh	r3, [r3, #10]
     468:	e1a03803 	lsl	r3, r3, #16
     46c:	e1a02843 	asr	r2, r3, #16
     470:	e59f3478 	ldr	r3, [pc, #1144]	; 8f0 <IRQ_Stack_Size+0xf0>
     474:	e5832020 	str	r2, [r3, #32]
	RO_ALL_Data.angvel_yaw=LL_1khz_attitude_data.angvel_yaw;
     478:	e59f3464 	ldr	r3, [pc, #1124]	; 8e4 <IRQ_Stack_Size+0xe4>
     47c:	e1d330bc 	ldrh	r3, [r3, #12]
     480:	e1a03803 	lsl	r3, r3, #16
     484:	e1a02843 	asr	r2, r3, #16
     488:	e59f3460 	ldr	r3, [pc, #1120]	; 8f0 <IRQ_Stack_Size+0xf0>
     48c:	e5832024 	str	r2, [r3, #36]	; 0x24

	if(!current_page)	//page 0
     490:	e55b300e 	ldrb	r3, [fp, #-14]
     494:	e3530000 	cmp	r3, #0
     498:	1a000081 	bne	6a4 <PLLSTAT_PLOCK+0x2a4>
	{
		for(i=0;i<8;i++)
     49c:	e3a03000 	mov	r3, #0
     4a0:	e54b300f 	strb	r3, [fp, #-15]
     4a4:	ea00001a 	b	514 <PLLSTAT_PLOCK+0x114>
		{
			RO_RC_Data.channel[i]=LL_1khz_attitude_data.RC_data[i]*16;
     4a8:	e55b000f 	ldrb	r0, [fp, #-15]
     4ac:	e55b100f 	ldrb	r1, [fp, #-15]
     4b0:	e59f342c 	ldr	r3, [pc, #1068]	; 8e4 <IRQ_Stack_Size+0xe4>
     4b4:	e3a0200c 	mov	r2, #12
     4b8:	e0813003 	add	r3, r1, r3
     4bc:	e0833002 	add	r3, r3, r2
     4c0:	e5d33002 	ldrb	r3, [r3, #2]
     4c4:	e1a03203 	lsl	r3, r3, #4
     4c8:	e1a03803 	lsl	r3, r3, #16
     4cc:	e1a01823 	lsr	r1, r3, #16
     4d0:	e59f241c 	ldr	r2, [pc, #1052]	; 8f4 <IRQ_Stack_Size+0xf4>
     4d4:	e1a03080 	lsl	r3, r0, #1
     4d8:	e0833002 	add	r3, r3, r2
     4dc:	e1c310b0 	strh	r1, [r3]
			RO_ALL_Data.channel[i]=RO_RC_Data.channel[i];
     4e0:	e55b000f 	ldrb	r0, [fp, #-15]
     4e4:	e55b300f 	ldrb	r3, [fp, #-15]
     4e8:	e59f2404 	ldr	r2, [pc, #1028]	; 8f4 <IRQ_Stack_Size+0xf4>
     4ec:	e1a03083 	lsl	r3, r3, #1
     4f0:	e0833002 	add	r3, r3, r2
     4f4:	e1d310b0 	ldrh	r1, [r3]
     4f8:	e59f23f0 	ldr	r2, [pc, #1008]	; 8f0 <IRQ_Stack_Size+0xf0>
     4fc:	e1a03080 	lsl	r3, r0, #1
     500:	e0833002 	add	r3, r3, r2
     504:	e1c310b0 	strh	r1, [r3]
	RO_ALL_Data.angvel_roll=LL_1khz_attitude_data.angvel_roll;
	RO_ALL_Data.angvel_yaw=LL_1khz_attitude_data.angvel_yaw;

	if(!current_page)	//page 0
	{
		for(i=0;i<8;i++)
     508:	e55b300f 	ldrb	r3, [fp, #-15]
     50c:	e2833001 	add	r3, r3, #1
     510:	e54b300f 	strb	r3, [fp, #-15]
     514:	e55b300f 	ldrb	r3, [fp, #-15]
     518:	e3530007 	cmp	r3, #7
     51c:	9affffe1 	bls	4a8 <PLLSTAT_PLOCK+0xa8>
		{
			RO_RC_Data.channel[i]=LL_1khz_attitude_data.RC_data[i]*16;
			RO_ALL_Data.channel[i]=RO_RC_Data.channel[i];
		}
		IMU_CalcData.acc_x_calib=LL_1khz_attitude_data.acc_x*10;
     520:	e59f33bc 	ldr	r3, [pc, #956]	; 8e4 <IRQ_Stack_Size+0xe4>
     524:	e1d332b0 	ldrh	r3, [r3, #32]
     528:	e1a03803 	lsl	r3, r3, #16
     52c:	e1a02843 	asr	r2, r3, #16
     530:	e1a03002 	mov	r3, r2
     534:	e1a03103 	lsl	r3, r3, #2
     538:	e0833002 	add	r3, r3, r2
     53c:	e1a03083 	lsl	r3, r3, #1
     540:	e1a03803 	lsl	r3, r3, #16
     544:	e1a02823 	lsr	r2, r3, #16
     548:	e59f339c 	ldr	r3, [pc, #924]	; 8ec <IRQ_Stack_Size+0xec>
     54c:	e1c321b8 	strh	r2, [r3, #24]
		IMU_CalcData.acc_y_calib=LL_1khz_attitude_data.acc_y*10;
     550:	e59f338c 	ldr	r3, [pc, #908]	; 8e4 <IRQ_Stack_Size+0xe4>
     554:	e1d332b2 	ldrh	r3, [r3, #34]	; 0x22
     558:	e1a03803 	lsl	r3, r3, #16
     55c:	e1a02843 	asr	r2, r3, #16
     560:	e1a03002 	mov	r3, r2
     564:	e1a03103 	lsl	r3, r3, #2
     568:	e0833002 	add	r3, r3, r2
     56c:	e1a03083 	lsl	r3, r3, #1
     570:	e1a03803 	lsl	r3, r3, #16
     574:	e1a02823 	lsr	r2, r3, #16
     578:	e59f336c 	ldr	r3, [pc, #876]	; 8ec <IRQ_Stack_Size+0xec>
     57c:	e1c321ba 	strh	r2, [r3, #26]
		IMU_CalcData.acc_z_calib=LL_1khz_attitude_data.acc_z*10;
     580:	e59f335c 	ldr	r3, [pc, #860]	; 8e4 <IRQ_Stack_Size+0xe4>
     584:	e1d332b4 	ldrh	r3, [r3, #36]	; 0x24
     588:	e1a03803 	lsl	r3, r3, #16
     58c:	e1a02843 	asr	r2, r3, #16
     590:	e1a03002 	mov	r3, r2
     594:	e1a03103 	lsl	r3, r3, #2
     598:	e0833002 	add	r3, r3, r2
     59c:	e1a03083 	lsl	r3, r3, #1
     5a0:	e1a03803 	lsl	r3, r3, #16
     5a4:	e1a02823 	lsr	r2, r3, #16
     5a8:	e59f333c 	ldr	r3, [pc, #828]	; 8ec <IRQ_Stack_Size+0xec>
     5ac:	e1c321bc 	strh	r2, [r3, #28]

		//system is initialized as soon as values differ from 0
		if(IMU_CalcData.acc_z_calib&&(SYSTEM_initialized<10)) SYSTEM_initialized++;
     5b0:	e59f3334 	ldr	r3, [pc, #820]	; 8ec <IRQ_Stack_Size+0xec>
     5b4:	e1d331bc 	ldrh	r3, [r3, #28]
     5b8:	e3530000 	cmp	r3, #0
     5bc:	0a00000b 	beq	5f0 <PLLSTAT_PLOCK+0x1f0>
     5c0:	e59f3330 	ldr	r3, [pc, #816]	; 8f8 <IRQ_Stack_Size+0xf8>
     5c4:	e5d33000 	ldrb	r3, [r3]
     5c8:	e20330ff 	and	r3, r3, #255	; 0xff
     5cc:	e3530009 	cmp	r3, #9
     5d0:	8a000006 	bhi	5f0 <PLLSTAT_PLOCK+0x1f0>
     5d4:	e59f331c 	ldr	r3, [pc, #796]	; 8f8 <IRQ_Stack_Size+0xf8>
     5d8:	e5d33000 	ldrb	r3, [r3]
     5dc:	e20330ff 	and	r3, r3, #255	; 0xff
     5e0:	e2833001 	add	r3, r3, #1
     5e4:	e20330ff 	and	r3, r3, #255	; 0xff
     5e8:	e59f2308 	ldr	r2, [pc, #776]	; 8f8 <IRQ_Stack_Size+0xf8>
     5ec:	e5c23000 	strb	r3, [r2]

		RO_ALL_Data.acc_x=LL_1khz_attitude_data.acc_x*10;
     5f0:	e59f32ec 	ldr	r3, [pc, #748]	; 8e4 <IRQ_Stack_Size+0xe4>
     5f4:	e1d332b0 	ldrh	r3, [r3, #32]
     5f8:	e1a03803 	lsl	r3, r3, #16
     5fc:	e1a02843 	asr	r2, r3, #16
     600:	e1a03002 	mov	r3, r2
     604:	e1a03103 	lsl	r3, r3, #2
     608:	e0833002 	add	r3, r3, r2
     60c:	e1a03083 	lsl	r3, r3, #1
     610:	e1a03803 	lsl	r3, r3, #16
     614:	e1a02823 	lsr	r2, r3, #16
     618:	e59f32d0 	ldr	r3, [pc, #720]	; 8f0 <IRQ_Stack_Size+0xf0>
     61c:	e1c322b8 	strh	r2, [r3, #40]	; 0x28
		RO_ALL_Data.acc_y=LL_1khz_attitude_data.acc_y*10;
     620:	e59f32bc 	ldr	r3, [pc, #700]	; 8e4 <IRQ_Stack_Size+0xe4>
     624:	e1d332b2 	ldrh	r3, [r3, #34]	; 0x22
     628:	e1a03803 	lsl	r3, r3, #16
     62c:	e1a02843 	asr	r2, r3, #16
     630:	e1a03002 	mov	r3, r2
     634:	e1a03103 	lsl	r3, r3, #2
     638:	e0833002 	add	r3, r3, r2
     63c:	e1a03083 	lsl	r3, r3, #1
     640:	e1a03803 	lsl	r3, r3, #16
     644:	e1a02823 	lsr	r2, r3, #16
     648:	e59f32a0 	ldr	r3, [pc, #672]	; 8f0 <IRQ_Stack_Size+0xf0>
     64c:	e1c322ba 	strh	r2, [r3, #42]	; 0x2a
		RO_ALL_Data.acc_z=LL_1khz_attitude_data.acc_z*10;
     650:	e59f328c 	ldr	r3, [pc, #652]	; 8e4 <IRQ_Stack_Size+0xe4>
     654:	e1d332b4 	ldrh	r3, [r3, #36]	; 0x24
     658:	e1a03803 	lsl	r3, r3, #16
     65c:	e1a02843 	asr	r2, r3, #16
     660:	e1a03002 	mov	r3, r2
     664:	e1a03103 	lsl	r3, r3, #2
     668:	e0833002 	add	r3, r3, r2
     66c:	e1a03083 	lsl	r3, r3, #1
     670:	e1a03803 	lsl	r3, r3, #16
     674:	e1a02823 	lsr	r2, r3, #16
     678:	e59f3270 	ldr	r3, [pc, #624]	; 8f0 <IRQ_Stack_Size+0xf0>
     67c:	e1c322bc 	strh	r2, [r3, #44]	; 0x2c

		RO_ALL_Data.fusion_latitude=LL_1khz_attitude_data.latitude_best_estimate;
     680:	e59f325c 	ldr	r3, [pc, #604]	; 8e4 <IRQ_Stack_Size+0xe4>
     684:	e5932018 	ldr	r2, [r3, #24]
     688:	e59f3260 	ldr	r3, [pc, #608]	; 8f0 <IRQ_Stack_Size+0xf0>
     68c:	e5832080 	str	r2, [r3, #128]	; 0x80
		RO_ALL_Data.fusion_longitude=LL_1khz_attitude_data.longitude_best_estimate;
     690:	e59f324c 	ldr	r3, [pc, #588]	; 8e4 <IRQ_Stack_Size+0xe4>
     694:	e593201c 	ldr	r2, [r3, #28]
     698:	e59f3250 	ldr	r3, [pc, #592]	; 8f0 <IRQ_Stack_Size+0xf0>
     69c:	e5832084 	str	r2, [r3, #132]	; 0x84
     6a0:	ea00008c 	b	8d8 <IRQ_Stack_Size+0xd8>

	}
	else if(current_page==1)	//page 1
     6a4:	e55b300e 	ldrb	r3, [fp, #-14]
     6a8:	e3530001 	cmp	r3, #1
     6ac:	1a000032 	bne	77c <PLLSTAT_PLOCK+0x37c>
	{
		IMU_CalcData.height=LL_1khz_attitude_data.height;
     6b0:	e59f322c 	ldr	r3, [pc, #556]	; 8e4 <IRQ_Stack_Size+0xe4>
     6b4:	e593203c 	ldr	r2, [r3, #60]	; 0x3c
     6b8:	e59f322c 	ldr	r3, [pc, #556]	; 8ec <IRQ_Stack_Size+0xec>
     6bc:	e583204c 	str	r2, [r3, #76]	; 0x4c
		IMU_CalcData.dheight=LL_1khz_attitude_data.dheight;
     6c0:	e59f321c 	ldr	r3, [pc, #540]	; 8e4 <IRQ_Stack_Size+0xe4>
     6c4:	e1d334b0 	ldrh	r3, [r3, #64]	; 0x40
     6c8:	e1a03803 	lsl	r3, r3, #16
     6cc:	e1a02843 	asr	r2, r3, #16
     6d0:	e59f3214 	ldr	r3, [pc, #532]	; 8ec <IRQ_Stack_Size+0xec>
     6d4:	e5832050 	str	r2, [r3, #80]	; 0x50

		RO_ALL_Data.fusion_height=LL_1khz_attitude_data.height;
     6d8:	e59f3204 	ldr	r3, [pc, #516]	; 8e4 <IRQ_Stack_Size+0xe4>
     6dc:	e593203c 	ldr	r2, [r3, #60]	; 0x3c
     6e0:	e59f3208 	ldr	r3, [pc, #520]	; 8f0 <IRQ_Stack_Size+0xf0>
     6e4:	e5832078 	str	r2, [r3, #120]	; 0x78
		RO_ALL_Data.fusion_dheight=LL_1khz_attitude_data.dheight;
     6e8:	e59f31f4 	ldr	r3, [pc, #500]	; 8e4 <IRQ_Stack_Size+0xe4>
     6ec:	e1d334b0 	ldrh	r3, [r3, #64]	; 0x40
     6f0:	e1a03803 	lsl	r3, r3, #16
     6f4:	e1a02843 	asr	r2, r3, #16
     6f8:	e59f31f0 	ldr	r3, [pc, #496]	; 8f0 <IRQ_Stack_Size+0xf0>
     6fc:	e583207c 	str	r2, [r3, #124]	; 0x7c

		RO_ALL_Data.fusion_speed_x=LL_1khz_attitude_data.speed_x_best_estimate;
     700:	e59f31dc 	ldr	r3, [pc, #476]	; 8e4 <IRQ_Stack_Size+0xe4>
     704:	e1d323b8 	ldrh	r2, [r3, #56]	; 0x38
     708:	e59f31e0 	ldr	r3, [pc, #480]	; 8f0 <IRQ_Stack_Size+0xf0>
     70c:	e1c328b8 	strh	r2, [r3, #136]	; 0x88
		RO_ALL_Data.fusion_speed_y=LL_1khz_attitude_data.speed_y_best_estimate;
     710:	e59f31cc 	ldr	r3, [pc, #460]	; 8e4 <IRQ_Stack_Size+0xe4>
     714:	e1d323ba 	ldrh	r2, [r3, #58]	; 0x3a
     718:	e59f31d0 	ldr	r3, [pc, #464]	; 8f0 <IRQ_Stack_Size+0xf0>
     71c:	e1c328ba 	strh	r2, [r3, #138]	; 0x8a
		for(i=0;i<6;i++)
     720:	e3a03000 	mov	r3, #0
     724:	e54b300f 	strb	r3, [fp, #-15]
     728:	ea00000f 	b	76c <PLLSTAT_PLOCK+0x36c>
		{
			RO_ALL_Data.motor_rpm[i]=LL_1khz_attitude_data.motor_data[i];
     72c:	e55b000f 	ldrb	r0, [fp, #-15]
     730:	e55b100f 	ldrb	r1, [fp, #-15]
     734:	e59f31a8 	ldr	r3, [pc, #424]	; 8e4 <IRQ_Stack_Size+0xe4>
     738:	e3a02028 	mov	r2, #40	; 0x28
     73c:	e0813003 	add	r3, r1, r3
     740:	e0833002 	add	r3, r3, r2
     744:	e5d31000 	ldrb	r1, [r3]
     748:	e59f31a0 	ldr	r3, [pc, #416]	; 8f0 <IRQ_Stack_Size+0xf0>
     74c:	e3a0203c 	mov	r2, #60	; 0x3c
     750:	e0803003 	add	r3, r0, r3
     754:	e0832002 	add	r2, r3, r2
     758:	e1a03001 	mov	r3, r1
     75c:	e5c23000 	strb	r3, [r2]
		RO_ALL_Data.fusion_height=LL_1khz_attitude_data.height;
		RO_ALL_Data.fusion_dheight=LL_1khz_attitude_data.dheight;

		RO_ALL_Data.fusion_speed_x=LL_1khz_attitude_data.speed_x_best_estimate;
		RO_ALL_Data.fusion_speed_y=LL_1khz_attitude_data.speed_y_best_estimate;
		for(i=0;i<6;i++)
     760:	e55b300f 	ldrb	r3, [fp, #-15]
     764:	e2833001 	add	r3, r3, #1
     768:	e54b300f 	strb	r3, [fp, #-15]
     76c:	e55b300f 	ldrb	r3, [fp, #-15]
     770:	e3530005 	cmp	r3, #5
     774:	9affffec 	bls	72c <PLLSTAT_PLOCK+0x32c>
     778:	ea000056 	b	8d8 <IRQ_Stack_Size+0xd8>
		{
			RO_ALL_Data.motor_rpm[i]=LL_1khz_attitude_data.motor_data[i];
		}
	}
	else if(current_page==2)
     77c:	e55b300e 	ldrb	r3, [fp, #-14]
     780:	e3530002 	cmp	r3, #2
     784:	1a000053 	bne	8d8 <IRQ_Stack_Size+0xd8>
	{
		IMU_CalcData.Hx=LL_1khz_attitude_data.mag_x;
     788:	e59f3154 	ldr	r3, [pc, #340]	; 8e4 <IRQ_Stack_Size+0xe4>
     78c:	e1d334b2 	ldrh	r3, [r3, #66]	; 0x42
     790:	e1a03803 	lsl	r3, r3, #16
     794:	e1a02843 	asr	r2, r3, #16
     798:	e59f314c 	ldr	r3, [pc, #332]	; 8ec <IRQ_Stack_Size+0xec>
     79c:	e5832030 	str	r2, [r3, #48]	; 0x30
		IMU_CalcData.Hy=LL_1khz_attitude_data.mag_y;
     7a0:	e59f313c 	ldr	r3, [pc, #316]	; 8e4 <IRQ_Stack_Size+0xe4>
     7a4:	e1d334b4 	ldrh	r3, [r3, #68]	; 0x44
     7a8:	e1a03803 	lsl	r3, r3, #16
     7ac:	e1a02843 	asr	r2, r3, #16
     7b0:	e59f3134 	ldr	r3, [pc, #308]	; 8ec <IRQ_Stack_Size+0xec>
     7b4:	e5832034 	str	r2, [r3, #52]	; 0x34
		IMU_CalcData.Hz=LL_1khz_attitude_data.mag_z;
     7b8:	e59f3124 	ldr	r3, [pc, #292]	; 8e4 <IRQ_Stack_Size+0xe4>
     7bc:	e1d334b6 	ldrh	r3, [r3, #70]	; 0x46
     7c0:	e1a03803 	lsl	r3, r3, #16
     7c4:	e1a02843 	asr	r2, r3, #16
     7c8:	e59f311c 	ldr	r3, [pc, #284]	; 8ec <IRQ_Stack_Size+0xec>
     7cc:	e5832038 	str	r2, [r3, #56]	; 0x38

		RO_ALL_Data.Hx=LL_1khz_attitude_data.mag_x;
     7d0:	e59f310c 	ldr	r3, [pc, #268]	; 8e4 <IRQ_Stack_Size+0xe4>
     7d4:	e1d334b2 	ldrh	r3, [r3, #66]	; 0x42
     7d8:	e1a03803 	lsl	r3, r3, #16
     7dc:	e1a02843 	asr	r2, r3, #16
     7e0:	e59f3108 	ldr	r3, [pc, #264]	; 8f0 <IRQ_Stack_Size+0xf0>
     7e4:	e5832030 	str	r2, [r3, #48]	; 0x30
		RO_ALL_Data.Hy=LL_1khz_attitude_data.mag_y;
     7e8:	e59f30f4 	ldr	r3, [pc, #244]	; 8e4 <IRQ_Stack_Size+0xe4>
     7ec:	e1d334b4 	ldrh	r3, [r3, #68]	; 0x44
     7f0:	e1a03803 	lsl	r3, r3, #16
     7f4:	e1a02843 	asr	r2, r3, #16
     7f8:	e59f30f0 	ldr	r3, [pc, #240]	; 8f0 <IRQ_Stack_Size+0xf0>
     7fc:	e5832034 	str	r2, [r3, #52]	; 0x34
		RO_ALL_Data.Hz=LL_1khz_attitude_data.mag_z;
     800:	e59f30dc 	ldr	r3, [pc, #220]	; 8e4 <IRQ_Stack_Size+0xe4>
     804:	e1d334b6 	ldrh	r3, [r3, #70]	; 0x46
     808:	e1a03803 	lsl	r3, r3, #16
     80c:	e1a02843 	asr	r2, r3, #16
     810:	e59f30d8 	ldr	r3, [pc, #216]	; 8f0 <IRQ_Stack_Size+0xf0>
     814:	e5832038 	str	r2, [r3, #56]	; 0x38

		unsigned char slowDataUpChannelSelect=(LL_1khz_attitude_data.status2>>1)&0x7F;
     818:	e59f30c4 	ldr	r3, [pc, #196]	; 8e4 <IRQ_Stack_Size+0xe4>
     81c:	e1d335ba 	ldrh	r3, [r3, #90]	; 0x5a
     820:	e1a03803 	lsl	r3, r3, #16
     824:	e1a03843 	asr	r3, r3, #16
     828:	e1a030c3 	asr	r3, r3, #1
     82c:	e1a03803 	lsl	r3, r3, #16
     830:	e1a03823 	lsr	r3, r3, #16
     834:	e20330ff 	and	r3, r3, #255	; 0xff
     838:	e20330ff 	and	r3, r3, #255	; 0xff
     83c:	e203307f 	and	r3, r3, #127	; 0x7f
     840:	e54b300d 	strb	r3, [fp, #-13]
		switch (slowDataUpChannelSelect)
     844:	e55b300d 	ldrb	r3, [fp, #-13]
     848:	e2433001 	sub	r3, r3, #1
     84c:	e3530007 	cmp	r3, #7
     850:	979ff103 	ldrls	pc, [pc, r3, lsl #2]
     854:	ea00001f 	b	8d8 <IRQ_Stack_Size+0xd8>
     858:	00000878 	.word	0x00000878
     85c:	000008d8 	.word	0x000008d8
     860:	000008d8 	.word	0x000008d8
     864:	000008d8 	.word	0x000008d8
     868:	000008d8 	.word	0x000008d8
     86c:	0000088c 	.word	0x0000088c
     870:	000008a8 	.word	0x000008a8
     874:	000008c4 	.word	0x000008c4
		{
		case SUDC_FLIGHTTIME:

			HL_Status.flight_time=LL_1khz_attitude_data.slowDataUpChannelDataShort;
     878:	e59f3064 	ldr	r3, [pc, #100]	; 8e4 <IRQ_Stack_Size+0xe4>
     87c:	e1d325b4 	ldrh	r2, [r3, #84]	; 0x54
     880:	e59f3074 	ldr	r3, [pc, #116]	; 8fc <IRQ_Stack_Size+0xfc>
     884:	e1c320b6 	strh	r2, [r3, #6]
			break;
     888:	ea000012 	b	8d8 <IRQ_Stack_Size+0xd8>
		case SUDC_NAVSTATUS:
			wpCtrlNavStatus=LL_1khz_attitude_data.slowDataUpChannelDataShort;
     88c:	e59f3050 	ldr	r3, [pc, #80]	; 8e4 <IRQ_Stack_Size+0xe4>
     890:	e1d335b4 	ldrh	r3, [r3, #84]	; 0x54
     894:	e1a03803 	lsl	r3, r3, #16
     898:	e1a02823 	lsr	r2, r3, #16
     89c:	e59f305c 	ldr	r3, [pc, #92]	; 900 <IRQ_Stack_Size+0x100>
     8a0:	e1c320b0 	strh	r2, [r3]
		break;
     8a4:	ea00000b 	b	8d8 <IRQ_Stack_Size+0xd8>
		case SUDC_DISTTOWP:
			wpCtrlDistToWp=LL_1khz_attitude_data.slowDataUpChannelDataShort;
     8a8:	e59f3034 	ldr	r3, [pc, #52]	; 8e4 <IRQ_Stack_Size+0xe4>
     8ac:	e1d335b4 	ldrh	r3, [r3, #84]	; 0x54
     8b0:	e1a03803 	lsl	r3, r3, #16
     8b4:	e1a02823 	lsr	r2, r3, #16
     8b8:	e59f3044 	ldr	r3, [pc, #68]	; 904 <IRQ_Stack_Size+0x104>
     8bc:	e1c320b0 	strh	r2, [r3]
		break;
     8c0:	ea000004 	b	8d8 <IRQ_Stack_Size+0xd8>
		case SUDC_WPACKTRIGGER:
			wpCtrlAckTrigger=LL_1khz_attitude_data.slowDataUpChannelDataShort;
     8c4:	e59f3018 	ldr	r3, [pc, #24]	; 8e4 <IRQ_Stack_Size+0xe4>
     8c8:	e1d335b4 	ldrh	r3, [r3, #84]	; 0x54
     8cc:	e20330ff 	and	r3, r3, #255	; 0xff
     8d0:	e59f2030 	ldr	r2, [pc, #48]	; 908 <IRQ_Stack_Size+0x108>
     8d4:	e5c23000 	strb	r3, [r2]
		break;

		}

	}
}
     8d8:	e24bd00c 	sub	sp, fp, #12
     8dc:	e89d6800 	ldm	sp, {fp, sp, lr}
     8e0:	e12fff1e 	bx	lr
     8e4:	40001e88 	.word	0x40001e88
     8e8:	40000b98 	.word	0x40000b98
     8ec:	4000205c 	.word	0x4000205c
     8f0:	40001fc8 	.word	0x40001fc8
     8f4:	40001fb4 	.word	0x40001fb4
     8f8:	40000e38 	.word	0x40000e38
     8fc:	400020b8 	.word	0x400020b8
     900:	40000b86 	.word	0x40000b86
     904:	40000b88 	.word	0x40000b88
     908:	40000b84 	.word	0x40000b84

0000090c <HL2LL_write_cycle>:

int HL2LL_write_cycle(void)	//write data to low-level processor
{
     90c:	e1a0c00d 	mov	ip, sp
     910:	e92dd800 	push	{fp, ip, lr, pc}
     914:	e24cb004 	sub	fp, ip, #4
     918:	e24dd014 	sub	sp, sp, #20
	static char pageselect=0;
	unsigned char i;

	if(!data_sent_to_LL) return(0);
     91c:	e59f3858 	ldr	r3, [pc, #2136]	; 117c <HL2LL_write_cycle+0x870>
     920:	e5d33000 	ldrb	r3, [r3]
     924:	e3530000 	cmp	r3, #0
     928:	1a000002 	bne	938 <HL2LL_write_cycle+0x2c>
     92c:	e3a02000 	mov	r2, #0
     930:	e50b2020 	str	r2, [fp, #-32]
     934:	ea00020b 	b	1168 <HL2LL_write_cycle+0x85c>

	//update 1kHz data
	LL_1khz_control_input.system_flags=0|pageselect;
     938:	e59f3840 	ldr	r3, [pc, #2112]	; 1180 <HL2LL_write_cycle+0x874>
     93c:	e5d33000 	ldrb	r3, [r3]
     940:	e1a02003 	mov	r2, r3
     944:	e59f3838 	ldr	r3, [pc, #2104]	; 1184 <HL2LL_write_cycle+0x878>
     948:	e1c320b0 	strh	r2, [r3]
	//SSP_ack=0;	//reset ack

	if(gpsDataOkTrigger) LL_1khz_control_input.system_flags|=SF_GPS_NEW;
     94c:	e59f3834 	ldr	r3, [pc, #2100]	; 1188 <HL2LL_write_cycle+0x87c>
     950:	e5933000 	ldr	r3, [r3]
     954:	e3530000 	cmp	r3, #0
     958:	0a000006 	beq	978 <HL2LL_write_cycle+0x6c>
     95c:	e59f3820 	ldr	r3, [pc, #2080]	; 1184 <HL2LL_write_cycle+0x878>
     960:	e1d330b0 	ldrh	r3, [r3]
     964:	e3833008 	orr	r3, r3, #8
     968:	e1a03803 	lsl	r3, r3, #16
     96c:	e1a02823 	lsr	r2, r3, #16
     970:	e59f380c 	ldr	r3, [pc, #2060]	; 1184 <HL2LL_write_cycle+0x878>
     974:	e1c320b0 	strh	r2, [r3]

	if(WO_SDK.ctrl_enabled)  LL_1khz_control_input.system_flags|=SF_HL_CONTROL_ENABLED|SF_NEW_SDK;
     978:	e59f380c 	ldr	r3, [pc, #2060]	; 118c <HL2LL_write_cycle+0x880>
     97c:	e5d33001 	ldrb	r3, [r3, #1]
     980:	e3530000 	cmp	r3, #0
     984:	0a000009 	beq	9b0 <HL2LL_write_cycle+0xa4>
     988:	e59f37f4 	ldr	r3, [pc, #2036]	; 1184 <HL2LL_write_cycle+0x878>
     98c:	e1d330b0 	ldrh	r3, [r3]
     990:	e3833143 	orr	r3, r3, #-1073741808	; 0xc0000010
     994:	e38335ff 	orr	r3, r3, #1069547520	; 0x3fc00000
     998:	e38339fe 	orr	r3, r3, #4161536	; 0x3f8000
     99c:	e1a03803 	lsl	r3, r3, #16
     9a0:	e1a02823 	lsr	r2, r3, #16
     9a4:	e59f37d8 	ldr	r3, [pc, #2008]	; 1184 <HL2LL_write_cycle+0x878>
     9a8:	e1c320b0 	strh	r2, [r3]
     9ac:	ea000007 	b	9d0 <HL2LL_write_cycle+0xc4>
	else LL_1khz_control_input.system_flags&=~(SF_HL_CONTROL_ENABLED|SF_NEW_SDK);
     9b0:	e59f37cc 	ldr	r3, [pc, #1996]	; 1184 <HL2LL_write_cycle+0x878>
     9b4:	e1d330b0 	ldrh	r3, [r3]
     9b8:	e1a02003 	mov	r2, r3
     9bc:	e3a03c7f 	mov	r3, #32512	; 0x7f00
     9c0:	e28330ef 	add	r3, r3, #239	; 0xef
     9c4:	e0022003 	and	r2, r2, r3
     9c8:	e59f37b4 	ldr	r3, [pc, #1972]	; 1184 <HL2LL_write_cycle+0x878>
     9cc:	e1c320b0 	strh	r2, [r3]

	if(WO_SDK.disable_motor_onoff_by_stick) LL_1khz_control_input.system_flags|=SF_SDK_DISABLE_MOTORONOFF_BY_STICK;
     9d0:	e59f37b4 	ldr	r3, [pc, #1972]	; 118c <HL2LL_write_cycle+0x880>
     9d4:	e5d33002 	ldrb	r3, [r3, #2]
     9d8:	e3530000 	cmp	r3, #0
     9dc:	0a000007 	beq	a00 <HL2LL_write_cycle+0xf4>
     9e0:	e59f379c 	ldr	r3, [pc, #1948]	; 1184 <HL2LL_write_cycle+0x878>
     9e4:	e1d330b0 	ldrh	r3, [r3]
     9e8:	e3833c01 	orr	r3, r3, #256	; 0x100
     9ec:	e1a03803 	lsl	r3, r3, #16
     9f0:	e1a02823 	lsr	r2, r3, #16
     9f4:	e59f3788 	ldr	r3, [pc, #1928]	; 1184 <HL2LL_write_cycle+0x878>
     9f8:	e1c320b0 	strh	r2, [r3]
     9fc:	ea00000a 	b	a2c <HL2LL_write_cycle+0x120>
	else LL_1khz_control_input.system_flags&=~SF_SDK_DISABLE_MOTORONOFF_BY_STICK;
     a00:	e59f377c 	ldr	r3, [pc, #1916]	; 1184 <HL2LL_write_cycle+0x878>
     a04:	e1d330b0 	ldrh	r3, [r3]
     a08:	e50b301c 	str	r3, [fp, #-28]
     a0c:	e51b201c 	ldr	r2, [fp, #-28]
     a10:	e3c23c01 	bic	r3, r2, #256	; 0x100
     a14:	e1a03803 	lsl	r3, r3, #16
     a18:	e1a03823 	lsr	r3, r3, #16
     a1c:	e50b301c 	str	r3, [fp, #-28]
     a20:	e59f375c 	ldr	r3, [pc, #1884]	; 1184 <HL2LL_write_cycle+0x878>
     a24:	e51b201c 	ldr	r2, [fp, #-28]
     a28:	e1c320b0 	strh	r2, [r3]

	if(WO_SDK.ctrl_mode==0x00) //direct individual motor control
     a2c:	e59f3758 	ldr	r3, [pc, #1880]	; 118c <HL2LL_write_cycle+0x880>
     a30:	e5d33000 	ldrb	r3, [r3]
     a34:	e3530000 	cmp	r3, #0
     a38:	1a00001b 	bne	aac <HL2LL_write_cycle+0x1a0>
	{
		LL_1khz_control_input.system_flags|=SF_DIRECT_MOTOR_CONTROL_INDIVIDUAL;
     a3c:	e59f3740 	ldr	r3, [pc, #1856]	; 1184 <HL2LL_write_cycle+0x878>
     a40:	e1d330b0 	ldrh	r3, [r3]
     a44:	e3833080 	orr	r3, r3, #128	; 0x80
     a48:	e1a03803 	lsl	r3, r3, #16
     a4c:	e1a02823 	lsr	r2, r3, #16
     a50:	e59f372c 	ldr	r3, [pc, #1836]	; 1184 <HL2LL_write_cycle+0x878>
     a54:	e1c320b0 	strh	r2, [r3]
		for(i=0;i<8;i++)
     a58:	e3a03000 	mov	r3, #0
     a5c:	e54b300d 	strb	r3, [fp, #-13]
     a60:	ea00000d 	b	a9c <HL2LL_write_cycle+0x190>
		{
			LL_1khz_control_input.direct_motor_control[i]=WO_Direct_Individual_Motor_Control.motor[i];
     a64:	e55b000d 	ldrb	r0, [fp, #-13]
     a68:	e55b200d 	ldrb	r2, [fp, #-13]
     a6c:	e59f371c 	ldr	r3, [pc, #1820]	; 1190 <HL2LL_write_cycle+0x884>
     a70:	e0833002 	add	r3, r3, r2
     a74:	e5d31000 	ldrb	r1, [r3]
     a78:	e59f3704 	ldr	r3, [pc, #1796]	; 1184 <HL2LL_write_cycle+0x878>
     a7c:	e3a0200c 	mov	r2, #12
     a80:	e0803003 	add	r3, r0, r3
     a84:	e0832002 	add	r2, r3, r2
     a88:	e1a03001 	mov	r3, r1
     a8c:	e5c23000 	strb	r3, [r2]
	else LL_1khz_control_input.system_flags&=~SF_SDK_DISABLE_MOTORONOFF_BY_STICK;

	if(WO_SDK.ctrl_mode==0x00) //direct individual motor control
	{
		LL_1khz_control_input.system_flags|=SF_DIRECT_MOTOR_CONTROL_INDIVIDUAL;
		for(i=0;i<8;i++)
     a90:	e55b300d 	ldrb	r3, [fp, #-13]
     a94:	e2833001 	add	r3, r3, #1
     a98:	e54b300d 	strb	r3, [fp, #-13]
     a9c:	e55b300d 	ldrb	r3, [fp, #-13]
     aa0:	e3530007 	cmp	r3, #7
     aa4:	9affffee 	bls	a64 <HL2LL_write_cycle+0x158>
     aa8:	ea000128 	b	f50 <HL2LL_write_cycle+0x644>
		{
			LL_1khz_control_input.direct_motor_control[i]=WO_Direct_Individual_Motor_Control.motor[i];
		}
	}
	else if(WO_SDK.ctrl_mode==0x01) //direct motor control with standard output mapping
     aac:	e59f36d8 	ldr	r3, [pc, #1752]	; 118c <HL2LL_write_cycle+0x880>
     ab0:	e5d33000 	ldrb	r3, [r3]
     ab4:	e3530001 	cmp	r3, #1
     ab8:	1a000017 	bne	b1c <HL2LL_write_cycle+0x210>
	{
		LL_1khz_control_input.system_flags|=SF_DIRECT_MOTOR_CONTROL;
     abc:	e59f36c0 	ldr	r3, [pc, #1728]	; 1184 <HL2LL_write_cycle+0x878>
     ac0:	e1d330b0 	ldrh	r3, [r3]
     ac4:	e3833020 	orr	r3, r3, #32
     ac8:	e1a03803 	lsl	r3, r3, #16
     acc:	e1a02823 	lsr	r2, r3, #16
     ad0:	e59f36ac 	ldr	r3, [pc, #1708]	; 1184 <HL2LL_write_cycle+0x878>
     ad4:	e1c320b0 	strh	r2, [r3]
		LL_1khz_control_input.direct_motor_control[0]=WO_Direct_Motor_Control.pitch;
     ad8:	e59f36b4 	ldr	r3, [pc, #1716]	; 1194 <HL2LL_write_cycle+0x888>
     adc:	e5d33000 	ldrb	r3, [r3]
     ae0:	e59f269c 	ldr	r2, [pc, #1692]	; 1184 <HL2LL_write_cycle+0x878>
     ae4:	e5c2300c 	strb	r3, [r2, #12]
		LL_1khz_control_input.direct_motor_control[1]=WO_Direct_Motor_Control.roll;
     ae8:	e59f36a4 	ldr	r3, [pc, #1700]	; 1194 <HL2LL_write_cycle+0x888>
     aec:	e5d33001 	ldrb	r3, [r3, #1]
     af0:	e59f268c 	ldr	r2, [pc, #1676]	; 1184 <HL2LL_write_cycle+0x878>
     af4:	e5c2300d 	strb	r3, [r2, #13]
		LL_1khz_control_input.direct_motor_control[2]=WO_Direct_Motor_Control.yaw;
     af8:	e59f3694 	ldr	r3, [pc, #1684]	; 1194 <HL2LL_write_cycle+0x888>
     afc:	e5d33002 	ldrb	r3, [r3, #2]
     b00:	e59f267c 	ldr	r2, [pc, #1660]	; 1184 <HL2LL_write_cycle+0x878>
     b04:	e5c2300e 	strb	r3, [r2, #14]
		LL_1khz_control_input.direct_motor_control[3]=WO_Direct_Motor_Control.thrust;
     b08:	e59f3684 	ldr	r3, [pc, #1668]	; 1194 <HL2LL_write_cycle+0x888>
     b0c:	e5d33003 	ldrb	r3, [r3, #3]
     b10:	e59f266c 	ldr	r2, [pc, #1644]	; 1184 <HL2LL_write_cycle+0x878>
     b14:	e5c2300f 	strb	r3, [r2, #15]
     b18:	ea00010c 	b	f50 <HL2LL_write_cycle+0x644>
	}
	else if (WO_SDK.ctrl_mode==0x02) //attitude control
     b1c:	e59f3668 	ldr	r3, [pc, #1640]	; 118c <HL2LL_write_cycle+0x880>
     b20:	e5d33000 	ldrb	r3, [r3]
     b24:	e3530002 	cmp	r3, #2
     b28:	1a000021 	bne	bb4 <HL2LL_write_cycle+0x2a8>
	{
		LL_1khz_control_input.system_flags&=~(SF_DIRECT_MOTOR_CONTROL|SF_DIRECT_MOTOR_CONTROL_INDIVIDUAL|SF_WAYPOINT_MODE); //no additional system flag => attitude control is "standard mode"
     b2c:	e59f3650 	ldr	r3, [pc, #1616]	; 1184 <HL2LL_write_cycle+0x878>
     b30:	e1d330b0 	ldrh	r3, [r3]
     b34:	e50b3018 	str	r3, [fp, #-24]
     b38:	e51b2018 	ldr	r2, [fp, #-24]
     b3c:	e3c230e0 	bic	r3, r2, #224	; 0xe0
     b40:	e1a03803 	lsl	r3, r3, #16
     b44:	e1a03823 	lsr	r3, r3, #16
     b48:	e50b3018 	str	r3, [fp, #-24]
     b4c:	e59f3630 	ldr	r3, [pc, #1584]	; 1184 <HL2LL_write_cycle+0x878>
     b50:	e51b2018 	ldr	r2, [fp, #-24]
     b54:	e1c320b0 	strh	r2, [r3]
		LL_1khz_control_input.ctrl_flags=WO_CTRL_Input.ctrl;
     b58:	e59f3638 	ldr	r3, [pc, #1592]	; 1198 <HL2LL_write_cycle+0x88c>
     b5c:	e1d330b8 	ldrh	r3, [r3, #8]
     b60:	e1a03803 	lsl	r3, r3, #16
     b64:	e1a02823 	lsr	r2, r3, #16
     b68:	e59f3614 	ldr	r3, [pc, #1556]	; 1184 <HL2LL_write_cycle+0x878>
     b6c:	e1c320b2 	strh	r2, [r3, #2]
		LL_1khz_control_input.pitch=WO_CTRL_Input.pitch;
     b70:	e59f3620 	ldr	r3, [pc, #1568]	; 1198 <HL2LL_write_cycle+0x88c>
     b74:	e1d320b0 	ldrh	r2, [r3]
     b78:	e59f3604 	ldr	r3, [pc, #1540]	; 1184 <HL2LL_write_cycle+0x878>
     b7c:	e1c320b4 	strh	r2, [r3, #4]
		LL_1khz_control_input.roll=WO_CTRL_Input.roll;
     b80:	e59f3610 	ldr	r3, [pc, #1552]	; 1198 <HL2LL_write_cycle+0x88c>
     b84:	e1d320b2 	ldrh	r2, [r3, #2]
     b88:	e59f35f4 	ldr	r3, [pc, #1524]	; 1184 <HL2LL_write_cycle+0x878>
     b8c:	e1c320b6 	strh	r2, [r3, #6]
		LL_1khz_control_input.yaw=WO_CTRL_Input.yaw;
     b90:	e59f3600 	ldr	r3, [pc, #1536]	; 1198 <HL2LL_write_cycle+0x88c>
     b94:	e1d320b4 	ldrh	r2, [r3, #4]
     b98:	e59f35e4 	ldr	r3, [pc, #1508]	; 1184 <HL2LL_write_cycle+0x878>
     b9c:	e1c320b8 	strh	r2, [r3, #8]
		LL_1khz_control_input.thrust=WO_CTRL_Input.thrust;
     ba0:	e59f35f0 	ldr	r3, [pc, #1520]	; 1198 <HL2LL_write_cycle+0x88c>
     ba4:	e1d320b6 	ldrh	r2, [r3, #6]
     ba8:	e59f35d4 	ldr	r3, [pc, #1492]	; 1184 <HL2LL_write_cycle+0x878>
     bac:	e1c320ba 	strh	r2, [r3, #10]
     bb0:	ea0000e6 	b	f50 <HL2LL_write_cycle+0x644>
	}
	else if (WO_SDK.ctrl_mode==0x03) //gps waypoint control
     bb4:	e59f35d0 	ldr	r3, [pc, #1488]	; 118c <HL2LL_write_cycle+0x880>
     bb8:	e5d33000 	ldrb	r3, [r3]
     bbc:	e3530003 	cmp	r3, #3
     bc0:	1a0000d7 	bne	f24 <HL2LL_write_cycle+0x618>
	{
			LL_1khz_control_input.system_flags|=SF_WAYPOINT_MODE;
     bc4:	e59f35b8 	ldr	r3, [pc, #1464]	; 1184 <HL2LL_write_cycle+0x878>
     bc8:	e1d330b0 	ldrh	r3, [r3]
     bcc:	e3833040 	orr	r3, r3, #64	; 0x40
     bd0:	e1a03803 	lsl	r3, r3, #16
     bd4:	e1a02823 	lsr	r2, r3, #16
     bd8:	e59f35a4 	ldr	r3, [pc, #1444]	; 1184 <HL2LL_write_cycle+0x878>
     bdc:	e1c320b0 	strh	r2, [r3]

			//check if new command should be send

			if (wpCtrlWpCmdUpdated)
     be0:	e59f35b4 	ldr	r3, [pc, #1460]	; 119c <HL2LL_write_cycle+0x890>
     be4:	e5d33000 	ldrb	r3, [r3]
     be8:	e3530000 	cmp	r3, #0
     bec:	0a0000c6 	beq	f0c <HL2LL_write_cycle+0x600>
			{

				if (wpCtrlWpCmd==WP_CMD_SINGLE_WP)
     bf0:	e59f35a8 	ldr	r3, [pc, #1448]	; 11a0 <HL2LL_write_cycle+0x894>
     bf4:	e5d33000 	ldrb	r3, [r3]
     bf8:	e3530001 	cmp	r3, #1
     bfc:	1a0000aa 	bne	eac <HL2LL_write_cycle+0x5a0>
				{
					if (wpCtrlWpCmdUpdated==1)
     c00:	e59f3594 	ldr	r3, [pc, #1428]	; 119c <HL2LL_write_cycle+0x890>
     c04:	e5d33000 	ldrb	r3, [r3]
     c08:	e3530001 	cmp	r3, #1
     c0c:	1a000060 	bne	d94 <HL2LL_write_cycle+0x488>
					{
						LL_1khz_control_input.ctrl_flags&=0x00FF;
     c10:	e59f356c 	ldr	r3, [pc, #1388]	; 1184 <HL2LL_write_cycle+0x878>
     c14:	e1d330b2 	ldrh	r3, [r3, #2]
     c18:	e20330ff 	and	r3, r3, #255	; 0xff
     c1c:	e59f2560 	ldr	r2, [pc, #1376]	; 1184 <HL2LL_write_cycle+0x878>
     c20:	e1c230b2 	strh	r3, [r2, #2]
						LL_1khz_control_input.ctrl_flags|=WP_CMD_SINGLE_WP_PART1<<8;
     c24:	e59f3558 	ldr	r3, [pc, #1368]	; 1184 <HL2LL_write_cycle+0x878>
     c28:	e1d330b2 	ldrh	r3, [r3, #2]
     c2c:	e38334ff 	orr	r3, r3, #-16777216	; 0xff000000
     c30:	e38338ff 	orr	r3, r3, #16711680	; 0xff0000
     c34:	e3833c81 	orr	r3, r3, #33024	; 0x8100
     c38:	e1a03803 	lsl	r3, r3, #16
     c3c:	e1a02823 	lsr	r2, r3, #16
     c40:	e59f353c 	ldr	r3, [pc, #1340]	; 1184 <HL2LL_write_cycle+0x878>
     c44:	e1c320b2 	strh	r2, [r3, #2]

						LL_1khz_control_input.pitch=wpToLL.X&0xFFFF;
     c48:	e59f3554 	ldr	r3, [pc, #1364]	; 11a4 <HL2LL_write_cycle+0x898>
     c4c:	e593300c 	ldr	r3, [r3, #12]
     c50:	e1a03803 	lsl	r3, r3, #16
     c54:	e1a03823 	lsr	r3, r3, #16
     c58:	e1a03803 	lsl	r3, r3, #16
     c5c:	e1a02823 	lsr	r2, r3, #16
     c60:	e59f351c 	ldr	r3, [pc, #1308]	; 1184 <HL2LL_write_cycle+0x878>
     c64:	e1c320b4 	strh	r2, [r3, #4]
						LL_1khz_control_input.roll=wpToLL.X>>16;
     c68:	e59f3534 	ldr	r3, [pc, #1332]	; 11a4 <HL2LL_write_cycle+0x898>
     c6c:	e593300c 	ldr	r3, [r3, #12]
     c70:	e1a03843 	asr	r3, r3, #16
     c74:	e1a03803 	lsl	r3, r3, #16
     c78:	e1a02823 	lsr	r2, r3, #16
     c7c:	e59f3500 	ldr	r3, [pc, #1280]	; 1184 <HL2LL_write_cycle+0x878>
     c80:	e1c320b6 	strh	r2, [r3, #6]
						LL_1khz_control_input.thrust=wpToLL.Y&0xFFFF;
     c84:	e59f3518 	ldr	r3, [pc, #1304]	; 11a4 <HL2LL_write_cycle+0x898>
     c88:	e5933010 	ldr	r3, [r3, #16]
     c8c:	e1a03803 	lsl	r3, r3, #16
     c90:	e1a03823 	lsr	r3, r3, #16
     c94:	e1a03803 	lsl	r3, r3, #16
     c98:	e1a02823 	lsr	r2, r3, #16
     c9c:	e59f34e0 	ldr	r3, [pc, #1248]	; 1184 <HL2LL_write_cycle+0x878>
     ca0:	e1c320ba 	strh	r2, [r3, #10]
						LL_1khz_control_input.yaw=wpToLL.Y>>16;
     ca4:	e59f34f8 	ldr	r3, [pc, #1272]	; 11a4 <HL2LL_write_cycle+0x898>
     ca8:	e5933010 	ldr	r3, [r3, #16]
     cac:	e1a03843 	asr	r3, r3, #16
     cb0:	e1a03803 	lsl	r3, r3, #16
     cb4:	e1a02823 	lsr	r2, r3, #16
     cb8:	e59f34c4 	ldr	r3, [pc, #1220]	; 1184 <HL2LL_write_cycle+0x878>
     cbc:	e1c320b8 	strh	r2, [r3, #8]
						LL_1khz_control_input.direct_motor_control[0]=wpToLL.height;
     cc0:	e59f34dc 	ldr	r3, [pc, #1244]	; 11a4 <HL2LL_write_cycle+0x898>
     cc4:	e5933018 	ldr	r3, [r3, #24]
     cc8:	e20330ff 	and	r3, r3, #255	; 0xff
     ccc:	e59f24b0 	ldr	r2, [pc, #1200]	; 1184 <HL2LL_write_cycle+0x878>
     cd0:	e5c2300c 	strb	r3, [r2, #12]
						LL_1khz_control_input.direct_motor_control[1]=wpToLL.height>>8;
     cd4:	e59f34c8 	ldr	r3, [pc, #1224]	; 11a4 <HL2LL_write_cycle+0x898>
     cd8:	e5933018 	ldr	r3, [r3, #24]
     cdc:	e1a03443 	asr	r3, r3, #8
     ce0:	e20330ff 	and	r3, r3, #255	; 0xff
     ce4:	e59f2498 	ldr	r2, [pc, #1176]	; 1184 <HL2LL_write_cycle+0x878>
     ce8:	e5c2300d 	strb	r3, [r2, #13]
						LL_1khz_control_input.direct_motor_control[2]=wpToLL.height>>16;
     cec:	e59f34b0 	ldr	r3, [pc, #1200]	; 11a4 <HL2LL_write_cycle+0x898>
     cf0:	e5933018 	ldr	r3, [r3, #24]
     cf4:	e1a03843 	asr	r3, r3, #16
     cf8:	e20330ff 	and	r3, r3, #255	; 0xff
     cfc:	e59f2480 	ldr	r2, [pc, #1152]	; 1184 <HL2LL_write_cycle+0x878>
     d00:	e5c2300e 	strb	r3, [r2, #14]
						LL_1khz_control_input.direct_motor_control[3]=wpToLL.height>>24;
     d04:	e59f3498 	ldr	r3, [pc, #1176]	; 11a4 <HL2LL_write_cycle+0x898>
     d08:	e5933018 	ldr	r3, [r3, #24]
     d0c:	e1a03c43 	asr	r3, r3, #24
     d10:	e20330ff 	and	r3, r3, #255	; 0xff
     d14:	e59f2468 	ldr	r2, [pc, #1128]	; 1184 <HL2LL_write_cycle+0x878>
     d18:	e5c2300f 	strb	r3, [r2, #15]
						LL_1khz_control_input.direct_motor_control[4]=wpToLL.yaw;
     d1c:	e59f3480 	ldr	r3, [pc, #1152]	; 11a4 <HL2LL_write_cycle+0x898>
     d20:	e5933014 	ldr	r3, [r3, #20]
     d24:	e20330ff 	and	r3, r3, #255	; 0xff
     d28:	e59f2454 	ldr	r2, [pc, #1108]	; 1184 <HL2LL_write_cycle+0x878>
     d2c:	e5c23010 	strb	r3, [r2, #16]
						LL_1khz_control_input.direct_motor_control[5]=wpToLL.yaw>>8;
     d30:	e59f346c 	ldr	r3, [pc, #1132]	; 11a4 <HL2LL_write_cycle+0x898>
     d34:	e5933014 	ldr	r3, [r3, #20]
     d38:	e1a03443 	asr	r3, r3, #8
     d3c:	e20330ff 	and	r3, r3, #255	; 0xff
     d40:	e59f243c 	ldr	r2, [pc, #1084]	; 1184 <HL2LL_write_cycle+0x878>
     d44:	e5c23011 	strb	r3, [r2, #17]
						LL_1khz_control_input.direct_motor_control[6]=wpToLL.yaw>>16;
     d48:	e59f3454 	ldr	r3, [pc, #1108]	; 11a4 <HL2LL_write_cycle+0x898>
     d4c:	e5933014 	ldr	r3, [r3, #20]
     d50:	e1a03843 	asr	r3, r3, #16
     d54:	e20330ff 	and	r3, r3, #255	; 0xff
     d58:	e59f2424 	ldr	r2, [pc, #1060]	; 1184 <HL2LL_write_cycle+0x878>
     d5c:	e5c23012 	strb	r3, [r2, #18]
						LL_1khz_control_input.direct_motor_control[7]=wpToLL.yaw>>24;
     d60:	e59f343c 	ldr	r3, [pc, #1084]	; 11a4 <HL2LL_write_cycle+0x898>
     d64:	e5933014 	ldr	r3, [r3, #20]
     d68:	e1a03c43 	asr	r3, r3, #24
     d6c:	e20330ff 	and	r3, r3, #255	; 0xff
     d70:	e59f240c 	ldr	r2, [pc, #1036]	; 1184 <HL2LL_write_cycle+0x878>
     d74:	e5c23013 	strb	r3, [r2, #19]

						wpCtrlWpCmdUpdated++;
     d78:	e59f341c 	ldr	r3, [pc, #1052]	; 119c <HL2LL_write_cycle+0x890>
     d7c:	e5d33000 	ldrb	r3, [r3]
     d80:	e2833001 	add	r3, r3, #1
     d84:	e20330ff 	and	r3, r3, #255	; 0xff
     d88:	e59f240c 	ldr	r2, [pc, #1036]	; 119c <HL2LL_write_cycle+0x890>
     d8c:	e5c23000 	strb	r3, [r2]
     d90:	ea00006e 	b	f50 <HL2LL_write_cycle+0x644>
					}else if (wpCtrlWpCmdUpdated==2)
     d94:	e59f3400 	ldr	r3, [pc, #1024]	; 119c <HL2LL_write_cycle+0x890>
     d98:	e5d33000 	ldrb	r3, [r3]
     d9c:	e3530002 	cmp	r3, #2
     da0:	1a00006a 	bne	f50 <HL2LL_write_cycle+0x644>
					{
						LL_1khz_control_input.ctrl_flags&=0x00FF;
     da4:	e59f33d8 	ldr	r3, [pc, #984]	; 1184 <HL2LL_write_cycle+0x878>
     da8:	e1d330b2 	ldrh	r3, [r3, #2]
     dac:	e20330ff 	and	r3, r3, #255	; 0xff
     db0:	e59f23cc 	ldr	r2, [pc, #972]	; 1184 <HL2LL_write_cycle+0x878>
     db4:	e1c230b2 	strh	r3, [r2, #2]
						LL_1khz_control_input.ctrl_flags|=WP_CMD_SINGLE_WP_PART2<<8;
     db8:	e59f33c4 	ldr	r3, [pc, #964]	; 1184 <HL2LL_write_cycle+0x878>
     dbc:	e1d330b2 	ldrh	r3, [r3, #2]
     dc0:	e38334ff 	orr	r3, r3, #-16777216	; 0xff000000
     dc4:	e38338ff 	orr	r3, r3, #16711680	; 0xff0000
     dc8:	e3833c82 	orr	r3, r3, #33280	; 0x8200
     dcc:	e1a03803 	lsl	r3, r3, #16
     dd0:	e1a02823 	lsr	r2, r3, #16
     dd4:	e59f33a8 	ldr	r3, [pc, #936]	; 1184 <HL2LL_write_cycle+0x878>
     dd8:	e1c320b2 	strh	r2, [r3, #2]

						LL_1khz_control_input.pitch=wpToLL.time;
     ddc:	e59f33c0 	ldr	r3, [pc, #960]	; 11a4 <HL2LL_write_cycle+0x898>
     de0:	e1d330b6 	ldrh	r3, [r3, #6]
     de4:	e1a02003 	mov	r2, r3
     de8:	e59f3394 	ldr	r3, [pc, #916]	; 1184 <HL2LL_write_cycle+0x878>
     dec:	e1c320b4 	strh	r2, [r3, #4]
						LL_1khz_control_input.roll=0; //wpToLL.cam_angle_pitch;
     df0:	e59f238c 	ldr	r2, [pc, #908]	; 1184 <HL2LL_write_cycle+0x878>
     df4:	e3a03000 	mov	r3, #0
     df8:	e1c230b6 	strh	r3, [r2, #6]
						LL_1khz_control_input.thrust=wpToLL.pos_acc;
     dfc:	e59f33a0 	ldr	r3, [pc, #928]	; 11a4 <HL2LL_write_cycle+0x898>
     e00:	e1d330b8 	ldrh	r3, [r3, #8]
     e04:	e1a02003 	mov	r2, r3
     e08:	e59f3374 	ldr	r3, [pc, #884]	; 1184 <HL2LL_write_cycle+0x878>
     e0c:	e1c320ba 	strh	r2, [r3, #10]
						LL_1khz_control_input.yaw=wpToLL.chksum;
     e10:	e59f338c 	ldr	r3, [pc, #908]	; 11a4 <HL2LL_write_cycle+0x898>
     e14:	e1d320ba 	ldrh	r2, [r3, #10]
     e18:	e59f3364 	ldr	r3, [pc, #868]	; 1184 <HL2LL_write_cycle+0x878>
     e1c:	e1c320b8 	strh	r2, [r3, #8]
						LL_1khz_control_input.direct_motor_control[0]=0; //wpToLL.cam_angle_roll;
     e20:	e59f235c 	ldr	r2, [pc, #860]	; 1184 <HL2LL_write_cycle+0x878>
     e24:	e3a03000 	mov	r3, #0
     e28:	e5c2300c 	strb	r3, [r2, #12]
						LL_1khz_control_input.direct_motor_control[1]=wpToLL.max_speed;
     e2c:	e59f3370 	ldr	r3, [pc, #880]	; 11a4 <HL2LL_write_cycle+0x898>
     e30:	e5d33005 	ldrb	r3, [r3, #5]
     e34:	e59f2348 	ldr	r2, [pc, #840]	; 1184 <HL2LL_write_cycle+0x878>
     e38:	e5c2300d 	strb	r3, [r2, #13]
						LL_1khz_control_input.direct_motor_control[2]=wpToLL.properties;
     e3c:	e59f3360 	ldr	r3, [pc, #864]	; 11a4 <HL2LL_write_cycle+0x898>
     e40:	e5d33004 	ldrb	r3, [r3, #4]
     e44:	e59f2338 	ldr	r2, [pc, #824]	; 1184 <HL2LL_write_cycle+0x878>
     e48:	e5c2300e 	strb	r3, [r2, #14]
						LL_1khz_control_input.direct_motor_control[3]=wpToLL.wp_activated;
     e4c:	e59f3350 	ldr	r3, [pc, #848]	; 11a4 <HL2LL_write_cycle+0x898>
     e50:	e5933000 	ldr	r3, [r3]
     e54:	e20330ff 	and	r3, r3, #255	; 0xff
     e58:	e59f2324 	ldr	r2, [pc, #804]	; 1184 <HL2LL_write_cycle+0x878>
     e5c:	e5c2300f 	strb	r3, [r2, #15]
						LL_1khz_control_input.direct_motor_control[4]=0;
     e60:	e59f231c 	ldr	r2, [pc, #796]	; 1184 <HL2LL_write_cycle+0x878>
     e64:	e3a03000 	mov	r3, #0
     e68:	e5c23010 	strb	r3, [r2, #16]
						LL_1khz_control_input.direct_motor_control[5]=0;
     e6c:	e59f2310 	ldr	r2, [pc, #784]	; 1184 <HL2LL_write_cycle+0x878>
     e70:	e3a03000 	mov	r3, #0
     e74:	e5c23011 	strb	r3, [r2, #17]
						LL_1khz_control_input.direct_motor_control[6]=0;
     e78:	e59f2304 	ldr	r2, [pc, #772]	; 1184 <HL2LL_write_cycle+0x878>
     e7c:	e3a03000 	mov	r3, #0
     e80:	e5c23012 	strb	r3, [r2, #18]
						LL_1khz_control_input.direct_motor_control[7]=0;
     e84:	e59f22f8 	ldr	r2, [pc, #760]	; 1184 <HL2LL_write_cycle+0x878>
     e88:	e3a03000 	mov	r3, #0
     e8c:	e5c23013 	strb	r3, [r2, #19]
						wpCtrlWpCmdUpdated=0;
     e90:	e59f2304 	ldr	r2, [pc, #772]	; 119c <HL2LL_write_cycle+0x890>
     e94:	e3a03000 	mov	r3, #0
     e98:	e5c23000 	strb	r3, [r2]
						wpCtrlNavStatus=0;
     e9c:	e59f2304 	ldr	r2, [pc, #772]	; 11a8 <HL2LL_write_cycle+0x89c>
     ea0:	e3a03000 	mov	r3, #0
     ea4:	e1c230b0 	strh	r3, [r2]
     ea8:	ea000028 	b	f50 <HL2LL_write_cycle+0x644>
					}
				}else
				{
						LL_1khz_control_input.ctrl_flags&=0x00FF;
     eac:	e59f32d0 	ldr	r3, [pc, #720]	; 1184 <HL2LL_write_cycle+0x878>
     eb0:	e1d330b2 	ldrh	r3, [r3, #2]
     eb4:	e20330ff 	and	r3, r3, #255	; 0xff
     eb8:	e59f22c4 	ldr	r2, [pc, #708]	; 1184 <HL2LL_write_cycle+0x878>
     ebc:	e1c230b2 	strh	r3, [r2, #2]
						LL_1khz_control_input.ctrl_flags|=wpCtrlWpCmd<<8;
     ec0:	e59f32bc 	ldr	r3, [pc, #700]	; 1184 <HL2LL_write_cycle+0x878>
     ec4:	e1d330b2 	ldrh	r3, [r3, #2]
     ec8:	e1a02003 	mov	r2, r3
     ecc:	e59f32cc 	ldr	r3, [pc, #716]	; 11a0 <HL2LL_write_cycle+0x894>
     ed0:	e5d33000 	ldrb	r3, [r3]
     ed4:	e1a03403 	lsl	r3, r3, #8
     ed8:	e1a03803 	lsl	r3, r3, #16
     edc:	e1a03823 	lsr	r3, r3, #16
     ee0:	e1823003 	orr	r3, r2, r3
     ee4:	e1a03803 	lsl	r3, r3, #16
     ee8:	e1a03823 	lsr	r3, r3, #16
     eec:	e1a03803 	lsl	r3, r3, #16
     ef0:	e1a02823 	lsr	r2, r3, #16
     ef4:	e59f3288 	ldr	r3, [pc, #648]	; 1184 <HL2LL_write_cycle+0x878>
     ef8:	e1c320b2 	strh	r2, [r3, #2]
					wpCtrlWpCmdUpdated=0;
     efc:	e59f2298 	ldr	r2, [pc, #664]	; 119c <HL2LL_write_cycle+0x890>
     f00:	e3a03000 	mov	r3, #0
     f04:	e5c23000 	strb	r3, [r2]
     f08:	ea000010 	b	f50 <HL2LL_write_cycle+0x644>
				}
			}else
			{
				LL_1khz_control_input.ctrl_flags&=0x00FF;
     f0c:	e59f3270 	ldr	r3, [pc, #624]	; 1184 <HL2LL_write_cycle+0x878>
     f10:	e1d330b2 	ldrh	r3, [r3, #2]
     f14:	e20330ff 	and	r3, r3, #255	; 0xff
     f18:	e59f2264 	ldr	r2, [pc, #612]	; 1184 <HL2LL_write_cycle+0x878>
     f1c:	e1c230b2 	strh	r3, [r2, #2]
     f20:	ea00000a 	b	f50 <HL2LL_write_cycle+0x644>
			}
	}
	else LL_1khz_control_input.system_flags&=~(SF_DIRECT_MOTOR_CONTROL|SF_DIRECT_MOTOR_CONTROL_INDIVIDUAL|SF_WAYPOINT_MODE);
     f24:	e59f3258 	ldr	r3, [pc, #600]	; 1184 <HL2LL_write_cycle+0x878>
     f28:	e1d330b0 	ldrh	r3, [r3]
     f2c:	e50b3014 	str	r3, [fp, #-20]
     f30:	e51b2014 	ldr	r2, [fp, #-20]
     f34:	e3c230e0 	bic	r3, r2, #224	; 0xe0
     f38:	e1a03803 	lsl	r3, r3, #16
     f3c:	e1a03823 	lsr	r3, r3, #16
     f40:	e50b3014 	str	r3, [fp, #-20]
     f44:	e59f3238 	ldr	r3, [pc, #568]	; 1184 <HL2LL_write_cycle+0x878>
     f48:	e51b2014 	ldr	r2, [fp, #-20]
     f4c:	e1c320b0 	strh	r2, [r3]

	if(pageselect==0)
     f50:	e59f3228 	ldr	r3, [pc, #552]	; 1180 <HL2LL_write_cycle+0x874>
     f54:	e5d33000 	ldrb	r3, [r3]
     f58:	e3530000 	cmp	r3, #0
     f5c:	1a00002b 	bne	1010 <HL2LL_write_cycle+0x704>
	{
		//fill struct with 500Hz data
		LL_1khz_control_input.latitude=GPS_Data.latitude;
     f60:	e59f3244 	ldr	r3, [pc, #580]	; 11ac <HL2LL_write_cycle+0x8a0>
     f64:	e5932000 	ldr	r2, [r3]
     f68:	e59f3214 	ldr	r3, [pc, #532]	; 1184 <HL2LL_write_cycle+0x878>
     f6c:	e5832014 	str	r2, [r3, #20]
		LL_1khz_control_input.longitude=GPS_Data.longitude;
     f70:	e59f3234 	ldr	r3, [pc, #564]	; 11ac <HL2LL_write_cycle+0x8a0>
     f74:	e5932004 	ldr	r2, [r3, #4]
     f78:	e59f3204 	ldr	r3, [pc, #516]	; 1184 <HL2LL_write_cycle+0x878>
     f7c:	e5832018 	str	r2, [r3, #24]
		LL_1khz_control_input.height=GPS_Data.height;
     f80:	e59f3224 	ldr	r3, [pc, #548]	; 11ac <HL2LL_write_cycle+0x8a0>
     f84:	e5932008 	ldr	r2, [r3, #8]
     f88:	e59f31f4 	ldr	r3, [pc, #500]	; 1184 <HL2LL_write_cycle+0x878>
     f8c:	e583201c 	str	r2, [r3, #28]
		LL_1khz_control_input.speed_x=GPS_Data.speed_x;
     f90:	e59f3214 	ldr	r3, [pc, #532]	; 11ac <HL2LL_write_cycle+0x8a0>
     f94:	e593300c 	ldr	r3, [r3, #12]
     f98:	e1a03803 	lsl	r3, r3, #16
     f9c:	e1a02823 	lsr	r2, r3, #16
     fa0:	e59f31dc 	ldr	r3, [pc, #476]	; 1184 <HL2LL_write_cycle+0x878>
     fa4:	e1c322b0 	strh	r2, [r3, #32]
		LL_1khz_control_input.speed_y=GPS_Data.speed_y;
     fa8:	e59f31fc 	ldr	r3, [pc, #508]	; 11ac <HL2LL_write_cycle+0x8a0>
     fac:	e5933010 	ldr	r3, [r3, #16]
     fb0:	e1a03803 	lsl	r3, r3, #16
     fb4:	e1a02823 	lsr	r2, r3, #16
     fb8:	e59f31c4 	ldr	r3, [pc, #452]	; 1184 <HL2LL_write_cycle+0x878>
     fbc:	e1c322b2 	strh	r2, [r3, #34]	; 0x22
		LL_1khz_control_input.heading=GPS_Data.heading;
     fc0:	e59f31e4 	ldr	r3, [pc, #484]	; 11ac <HL2LL_write_cycle+0x8a0>
     fc4:	e5933014 	ldr	r3, [r3, #20]
     fc8:	e1a03803 	lsl	r3, r3, #16
     fcc:	e1a02823 	lsr	r2, r3, #16
     fd0:	e59f31ac 	ldr	r3, [pc, #428]	; 1184 <HL2LL_write_cycle+0x878>
     fd4:	e1c322be 	strh	r2, [r3, #46]	; 0x2e
		LL_1khz_control_input.status=GPS_Data.status;
     fd8:	e59f31cc 	ldr	r3, [pc, #460]	; 11ac <HL2LL_write_cycle+0x8a0>
     fdc:	e5933028 	ldr	r3, [r3, #40]	; 0x28
     fe0:	e1a03803 	lsl	r3, r3, #16
     fe4:	e1a02823 	lsr	r2, r3, #16
     fe8:	e59f3194 	ldr	r3, [pc, #404]	; 1184 <HL2LL_write_cycle+0x878>
     fec:	e1c322b4 	strh	r2, [r3, #36]	; 0x24

		//write data
		LL_write_ctrl_data(pageselect);
     ff0:	e59f3188 	ldr	r3, [pc, #392]	; 1180 <HL2LL_write_cycle+0x874>
     ff4:	e5d33000 	ldrb	r3, [r3]
     ff8:	e1a00003 	mov	r0, r3
     ffc:	eb00006f 	bl	11c0 <LL_write_ctrl_data>
		//set pageselect to other page for next cycle
		pageselect=1;
    1000:	e59f2178 	ldr	r2, [pc, #376]	; 1180 <HL2LL_write_cycle+0x874>
    1004:	e3a03001 	mov	r3, #1
    1008:	e5c23000 	strb	r3, [r2]
    100c:	ea000053 	b	1160 <HL2LL_write_cycle+0x854>
	}
	else //pageselect=1
	{
		//fill struct with 500Hz data
		LL_1khz_control_input.hor_accuracy=GPS_Data.horizontal_accuracy;
    1010:	e59f3194 	ldr	r3, [pc, #404]	; 11ac <HL2LL_write_cycle+0x8a0>
    1014:	e5933018 	ldr	r3, [r3, #24]
    1018:	e1a03803 	lsl	r3, r3, #16
    101c:	e1a02823 	lsr	r2, r3, #16
    1020:	e59f315c 	ldr	r3, [pc, #348]	; 1184 <HL2LL_write_cycle+0x878>
    1024:	e1c322b6 	strh	r2, [r3, #38]	; 0x26
		LL_1khz_control_input.vert_accuracy=GPS_Data.vertical_accuracy;
    1028:	e59f317c 	ldr	r3, [pc, #380]	; 11ac <HL2LL_write_cycle+0x8a0>
    102c:	e593301c 	ldr	r3, [r3, #28]
    1030:	e1a03803 	lsl	r3, r3, #16
    1034:	e1a02823 	lsr	r2, r3, #16
    1038:	e59f3144 	ldr	r3, [pc, #324]	; 1184 <HL2LL_write_cycle+0x878>
    103c:	e1c322b8 	strh	r2, [r3, #40]	; 0x28
		LL_1khz_control_input.speed_accuracy=GPS_Data.speed_accuracy;
    1040:	e59f3164 	ldr	r3, [pc, #356]	; 11ac <HL2LL_write_cycle+0x8a0>
    1044:	e5933020 	ldr	r3, [r3, #32]
    1048:	e1a03803 	lsl	r3, r3, #16
    104c:	e1a02823 	lsr	r2, r3, #16
    1050:	e59f312c 	ldr	r3, [pc, #300]	; 1184 <HL2LL_write_cycle+0x878>
    1054:	e1c322ba 	strh	r2, [r3, #42]	; 0x2a
		LL_1khz_control_input.numSV=GPS_Data.numSV;
    1058:	e59f314c 	ldr	r3, [pc, #332]	; 11ac <HL2LL_write_cycle+0x8a0>
    105c:	e5933024 	ldr	r3, [r3, #36]	; 0x24
    1060:	e1a03803 	lsl	r3, r3, #16
    1064:	e1a02823 	lsr	r2, r3, #16
    1068:	e59f3114 	ldr	r3, [pc, #276]	; 1184 <HL2LL_write_cycle+0x878>
    106c:	e1c322bc 	strh	r2, [r3, #44]	; 0x2c
		LL_1khz_control_input.battery_voltage_1=HL_Status.battery_voltage_1;
    1070:	e59f3138 	ldr	r3, [pc, #312]	; 11b0 <HL2LL_write_cycle+0x8a4>
    1074:	e1d320b0 	ldrh	r2, [r3]
    1078:	e59f3104 	ldr	r3, [pc, #260]	; 1184 <HL2LL_write_cycle+0x878>
    107c:	e1c323b0 	strh	r2, [r3, #48]	; 0x30
		LL_1khz_control_input.battery_voltage_2=HL_Status.battery_voltage_2;
    1080:	e59f3128 	ldr	r3, [pc, #296]	; 11b0 <HL2LL_write_cycle+0x8a4>
    1084:	e1d320b2 	ldrh	r2, [r3, #2]
    1088:	e59f30f4 	ldr	r3, [pc, #244]	; 1184 <HL2LL_write_cycle+0x878>
    108c:	e1c323b2 	strh	r2, [r3, #50]	; 0x32
		if (declinationAvailable==1)
    1090:	e59f311c 	ldr	r3, [pc, #284]	; 11b4 <HL2LL_write_cycle+0x8a8>
    1094:	e5d33000 	ldrb	r3, [r3]
    1098:	e20330ff 	and	r3, r3, #255	; 0xff
    109c:	e3530001 	cmp	r3, #1
    10a0:	1a00000c 	bne	10d8 <HL2LL_write_cycle+0x7cc>
		{
			declinationAvailable=2;
    10a4:	e59f2108 	ldr	r2, [pc, #264]	; 11b4 <HL2LL_write_cycle+0x8a8>
    10a8:	e3a03002 	mov	r3, #2
    10ac:	e5c23000 	strb	r3, [r2]
			LL_1khz_control_input.slowDataChannelSelect=SDC_DECLINATION;
    10b0:	e59f20cc 	ldr	r2, [pc, #204]	; 1184 <HL2LL_write_cycle+0x878>
    10b4:	e3a03001 	mov	r3, #1
    10b8:	e5c23034 	strb	r3, [r2, #52]	; 0x34
			LL_1khz_control_input.slowDataChannelDataShort=estimatedDeclination;
    10bc:	e59f30f4 	ldr	r3, [pc, #244]	; 11b8 <HL2LL_write_cycle+0x8ac>
    10c0:	e5933000 	ldr	r3, [r3]
    10c4:	e1a03803 	lsl	r3, r3, #16
    10c8:	e1a02823 	lsr	r2, r3, #16
    10cc:	e59f30b0 	ldr	r3, [pc, #176]	; 1184 <HL2LL_write_cycle+0x878>
    10d0:	e1c323b6 	strh	r2, [r3, #54]	; 0x36
    10d4:	ea00001a 	b	1144 <HL2LL_write_cycle+0x838>

		}
		else if (declinationAvailable==2)
    10d8:	e59f30d4 	ldr	r3, [pc, #212]	; 11b4 <HL2LL_write_cycle+0x8a8>
    10dc:	e5d33000 	ldrb	r3, [r3]
    10e0:	e20330ff 	and	r3, r3, #255	; 0xff
    10e4:	e3530002 	cmp	r3, #2
    10e8:	1a00000c 	bne	1120 <HL2LL_write_cycle+0x814>
		{
			declinationAvailable=3;
    10ec:	e59f20c0 	ldr	r2, [pc, #192]	; 11b4 <HL2LL_write_cycle+0x8a8>
    10f0:	e3a03003 	mov	r3, #3
    10f4:	e5c23000 	strb	r3, [r2]
			LL_1khz_control_input.slowDataChannelSelect=SDC_INCLINATION;
    10f8:	e59f2084 	ldr	r2, [pc, #132]	; 1184 <HL2LL_write_cycle+0x878>
    10fc:	e3a03012 	mov	r3, #18
    1100:	e5c23034 	strb	r3, [r2, #52]	; 0x34
			LL_1khz_control_input.slowDataChannelDataShort=estimatedInclination;
    1104:	e59f30b0 	ldr	r3, [pc, #176]	; 11bc <HL2LL_write_cycle+0x8b0>
    1108:	e5933000 	ldr	r3, [r3]
    110c:	e1a03803 	lsl	r3, r3, #16
    1110:	e1a02823 	lsr	r2, r3, #16
    1114:	e59f3068 	ldr	r3, [pc, #104]	; 1184 <HL2LL_write_cycle+0x878>
    1118:	e1c323b6 	strh	r2, [r3, #54]	; 0x36
    111c:	ea000008 	b	1144 <HL2LL_write_cycle+0x838>

		}
		else
		{
			LL_1khz_control_input.slowDataChannelDataShort=0;
    1120:	e59f205c 	ldr	r2, [pc, #92]	; 1184 <HL2LL_write_cycle+0x878>
    1124:	e3a03000 	mov	r3, #0
    1128:	e1c233b6 	strh	r3, [r2, #54]	; 0x36
			LL_1khz_control_input.slowDataChannelSelect=0;
    112c:	e59f2050 	ldr	r2, [pc, #80]	; 1184 <HL2LL_write_cycle+0x878>
    1130:	e3a03000 	mov	r3, #0
    1134:	e5c23034 	strb	r3, [r2, #52]	; 0x34
			LL_1khz_control_input.slowDataChannelDataChar=0;
    1138:	e59f2044 	ldr	r2, [pc, #68]	; 1184 <HL2LL_write_cycle+0x878>
    113c:	e3a03000 	mov	r3, #0
    1140:	e5c23035 	strb	r3, [r2, #53]	; 0x35
		}


		//write data
		LL_write_ctrl_data(pageselect);
    1144:	e59f3034 	ldr	r3, [pc, #52]	; 1180 <HL2LL_write_cycle+0x874>
    1148:	e5d33000 	ldrb	r3, [r3]
    114c:	e1a00003 	mov	r0, r3
    1150:	eb00001a 	bl	11c0 <LL_write_ctrl_data>
		//set pageselect to other page for next cycle
		pageselect=0;
    1154:	e59f2024 	ldr	r2, [pc, #36]	; 1180 <HL2LL_write_cycle+0x874>
    1158:	e3a03000 	mov	r3, #0
    115c:	e5c23000 	strb	r3, [r2]
	}
	return(1);
    1160:	e3a03001 	mov	r3, #1
    1164:	e50b3020 	str	r3, [fp, #-32]
    1168:	e51b3020 	ldr	r3, [fp, #-32]
}
    116c:	e1a00003 	mov	r0, r3
    1170:	e24bd00c 	sub	sp, fp, #12
    1174:	e89d6800 	ldm	sp, {fp, sp, lr}
    1178:	e12fff1e 	bx	lr
    117c:	40000225 	.word	0x40000225
    1180:	40000b8a 	.word	0x40000b8a
    1184:	40001ee4 	.word	0x40001ee4
    1188:	40000b98 	.word	0x40000b98
    118c:	40001fac 	.word	0x40001fac
    1190:	40001fa4 	.word	0x40001fa4
    1194:	40001f9c 	.word	0x40001f9c
    1198:	40001f90 	.word	0x40001f90
    119c:	40000b83 	.word	0x40000b83
    11a0:	40000b82 	.word	0x40000b82
    11a4:	40001f1c 	.word	0x40001f1c
    11a8:	40000b86 	.word	0x40000b86
    11ac:	40001f38 	.word	0x40001f38
    11b0:	400020b8 	.word	0x400020b8
    11b4:	400011a4 	.word	0x400011a4
    11b8:	4000119c 	.word	0x4000119c
    11bc:	400011a0 	.word	0x400011a0

000011c0 <LL_write_ctrl_data>:

void LL_write_ctrl_data(char page)
{
    11c0:	e1a0c00d 	mov	ip, sp
    11c4:	e92dd800 	push	{fp, ip, lr, pc}
    11c8:	e24cb004 	sub	fp, ip, #4
    11cc:	e24dd00c 	sub	sp, sp, #12
    11d0:	e1a03000 	mov	r3, r0
    11d4:	e54b3018 	strb	r3, [fp, #-24]
	unsigned int i;
	unsigned char *dataptr;
	static volatile short spi_chksum;

	dataptr=(unsigned char *)&LL_1khz_control_input;
    11d8:	e59f3240 	ldr	r3, [pc, #576]	; 1420 <LL_write_ctrl_data+0x260>
    11dc:	e50b3010 	str	r3, [fp, #-16]

	//initialize syncbytes
	SPIWRData[0]='>';
    11e0:	e59f223c 	ldr	r2, [pc, #572]	; 1424 <LL_write_ctrl_data+0x264>
    11e4:	e3a0303e 	mov	r3, #62	; 0x3e
    11e8:	e5c23000 	strb	r3, [r2]
	SPIWRData[1]='*';
    11ec:	e59f2230 	ldr	r2, [pc, #560]	; 1424 <LL_write_ctrl_data+0x264>
    11f0:	e3a0302a 	mov	r3, #42	; 0x2a
    11f4:	e5c23001 	strb	r3, [r2, #1]

	spi_chksum=0xAAAA;
    11f8:	e59f2228 	ldr	r2, [pc, #552]	; 1428 <LL_write_ctrl_data+0x268>
    11fc:	e3e03c55 	mvn	r3, #21760	; 0x5500
    1200:	e2433055 	sub	r3, r3, #85	; 0x55
    1204:	e1c230b0 	strh	r3, [r2]

	if(!page)
    1208:	e55b3018 	ldrb	r3, [fp, #-24]
    120c:	e3530000 	cmp	r3, #0
    1210:	1a000021 	bne	129c <LL_write_ctrl_data+0xdc>
	{
		for(i=2;i<40;i++)
    1214:	e3a03002 	mov	r3, #2
    1218:	e50b3014 	str	r3, [fp, #-20]
    121c:	ea00001a 	b	128c <LL_write_ctrl_data+0xcc>
		{
			SPIWRData[i]=*dataptr++;
    1220:	e51b1014 	ldr	r1, [fp, #-20]
    1224:	e51b3010 	ldr	r3, [fp, #-16]
    1228:	e5d33000 	ldrb	r3, [r3]
    122c:	e59f21f0 	ldr	r2, [pc, #496]	; 1424 <LL_write_ctrl_data+0x264>
    1230:	e7c23001 	strb	r3, [r2, r1]
    1234:	e51b3010 	ldr	r3, [fp, #-16]
    1238:	e2833001 	add	r3, r3, #1
    123c:	e50b3010 	str	r3, [fp, #-16]
			spi_chksum+=SPIWRData[i];
    1240:	e51b2014 	ldr	r2, [fp, #-20]
    1244:	e59f31d8 	ldr	r3, [pc, #472]	; 1424 <LL_write_ctrl_data+0x264>
    1248:	e7d33002 	ldrb	r3, [r3, r2]
    124c:	e1a02003 	mov	r2, r3
    1250:	e59f31d0 	ldr	r3, [pc, #464]	; 1428 <LL_write_ctrl_data+0x268>
    1254:	e1d330b0 	ldrh	r3, [r3]
    1258:	e1a03803 	lsl	r3, r3, #16
    125c:	e1a03823 	lsr	r3, r3, #16
    1260:	e1a03803 	lsl	r3, r3, #16
    1264:	e1a03823 	lsr	r3, r3, #16
    1268:	e0823003 	add	r3, r2, r3
    126c:	e1a03803 	lsl	r3, r3, #16
    1270:	e1a03823 	lsr	r3, r3, #16
    1274:	e1a02003 	mov	r2, r3
    1278:	e59f31a8 	ldr	r3, [pc, #424]	; 1428 <LL_write_ctrl_data+0x268>
    127c:	e1c320b0 	strh	r2, [r3]

	spi_chksum=0xAAAA;

	if(!page)
	{
		for(i=2;i<40;i++)
    1280:	e51b3014 	ldr	r3, [fp, #-20]
    1284:	e2833001 	add	r3, r3, #1
    1288:	e50b3014 	str	r3, [fp, #-20]
    128c:	e51b3014 	ldr	r3, [fp, #-20]
    1290:	e3530027 	cmp	r3, #39	; 0x27
    1294:	9affffe1 	bls	1220 <LL_write_ctrl_data+0x60>
    1298:	ea000044 	b	13b0 <LL_write_ctrl_data+0x1f0>
			spi_chksum+=SPIWRData[i];
		}
	}
	else
	{
		for(i=2;i<22;i++)
    129c:	e3a03002 	mov	r3, #2
    12a0:	e50b3014 	str	r3, [fp, #-20]
    12a4:	ea00001a 	b	1314 <LL_write_ctrl_data+0x154>
		{
			SPIWRData[i]=*dataptr++;
    12a8:	e51b1014 	ldr	r1, [fp, #-20]
    12ac:	e51b3010 	ldr	r3, [fp, #-16]
    12b0:	e5d33000 	ldrb	r3, [r3]
    12b4:	e59f2168 	ldr	r2, [pc, #360]	; 1424 <LL_write_ctrl_data+0x264>
    12b8:	e7c23001 	strb	r3, [r2, r1]
    12bc:	e51b3010 	ldr	r3, [fp, #-16]
    12c0:	e2833001 	add	r3, r3, #1
    12c4:	e50b3010 	str	r3, [fp, #-16]
			spi_chksum+=SPIWRData[i];
    12c8:	e51b2014 	ldr	r2, [fp, #-20]
    12cc:	e59f3150 	ldr	r3, [pc, #336]	; 1424 <LL_write_ctrl_data+0x264>
    12d0:	e7d33002 	ldrb	r3, [r3, r2]
    12d4:	e1a02003 	mov	r2, r3
    12d8:	e59f3148 	ldr	r3, [pc, #328]	; 1428 <LL_write_ctrl_data+0x268>
    12dc:	e1d330b0 	ldrh	r3, [r3]
    12e0:	e1a03803 	lsl	r3, r3, #16
    12e4:	e1a03823 	lsr	r3, r3, #16
    12e8:	e1a03803 	lsl	r3, r3, #16
    12ec:	e1a03823 	lsr	r3, r3, #16
    12f0:	e0823003 	add	r3, r2, r3
    12f4:	e1a03803 	lsl	r3, r3, #16
    12f8:	e1a03823 	lsr	r3, r3, #16
    12fc:	e1a02003 	mov	r2, r3
    1300:	e59f3120 	ldr	r3, [pc, #288]	; 1428 <LL_write_ctrl_data+0x268>
    1304:	e1c320b0 	strh	r2, [r3]
			spi_chksum+=SPIWRData[i];
		}
	}
	else
	{
		for(i=2;i<22;i++)
    1308:	e51b3014 	ldr	r3, [fp, #-20]
    130c:	e2833001 	add	r3, r3, #1
    1310:	e50b3014 	str	r3, [fp, #-20]
    1314:	e51b3014 	ldr	r3, [fp, #-20]
    1318:	e3530015 	cmp	r3, #21
    131c:	9affffe1 	bls	12a8 <LL_write_ctrl_data+0xe8>
		{
			SPIWRData[i]=*dataptr++;
			spi_chksum+=SPIWRData[i];
		}
		dataptr+=18;
    1320:	e51b3010 	ldr	r3, [fp, #-16]
    1324:	e2833012 	add	r3, r3, #18
    1328:	e50b3010 	str	r3, [fp, #-16]
		for(i=22;i<40;i++)
    132c:	e3a03016 	mov	r3, #22
    1330:	e50b3014 	str	r3, [fp, #-20]
    1334:	ea00001a 	b	13a4 <LL_write_ctrl_data+0x1e4>
		{
			SPIWRData[i]=*dataptr++;
    1338:	e51b1014 	ldr	r1, [fp, #-20]
    133c:	e51b3010 	ldr	r3, [fp, #-16]
    1340:	e5d33000 	ldrb	r3, [r3]
    1344:	e59f20d8 	ldr	r2, [pc, #216]	; 1424 <LL_write_ctrl_data+0x264>
    1348:	e7c23001 	strb	r3, [r2, r1]
    134c:	e51b3010 	ldr	r3, [fp, #-16]
    1350:	e2833001 	add	r3, r3, #1
    1354:	e50b3010 	str	r3, [fp, #-16]
			spi_chksum+=SPIWRData[i];
    1358:	e51b2014 	ldr	r2, [fp, #-20]
    135c:	e59f30c0 	ldr	r3, [pc, #192]	; 1424 <LL_write_ctrl_data+0x264>
    1360:	e7d33002 	ldrb	r3, [r3, r2]
    1364:	e1a02003 	mov	r2, r3
    1368:	e59f30b8 	ldr	r3, [pc, #184]	; 1428 <LL_write_ctrl_data+0x268>
    136c:	e1d330b0 	ldrh	r3, [r3]
    1370:	e1a03803 	lsl	r3, r3, #16
    1374:	e1a03823 	lsr	r3, r3, #16
    1378:	e1a03803 	lsl	r3, r3, #16
    137c:	e1a03823 	lsr	r3, r3, #16
    1380:	e0823003 	add	r3, r2, r3
    1384:	e1a03803 	lsl	r3, r3, #16
    1388:	e1a03823 	lsr	r3, r3, #16
    138c:	e1a02003 	mov	r2, r3
    1390:	e59f3090 	ldr	r3, [pc, #144]	; 1428 <LL_write_ctrl_data+0x268>
    1394:	e1c320b0 	strh	r2, [r3]
		{
			SPIWRData[i]=*dataptr++;
			spi_chksum+=SPIWRData[i];
		}
		dataptr+=18;
		for(i=22;i<40;i++)
    1398:	e51b3014 	ldr	r3, [fp, #-20]
    139c:	e2833001 	add	r3, r3, #1
    13a0:	e50b3014 	str	r3, [fp, #-20]
    13a4:	e51b3014 	ldr	r3, [fp, #-20]
    13a8:	e3530027 	cmp	r3, #39	; 0x27
    13ac:	9affffe1 	bls	1338 <LL_write_ctrl_data+0x178>
			SPIWRData[i]=*dataptr++;
			spi_chksum+=SPIWRData[i];
		}
	}

	SPIWRData[40]=spi_chksum;		//chksum LSB
    13b0:	e59f3070 	ldr	r3, [pc, #112]	; 1428 <LL_write_ctrl_data+0x268>
    13b4:	e1d330b0 	ldrh	r3, [r3]
    13b8:	e1a03803 	lsl	r3, r3, #16
    13bc:	e1a03823 	lsr	r3, r3, #16
    13c0:	e20330ff 	and	r3, r3, #255	; 0xff
    13c4:	e59f2058 	ldr	r2, [pc, #88]	; 1424 <LL_write_ctrl_data+0x264>
    13c8:	e5c23028 	strb	r3, [r2, #40]	; 0x28
	SPIWRData[41]=(spi_chksum>>8);	//chksum MSB
    13cc:	e59f3054 	ldr	r3, [pc, #84]	; 1428 <LL_write_ctrl_data+0x268>
    13d0:	e1d330b0 	ldrh	r3, [r3]
    13d4:	e1a03803 	lsl	r3, r3, #16
    13d8:	e1a03823 	lsr	r3, r3, #16
    13dc:	e1a03803 	lsl	r3, r3, #16
    13e0:	e1a03843 	asr	r3, r3, #16
    13e4:	e1a03443 	asr	r3, r3, #8
    13e8:	e1a03803 	lsl	r3, r3, #16
    13ec:	e1a03823 	lsr	r3, r3, #16
    13f0:	e20330ff 	and	r3, r3, #255	; 0xff
    13f4:	e59f2028 	ldr	r2, [pc, #40]	; 1424 <LL_write_ctrl_data+0x264>
    13f8:	e5c23029 	strb	r3, [r2, #41]	; 0x29

	SPIWR_num_bytes=42;
    13fc:	e59f2028 	ldr	r2, [pc, #40]	; 142c <LL_write_ctrl_data+0x26c>
    1400:	e3a0302a 	mov	r3, #42	; 0x2a
    1404:	e5823000 	str	r3, [r2]
	data_sent_to_LL=0;
    1408:	e59f2020 	ldr	r2, [pc, #32]	; 1430 <LL_write_ctrl_data+0x270>
    140c:	e3a03000 	mov	r3, #0
    1410:	e5c23000 	strb	r3, [r2]
}
    1414:	e24bd00c 	sub	sp, fp, #12
    1418:	e89d6800 	ldm	sp, {fp, sp, lr}
    141c:	e12fff1e 	bx	lr
    1420:	40001ee4 	.word	0x40001ee4
    1424:	40002310 	.word	0x40002310
    1428:	40000b8c 	.word	0x40000b8c
    142c:	40002308 	.word	0x40002308
    1430:	40000225 	.word	0x40000225

00001434 <SSP_rx_handler_HL>:


inline void SSP_rx_handler_HL(unsigned char SPI_rxdata)	//rx_handler @ high-level processor
{
    1434:	e1a0c00d 	mov	ip, sp
    1438:	e92dd800 	push	{fp, ip, lr, pc}
    143c:	e24cb004 	sub	fp, ip, #4
    1440:	e24dd004 	sub	sp, sp, #4
    1444:	e1a03000 	mov	r3, r0
    1448:	e54b3010 	strb	r3, [fp, #-16]
	static volatile unsigned char SPI_rxcount=0;
	static volatile unsigned char *SPI_rxptr;
	static volatile unsigned char incoming_page;

        //receive handler
        if (SPI_syncstate==0)
    144c:	e59f3208 	ldr	r3, [pc, #520]	; 165c <SSP_rx_handler_HL+0x228>
    1450:	e5d33000 	ldrb	r3, [r3]
    1454:	e20330ff 	and	r3, r3, #255	; 0xff
    1458:	e3530000 	cmp	r3, #0
    145c:	1a00000e 	bne	149c <SSP_rx_handler_HL+0x68>
		{
			if (SPI_rxdata=='>') SPI_syncstate++; else SPI_syncstate=0;
    1460:	e55b3010 	ldrb	r3, [fp, #-16]
    1464:	e353003e 	cmp	r3, #62	; 0x3e
    1468:	1a000007 	bne	148c <SSP_rx_handler_HL+0x58>
    146c:	e59f31e8 	ldr	r3, [pc, #488]	; 165c <SSP_rx_handler_HL+0x228>
    1470:	e5d33000 	ldrb	r3, [r3]
    1474:	e20330ff 	and	r3, r3, #255	; 0xff
    1478:	e2833001 	add	r3, r3, #1
    147c:	e20330ff 	and	r3, r3, #255	; 0xff
    1480:	e59f21d4 	ldr	r2, [pc, #468]	; 165c <SSP_rx_handler_HL+0x228>
    1484:	e5c23000 	strb	r3, [r2]
    1488:	ea000070 	b	1650 <SSP_rx_handler_HL+0x21c>
    148c:	e59f31c8 	ldr	r3, [pc, #456]	; 165c <SSP_rx_handler_HL+0x228>
    1490:	e3a02000 	mov	r2, #0
    1494:	e5c32000 	strb	r2, [r3]
    1498:	ea00006c 	b	1650 <SSP_rx_handler_HL+0x21c>
		}
		else if (SPI_syncstate==1)
    149c:	e59f31b8 	ldr	r3, [pc, #440]	; 165c <SSP_rx_handler_HL+0x228>
    14a0:	e5d33000 	ldrb	r3, [r3]
    14a4:	e20330ff 	and	r3, r3, #255	; 0xff
    14a8:	e3530001 	cmp	r3, #1
    14ac:	1a000014 	bne	1504 <SSP_rx_handler_HL+0xd0>
		{
			if (SPI_rxdata=='*')
    14b0:	e55b3010 	ldrb	r3, [fp, #-16]
    14b4:	e353002a 	cmp	r3, #42	; 0x2a
    14b8:	1a00000d 	bne	14f4 <SSP_rx_handler_HL+0xc0>
			{
				SPI_syncstate++;
    14bc:	e59f3198 	ldr	r3, [pc, #408]	; 165c <SSP_rx_handler_HL+0x228>
    14c0:	e5d33000 	ldrb	r3, [r3]
    14c4:	e20330ff 	and	r3, r3, #255	; 0xff
    14c8:	e2833001 	add	r3, r3, #1
    14cc:	e20330ff 	and	r3, r3, #255	; 0xff
    14d0:	e59f2184 	ldr	r2, [pc, #388]	; 165c <SSP_rx_handler_HL+0x228>
    14d4:	e5c23000 	strb	r3, [r2]
				SPI_rxptr=(unsigned char *)&LL_1khz_attitude_data;
    14d8:	e59f2180 	ldr	r2, [pc, #384]	; 1660 <SSP_rx_handler_HL+0x22c>
    14dc:	e59f3180 	ldr	r3, [pc, #384]	; 1664 <SSP_rx_handler_HL+0x230>
    14e0:	e5832000 	str	r2, [r3]
				SPI_rxcount=40;
    14e4:	e59f217c 	ldr	r2, [pc, #380]	; 1668 <SSP_rx_handler_HL+0x234>
    14e8:	e3a03028 	mov	r3, #40	; 0x28
    14ec:	e5c23000 	strb	r3, [r2]
    14f0:	ea000056 	b	1650 <SSP_rx_handler_HL+0x21c>
			}
			else SPI_syncstate=0;
    14f4:	e59f3160 	ldr	r3, [pc, #352]	; 165c <SSP_rx_handler_HL+0x228>
    14f8:	e3a02000 	mov	r2, #0
    14fc:	e5c32000 	strb	r2, [r3]
    1500:	ea000052 	b	1650 <SSP_rx_handler_HL+0x21c>
		}
		else if (SPI_syncstate==2)
    1504:	e59f3150 	ldr	r3, [pc, #336]	; 165c <SSP_rx_handler_HL+0x228>
    1508:	e5d33000 	ldrb	r3, [r3]
    150c:	e20330ff 	and	r3, r3, #255	; 0xff
    1510:	e3530002 	cmp	r3, #2
    1514:	1a00003d 	bne	1610 <SSP_rx_handler_HL+0x1dc>
		{
			if(SPI_rxcount==26) //14 bytes transmitted => select 500Hz page
    1518:	e59f3148 	ldr	r3, [pc, #328]	; 1668 <SSP_rx_handler_HL+0x234>
    151c:	e5d33000 	ldrb	r3, [r3]
    1520:	e20330ff 	and	r3, r3, #255	; 0xff
    1524:	e353001a 	cmp	r3, #26
    1528:	1a00001b 	bne	159c <SSP_rx_handler_HL+0x168>
			{
				incoming_page=LL_1khz_attitude_data.system_flags&0x03;	//system flags were already received
    152c:	e59f312c 	ldr	r3, [pc, #300]	; 1660 <SSP_rx_handler_HL+0x22c>
    1530:	e1d330b0 	ldrh	r3, [r3]
    1534:	e20330ff 	and	r3, r3, #255	; 0xff
    1538:	e20330ff 	and	r3, r3, #255	; 0xff
    153c:	e2033003 	and	r3, r3, #3
    1540:	e59f2124 	ldr	r2, [pc, #292]	; 166c <SSP_rx_handler_HL+0x238>
    1544:	e5c23000 	strb	r3, [r2]
				if(incoming_page==1) SPI_rxptr+=26;
    1548:	e59f311c 	ldr	r3, [pc, #284]	; 166c <SSP_rx_handler_HL+0x238>
    154c:	e5d33000 	ldrb	r3, [r3]
    1550:	e20330ff 	and	r3, r3, #255	; 0xff
    1554:	e3530001 	cmp	r3, #1
    1558:	1a000005 	bne	1574 <SSP_rx_handler_HL+0x140>
    155c:	e59f3100 	ldr	r3, [pc, #256]	; 1664 <SSP_rx_handler_HL+0x230>
    1560:	e5933000 	ldr	r3, [r3]
    1564:	e283201a 	add	r2, r3, #26
    1568:	e59f30f4 	ldr	r3, [pc, #244]	; 1664 <SSP_rx_handler_HL+0x230>
    156c:	e5832000 	str	r2, [r3]
    1570:	ea000009 	b	159c <SSP_rx_handler_HL+0x168>
				else if(incoming_page==2) SPI_rxptr+=52;
    1574:	e59f30f0 	ldr	r3, [pc, #240]	; 166c <SSP_rx_handler_HL+0x238>
    1578:	e5d33000 	ldrb	r3, [r3]
    157c:	e20330ff 	and	r3, r3, #255	; 0xff
    1580:	e3530002 	cmp	r3, #2
    1584:	1a000004 	bne	159c <SSP_rx_handler_HL+0x168>
    1588:	e59f30d4 	ldr	r3, [pc, #212]	; 1664 <SSP_rx_handler_HL+0x230>
    158c:	e5933000 	ldr	r3, [r3]
    1590:	e2832034 	add	r2, r3, #52	; 0x34
    1594:	e59f30c8 	ldr	r3, [pc, #200]	; 1664 <SSP_rx_handler_HL+0x230>
    1598:	e5832000 	str	r2, [r3]
			}
			SPI_rxcount--;
    159c:	e59f30c4 	ldr	r3, [pc, #196]	; 1668 <SSP_rx_handler_HL+0x234>
    15a0:	e5d33000 	ldrb	r3, [r3]
    15a4:	e20330ff 	and	r3, r3, #255	; 0xff
    15a8:	e2433001 	sub	r3, r3, #1
    15ac:	e20330ff 	and	r3, r3, #255	; 0xff
    15b0:	e59f20b0 	ldr	r2, [pc, #176]	; 1668 <SSP_rx_handler_HL+0x234>
    15b4:	e5c23000 	strb	r3, [r2]
			*SPI_rxptr=SPI_rxdata;
    15b8:	e59f30a4 	ldr	r3, [pc, #164]	; 1664 <SSP_rx_handler_HL+0x230>
    15bc:	e5932000 	ldr	r2, [r3]
    15c0:	e55b3010 	ldrb	r3, [fp, #-16]
    15c4:	e5c23000 	strb	r3, [r2]
			SPI_rxptr++;
    15c8:	e59f3094 	ldr	r3, [pc, #148]	; 1664 <SSP_rx_handler_HL+0x230>
    15cc:	e5933000 	ldr	r3, [r3]
    15d0:	e2832001 	add	r2, r3, #1
    15d4:	e59f3088 	ldr	r3, [pc, #136]	; 1664 <SSP_rx_handler_HL+0x230>
    15d8:	e5832000 	str	r2, [r3]
			if (SPI_rxcount==0)
    15dc:	e59f3084 	ldr	r3, [pc, #132]	; 1668 <SSP_rx_handler_HL+0x234>
    15e0:	e5d33000 	ldrb	r3, [r3]
    15e4:	e20330ff 	and	r3, r3, #255	; 0xff
    15e8:	e3530000 	cmp	r3, #0
    15ec:	1a000017 	bne	1650 <SSP_rx_handler_HL+0x21c>
        	{
             	SPI_syncstate++;
    15f0:	e59f3064 	ldr	r3, [pc, #100]	; 165c <SSP_rx_handler_HL+0x228>
    15f4:	e5d33000 	ldrb	r3, [r3]
    15f8:	e20330ff 	and	r3, r3, #255	; 0xff
    15fc:	e2833001 	add	r3, r3, #1
    1600:	e20330ff 	and	r3, r3, #255	; 0xff
    1604:	e59f2050 	ldr	r2, [pc, #80]	; 165c <SSP_rx_handler_HL+0x228>
    1608:	e5c23000 	strb	r3, [r2]
    160c:	ea00000f 	b	1650 <SSP_rx_handler_HL+0x21c>
        	}
		}
		else if (SPI_syncstate==3)
    1610:	e59f3044 	ldr	r3, [pc, #68]	; 165c <SSP_rx_handler_HL+0x228>
    1614:	e5d33000 	ldrb	r3, [r3]
    1618:	e20330ff 	and	r3, r3, #255	; 0xff
    161c:	e3530003 	cmp	r3, #3
    1620:	1a000007 	bne	1644 <SSP_rx_handler_HL+0x210>
		{
			if(SPI_rxdata=='<')	//last byte ok => data should be valid
    1624:	e55b3010 	ldrb	r3, [fp, #-16]
    1628:	e353003c 	cmp	r3, #60	; 0x3c
    162c:	1a000000 	bne	1634 <SSP_rx_handler_HL+0x200>
			{
				SSP_data_distribution_HL();	//only distribute data to other structs, if it was received correctly
    1630:	ebfffb34 	bl	308 <SSP_data_distribution_HL>
											//ack data receiption
			}
			SPI_syncstate=0;
    1634:	e59f3020 	ldr	r3, [pc, #32]	; 165c <SSP_rx_handler_HL+0x228>
    1638:	e3a02000 	mov	r2, #0
    163c:	e5c32000 	strb	r2, [r3]
    1640:	ea000002 	b	1650 <SSP_rx_handler_HL+0x21c>
		}
		else SPI_syncstate=0;
    1644:	e59f3010 	ldr	r3, [pc, #16]	; 165c <SSP_rx_handler_HL+0x228>
    1648:	e3a02000 	mov	r2, #0
    164c:	e5c32000 	strb	r2, [r3]
}
    1650:	e24bd00c 	sub	sp, fp, #12
    1654:	e89d6800 	ldm	sp, {fp, sp, lr}
    1658:	e12fff1e 	bx	lr
    165c:	40000b95 	.word	0x40000b95
    1660:	40001e88 	.word	0x40001e88
    1664:	40000b90 	.word	0x40000b90
    1668:	40000b94 	.word	0x40000b94
    166c:	40000b8e 	.word	0x40000b8e

00001670 <xy2latlon>:
struct GPS_DATA gps_data_temp;

unsigned int gpsDataOkTrigger=0;

void xy2latlon(double lat0, double lon0, double X, double Y, double *lat, double *lon)	//X: East, Y: North in m; lat0,lon0: Reference coordinates; lat,lon: current GPS measurement
{
    1670:	e1a0c00d 	mov	ip, sp
    1674:	e92dd870 	push	{r4, r5, r6, fp, ip, lr, pc}
    1678:	e24cb004 	sub	fp, ip, #4
    167c:	e24dd010 	sub	sp, sp, #16
    1680:	e50b0020 	str	r0, [fp, #-32]
    1684:	e50b101c 	str	r1, [fp, #-28]
    1688:	e50b2028 	str	r2, [fp, #-40]	; 0x28
    168c:	e50b3024 	str	r3, [fp, #-36]	; 0x24
        *lat=lat0+Y/MEAN_EARTH_DIAMETER*360./PI;
    1690:	e28b000c 	add	r0, fp, #12
    1694:	e8900003 	ldm	r0, {r0, r1}
    1698:	e28f2f53 	add	r2, pc, #332	; 0x14c
    169c:	e892000c 	ldm	r2, {r2, r3}
    16a0:	eb0020fb 	bl	9a94 <__aeabi_ddiv>
    16a4:	e1a03000 	mov	r3, r0
    16a8:	e1a04001 	mov	r4, r1
    16ac:	e1a00003 	mov	r0, r3
    16b0:	e1a01004 	mov	r1, r4
    16b4:	e3a02101 	mov	r2, #1073741824	; 0x40000000
    16b8:	e2822876 	add	r2, r2, #7733248	; 0x760000
    16bc:	e2822902 	add	r2, r2, #32768	; 0x8000
    16c0:	e3a03000 	mov	r3, #0
    16c4:	eb00204e 	bl	9804 <__aeabi_dmul>
    16c8:	e1a03000 	mov	r3, r0
    16cc:	e1a04001 	mov	r4, r1
    16d0:	e1a00003 	mov	r0, r3
    16d4:	e1a01004 	mov	r1, r4
    16d8:	e28f2f45 	add	r2, pc, #276	; 0x114
    16dc:	e892000c 	ldm	r2, {r2, r3}
    16e0:	eb0020eb 	bl	9a94 <__aeabi_ddiv>
    16e4:	e1a03000 	mov	r3, r0
    16e8:	e1a04001 	mov	r4, r1
    16ec:	e1a00003 	mov	r0, r3
    16f0:	e1a01004 	mov	r1, r4
    16f4:	e24b2020 	sub	r2, fp, #32
    16f8:	e892000c 	ldm	r2, {r2, r3}
    16fc:	eb001f37 	bl	93e0 <__adddf3>
    1700:	e1a03000 	mov	r3, r0
    1704:	e1a04001 	mov	r4, r1
    1708:	e59b2014 	ldr	r2, [fp, #20]
    170c:	e8820018 	stm	r2, {r3, r4}
        *lon=lon0+X/MEAN_EARTH_DIAMETER*360./PI/cos(lat0*UMR);
    1710:	e99b0003 	ldmib	fp, {r0, r1}
    1714:	e28f20d0 	add	r2, pc, #208	; 0xd0
    1718:	e892000c 	ldm	r2, {r2, r3}
    171c:	eb0020dc 	bl	9a94 <__aeabi_ddiv>
    1720:	e1a03000 	mov	r3, r0
    1724:	e1a04001 	mov	r4, r1
    1728:	e1a00003 	mov	r0, r3
    172c:	e1a01004 	mov	r1, r4
    1730:	e3a02101 	mov	r2, #1073741824	; 0x40000000
    1734:	e2822876 	add	r2, r2, #7733248	; 0x760000
    1738:	e2822902 	add	r2, r2, #32768	; 0x8000
    173c:	e3a03000 	mov	r3, #0
    1740:	eb00202f 	bl	9804 <__aeabi_dmul>
    1744:	e1a03000 	mov	r3, r0
    1748:	e1a04001 	mov	r4, r1
    174c:	e1a00003 	mov	r0, r3
    1750:	e1a01004 	mov	r1, r4
    1754:	e28f2098 	add	r2, pc, #152	; 0x98
    1758:	e892000c 	ldm	r2, {r2, r3}
    175c:	eb0020cc 	bl	9a94 <__aeabi_ddiv>
    1760:	e1a03000 	mov	r3, r0
    1764:	e1a04001 	mov	r4, r1
    1768:	e1a05003 	mov	r5, r3
    176c:	e1a06004 	mov	r6, r4
    1770:	e24b0020 	sub	r0, fp, #32
    1774:	e8900003 	ldm	r0, {r0, r1}
    1778:	e28f207c 	add	r2, pc, #124	; 0x7c
    177c:	e892000c 	ldm	r2, {r2, r3}
    1780:	eb00201f 	bl	9804 <__aeabi_dmul>
    1784:	e1a03000 	mov	r3, r0
    1788:	e1a04001 	mov	r4, r1
    178c:	e1a00003 	mov	r0, r3
    1790:	e1a01004 	mov	r1, r4
    1794:	eb00433d 	bl	12490 <__cos_from_arm>
    1798:	e1a03000 	mov	r3, r0
    179c:	e1a04001 	mov	r4, r1
    17a0:	e1a00005 	mov	r0, r5
    17a4:	e1a01006 	mov	r1, r6
    17a8:	e1a02003 	mov	r2, r3
    17ac:	e1a03004 	mov	r3, r4
    17b0:	eb0020b7 	bl	9a94 <__aeabi_ddiv>
    17b4:	e1a03000 	mov	r3, r0
    17b8:	e1a04001 	mov	r4, r1
    17bc:	e1a00003 	mov	r0, r3
    17c0:	e1a01004 	mov	r1, r4
    17c4:	e24b2028 	sub	r2, fp, #40	; 0x28
    17c8:	e892000c 	ldm	r2, {r2, r3}
    17cc:	eb001f03 	bl	93e0 <__adddf3>
    17d0:	e1a03000 	mov	r3, r0
    17d4:	e1a04001 	mov	r4, r1
    17d8:	e59b2018 	ldr	r2, [fp, #24]
    17dc:	e8820018 	stm	r2, {r3, r4}
}
    17e0:	e24bd018 	sub	sp, fp, #24
    17e4:	e89d6870 	ldm	sp, {r4, r5, r6, fp, sp, lr}
    17e8:	e12fff1e 	bx	lr
    17ec:	416854a6 	.word	0x416854a6
    17f0:	40000000 	.word	0x40000000
    17f4:	400921fb 	.word	0x400921fb
    17f8:	54442d18 	.word	0x54442d18
    17fc:	3f91df46 	.word	0x3f91df46
    1800:	a2529d39 	.word	0xa2529d39

00001804 <fake_gps3>:
				.pitch=0,
				.roll=0,
				.yaw=0,
		}
};
void fake_gps3(void ){
    1804:	e1a0c00d 	mov	ip, sp
    1808:	e92dd800 	push	{fp, ip, lr, pc}
    180c:	e24cb004 	sub	fp, ip, #4
	static int temp=1;
	static int freq=0;

	WO_SDK.ctrl_mode=0x02;
    1810:	e59f21d4 	ldr	r2, [pc, #468]	; 19ec <fake_gps3+0x1e8>
    1814:	e3a03002 	mov	r3, #2
    1818:	e5c23000 	strb	r3, [r2]
	WO_SDK.ctrl_enabled=1;
    181c:	e59f21c8 	ldr	r2, [pc, #456]	; 19ec <fake_gps3+0x1e8>
    1820:	e3a03001 	mov	r3, #1
    1824:	e5c23001 	strb	r3, [r2, #1]
	WO_SDK.disable_motor_onoff_by_stick=0;
    1828:	e59f21bc 	ldr	r2, [pc, #444]	; 19ec <fake_gps3+0x1e8>
    182c:	e3a03000 	mov	r3, #0
    1830:	e5c23002 	strb	r3, [r2, #2]
	//WO_CTRL_Input.ctrl=0x0F;
	WO_CTRL_Input.ctrl=0x0F;
    1834:	e59f21b4 	ldr	r2, [pc, #436]	; 19f0 <fake_gps3+0x1ec>
    1838:	e3a0300f 	mov	r3, #15
    183c:	e1c230b8 	strh	r3, [r2, #8]

	if(temp==1){
    1840:	e59f31ac 	ldr	r3, [pc, #428]	; 19f4 <fake_gps3+0x1f0>
    1844:	e5933000 	ldr	r3, [r3]
    1848:	e3530001 	cmp	r3, #1
    184c:	1a000013 	bne	18a0 <fake_gps3+0x9c>
		temp=0;
    1850:	e59f219c 	ldr	r2, [pc, #412]	; 19f4 <fake_gps3+0x1f0>
    1854:	e3a03000 	mov	r3, #0
    1858:	e5823000 	str	r3, [r2]
		positionControllerInit();
    185c:	eb000886 	bl	3a7c <positionControllerInit>
		my_this.pidVZ.setpoint=(float)RO_ALL_Data.angle_yaw/1000.0f*DEG_TO_RAD;
    1860:	e59f3190 	ldr	r3, [pc, #400]	; 19f8 <fake_gps3+0x1f4>
    1864:	e5933018 	ldr	r3, [r3, #24]
    1868:	e1a00003 	mov	r0, r3
    186c:	eb0021e6 	bl	a00c <__aeabi_i2f>
    1870:	e1a03000 	mov	r3, r0
    1874:	e1a00003 	mov	r0, r3
    1878:	e59f117c 	ldr	r1, [pc, #380]	; 19fc <fake_gps3+0x1f8>
    187c:	eb00227f 	bl	a280 <__aeabi_fdiv>
    1880:	e1a03000 	mov	r3, r0
    1884:	e1a00003 	mov	r0, r3
    1888:	e59f1170 	ldr	r1, [pc, #368]	; 1a00 <fake_gps3+0x1fc>
    188c:	eb002215 	bl	a0e8 <__aeabi_fmul>
    1890:	e1a03000 	mov	r3, r0
    1894:	e1a02003 	mov	r2, r3
    1898:	e59f3164 	ldr	r3, [pc, #356]	; 1a04 <fake_gps3+0x200>
    189c:	e5832044 	str	r2, [r3, #68]	; 0x44
	}
	if(freq++==10){
    18a0:	e59f3160 	ldr	r3, [pc, #352]	; 1a08 <fake_gps3+0x204>
    18a4:	e5933000 	ldr	r3, [r3]
    18a8:	e2832001 	add	r2, r3, #1
    18ac:	e59f3154 	ldr	r3, [pc, #340]	; 1a08 <fake_gps3+0x204>
    18b0:	e5832000 	str	r2, [r3]
    18b4:	e59f314c 	ldr	r3, [pc, #332]	; 1a08 <fake_gps3+0x204>
    18b8:	e5933000 	ldr	r3, [r3]
    18bc:	e353000b 	cmp	r3, #11
    18c0:	1a000027 	bne	1964 <fake_gps3+0x160>
		freq=1;
    18c4:	e59f213c 	ldr	r2, [pc, #316]	; 1a08 <fake_gps3+0x204>
    18c8:	e3a03001 	mov	r3, #1
    18cc:	e5823000 	str	r3, [r2]
		my_state.attitude.pitch=(float)RO_ALL_Data.angle_pitch/1000.0f*DEG_TO_RAD;
    18d0:	e59f3120 	ldr	r3, [pc, #288]	; 19f8 <fake_gps3+0x1f4>
    18d4:	e5933010 	ldr	r3, [r3, #16]
    18d8:	e1a00003 	mov	r0, r3
    18dc:	eb0021ca 	bl	a00c <__aeabi_i2f>
    18e0:	e1a03000 	mov	r3, r0
    18e4:	e1a00003 	mov	r0, r3
    18e8:	e59f110c 	ldr	r1, [pc, #268]	; 19fc <fake_gps3+0x1f8>
    18ec:	eb002263 	bl	a280 <__aeabi_fdiv>
    18f0:	e1a03000 	mov	r3, r0
    18f4:	e1a00003 	mov	r0, r3
    18f8:	e59f1100 	ldr	r1, [pc, #256]	; 1a00 <fake_gps3+0x1fc>
    18fc:	eb0021f9 	bl	a0e8 <__aeabi_fmul>
    1900:	e1a03000 	mov	r3, r0
    1904:	e1a02003 	mov	r2, r3
    1908:	e59f30fc 	ldr	r3, [pc, #252]	; 1a0c <fake_gps3+0x208>
    190c:	e5832020 	str	r2, [r3, #32]
		my_state.attitude.roll=(float)RO_ALL_Data.angle_roll/1000.0f*DEG_TO_RAD;
    1910:	e59f30e0 	ldr	r3, [pc, #224]	; 19f8 <fake_gps3+0x1f4>
    1914:	e5933014 	ldr	r3, [r3, #20]
    1918:	e1a00003 	mov	r0, r3
    191c:	eb0021ba 	bl	a00c <__aeabi_i2f>
    1920:	e1a03000 	mov	r3, r0
    1924:	e1a00003 	mov	r0, r3
    1928:	e59f10cc 	ldr	r1, [pc, #204]	; 19fc <fake_gps3+0x1f8>
    192c:	eb002253 	bl	a280 <__aeabi_fdiv>
    1930:	e1a03000 	mov	r3, r0
    1934:	e1a00003 	mov	r0, r3
    1938:	e59f10c0 	ldr	r1, [pc, #192]	; 1a00 <fake_gps3+0x1fc>
    193c:	eb0021e9 	bl	a0e8 <__aeabi_fmul>
    1940:	e1a03000 	mov	r3, r0
    1944:	e1a02003 	mov	r2, r3
    1948:	e59f30bc 	ldr	r3, [pc, #188]	; 1a0c <fake_gps3+0x208>
    194c:	e583201c 	str	r2, [r3, #28]
		//my_state.attitude.yaw=(float)RO_ALL_Data.angle_yaw/1000.0f*DEG_TO_RAD;
		positionController(&calc_thrust,&calc_pitch,&calc_roll,&my_state);
    1950:	e59f00b8 	ldr	r0, [pc, #184]	; 1a10 <fake_gps3+0x20c>
    1954:	e59f10b8 	ldr	r1, [pc, #184]	; 1a14 <fake_gps3+0x210>
    1958:	e59f20b8 	ldr	r2, [pc, #184]	; 1a18 <fake_gps3+0x214>
    195c:	e59f30a8 	ldr	r3, [pc, #168]	; 1a0c <fake_gps3+0x208>
    1960:	eb000922 	bl	3df0 <positionController>
	}
	output_thrust=calc_thrust;
    1964:	e59f30a4 	ldr	r3, [pc, #164]	; 1a10 <fake_gps3+0x20c>
    1968:	e5933000 	ldr	r3, [r3]
    196c:	e1a00003 	mov	r0, r3
    1970:	eb0022de 	bl	a4f0 <__aeabi_f2iz>
    1974:	e1a02000 	mov	r2, r0
    1978:	e59f309c 	ldr	r3, [pc, #156]	; 1a1c <fake_gps3+0x218>
    197c:	e5832000 	str	r2, [r3]

	WO_CTRL_Input.thrust=output_thrust;
    1980:	e59f3094 	ldr	r3, [pc, #148]	; 1a1c <fake_gps3+0x218>
    1984:	e5933000 	ldr	r3, [r3]
    1988:	e1a03803 	lsl	r3, r3, #16
    198c:	e1a02823 	lsr	r2, r3, #16
    1990:	e59f3058 	ldr	r3, [pc, #88]	; 19f0 <fake_gps3+0x1ec>
    1994:	e1c320b6 	strh	r2, [r3, #6]
	WO_CTRL_Input.pitch=calc_pitch;
    1998:	e59f3074 	ldr	r3, [pc, #116]	; 1a14 <fake_gps3+0x210>
    199c:	e5933000 	ldr	r3, [r3]
    19a0:	e1a00003 	mov	r0, r3
    19a4:	eb0022d1 	bl	a4f0 <__aeabi_f2iz>
    19a8:	e1a03000 	mov	r3, r0
    19ac:	e1a03803 	lsl	r3, r3, #16
    19b0:	e1a02823 	lsr	r2, r3, #16
    19b4:	e59f3034 	ldr	r3, [pc, #52]	; 19f0 <fake_gps3+0x1ec>
    19b8:	e1c320b0 	strh	r2, [r3]
	WO_CTRL_Input.roll=calc_roll;
    19bc:	e59f3054 	ldr	r3, [pc, #84]	; 1a18 <fake_gps3+0x214>
    19c0:	e5933000 	ldr	r3, [r3]
    19c4:	e1a00003 	mov	r0, r3
    19c8:	eb0022c8 	bl	a4f0 <__aeabi_f2iz>
    19cc:	e1a03000 	mov	r3, r0
    19d0:	e1a03803 	lsl	r3, r3, #16
    19d4:	e1a02823 	lsr	r2, r3, #16
    19d8:	e59f3010 	ldr	r3, [pc, #16]	; 19f0 <fake_gps3+0x1ec>
    19dc:	e1c320b2 	strh	r2, [r3, #2]

}
    19e0:	e24bd00c 	sub	sp, fp, #12
    19e4:	e89d6800 	ldm	sp, {fp, sp, lr}
    19e8:	e12fff1e 	bx	lr
    19ec:	40001fac 	.word	0x40001fac
    19f0:	40001f90 	.word	0x40001f90
    19f4:	40000034 	.word	0x40000034
    19f8:	40001fc8 	.word	0x40001fc8
    19fc:	447a0000 	.word	0x447a0000
    1a00:	3c8efa35 	.word	0x3c8efa35
    1a04:	4000004c 	.word	0x4000004c
    1a08:	40000dc8 	.word	0x40000dc8
    1a0c:	40000d9c 	.word	0x40000d9c
    1a10:	40001fa0 	.word	0x40001fa0
    1a14:	40001fc4 	.word	0x40001fc4
    1a18:	40001fb0 	.word	0x40001fb0
    1a1c:	40000004 	.word	0x40000004

00001a20 <SDK_mainloop>:
 * these examples to code your own communication state machine.
 */


void SDK_mainloop(void) //write your own code within this function
{
    1a20:	e1a0c00d 	mov	ip, sp
    1a24:	e92dd800 	push	{fp, ip, lr, pc}
    1a28:	e24cb004 	sub	fp, ip, #4
 	static int timer=0;
	if(++timer<1000) SDK_EXAMPLE_turn_motors_on();
	else if(timer<2000) SDK_EXAMPLE_turn_motors_off();
	else timer=0;
	*/
	fake_gps3();
    1a2c:	ebffff74 	bl	1804 <fake_gps3>
}
    1a30:	e24bd00c 	sub	sp, fp, #12
    1a34:	e89d6800 	ldm	sp, {fp, sp, lr}
    1a38:	e12fff1e 	bx	lr

00001a3c <SDK_EXAMPLE_direct_individual_motor_commands>:

/* the following example shows the direct motor command usage by mapping the stick directly to the motor outputs (do NOT try to fly ;-) )
 *
 */
void SDK_EXAMPLE_direct_individual_motor_commands(void)
{
    1a3c:	e1a0c00d 	mov	ip, sp
    1a40:	e92dd800 	push	{fp, ip, lr, pc}
    1a44:	e24cb004 	sub	fp, ip, #4
    1a48:	e24dd004 	sub	sp, sp, #4

	WO_SDK.ctrl_mode=0x00;	//0x00: direct individual motor control: individual commands for motors 0..3
    1a4c:	e59f21e0 	ldr	r2, [pc, #480]	; 1c34 <SDK_EXAMPLE_direct_individual_motor_commands+0x1f8>
    1a50:	e3a03000 	mov	r3, #0
    1a54:	e5c23000 	strb	r3, [r2]
							//0x01: direct motor control using standard output mapping: commands are interpreted as pitch, roll, yaw and thrust inputs; no attitude controller active
							//0x02: attitude and throttle control: commands are input for standard attitude controller
							//0x03: GPS waypoint control

	WO_SDK.ctrl_enabled=1;  //0: disable control by HL processor
    1a58:	e59f21d4 	ldr	r2, [pc, #468]	; 1c34 <SDK_EXAMPLE_direct_individual_motor_commands+0x1f8>
    1a5c:	e3a03001 	mov	r3, #1
    1a60:	e5c23001 	strb	r3, [r2, #1]
							//1: enable control by HL processor

	WO_SDK.disable_motor_onoff_by_stick=0;
    1a64:	e59f21c8 	ldr	r2, [pc, #456]	; 1c34 <SDK_EXAMPLE_direct_individual_motor_commands+0x1f8>
    1a68:	e3a03000 	mov	r3, #0
    1a6c:	e5c23002 	strb	r3, [r2, #2]

	unsigned int i;

	//scale throttle stick to [0..200] and map it to all motors
	WO_Direct_Individual_Motor_Control.motor[0]=RO_ALL_Data.channel[2]/21;
    1a70:	e59f31c0 	ldr	r3, [pc, #448]	; 1c38 <SDK_EXAMPLE_direct_individual_motor_commands+0x1fc>
    1a74:	e1d320b4 	ldrh	r2, [r3, #4]
    1a78:	e59f31bc 	ldr	r3, [pc, #444]	; 1c3c <SDK_EXAMPLE_direct_individual_motor_commands+0x200>
    1a7c:	e0810293 	umull	r0, r1, r3, r2
    1a80:	e0613002 	rsb	r3, r1, r2
    1a84:	e1a030a3 	lsr	r3, r3, #1
    1a88:	e0813003 	add	r3, r1, r3
    1a8c:	e1a03223 	lsr	r3, r3, #4
    1a90:	e1a03803 	lsl	r3, r3, #16
    1a94:	e1a03823 	lsr	r3, r3, #16
    1a98:	e20330ff 	and	r3, r3, #255	; 0xff
    1a9c:	e59f219c 	ldr	r2, [pc, #412]	; 1c40 <SDK_EXAMPLE_direct_individual_motor_commands+0x204>
    1aa0:	e5c23000 	strb	r3, [r2]
	WO_Direct_Individual_Motor_Control.motor[1]=RO_ALL_Data.channel[2]/21;
    1aa4:	e59f318c 	ldr	r3, [pc, #396]	; 1c38 <SDK_EXAMPLE_direct_individual_motor_commands+0x1fc>
    1aa8:	e1d320b4 	ldrh	r2, [r3, #4]
    1aac:	e59f3188 	ldr	r3, [pc, #392]	; 1c3c <SDK_EXAMPLE_direct_individual_motor_commands+0x200>
    1ab0:	e0810293 	umull	r0, r1, r3, r2
    1ab4:	e0613002 	rsb	r3, r1, r2
    1ab8:	e1a030a3 	lsr	r3, r3, #1
    1abc:	e0813003 	add	r3, r1, r3
    1ac0:	e1a03223 	lsr	r3, r3, #4
    1ac4:	e1a03803 	lsl	r3, r3, #16
    1ac8:	e1a03823 	lsr	r3, r3, #16
    1acc:	e20330ff 	and	r3, r3, #255	; 0xff
    1ad0:	e59f2168 	ldr	r2, [pc, #360]	; 1c40 <SDK_EXAMPLE_direct_individual_motor_commands+0x204>
    1ad4:	e5c23001 	strb	r3, [r2, #1]
	WO_Direct_Individual_Motor_Control.motor[2]=RO_ALL_Data.channel[2]/21;
    1ad8:	e59f3158 	ldr	r3, [pc, #344]	; 1c38 <SDK_EXAMPLE_direct_individual_motor_commands+0x1fc>
    1adc:	e1d320b4 	ldrh	r2, [r3, #4]
    1ae0:	e59f3154 	ldr	r3, [pc, #340]	; 1c3c <SDK_EXAMPLE_direct_individual_motor_commands+0x200>
    1ae4:	e0810293 	umull	r0, r1, r3, r2
    1ae8:	e0613002 	rsb	r3, r1, r2
    1aec:	e1a030a3 	lsr	r3, r3, #1
    1af0:	e0813003 	add	r3, r1, r3
    1af4:	e1a03223 	lsr	r3, r3, #4
    1af8:	e1a03803 	lsl	r3, r3, #16
    1afc:	e1a03823 	lsr	r3, r3, #16
    1b00:	e20330ff 	and	r3, r3, #255	; 0xff
    1b04:	e59f2134 	ldr	r2, [pc, #308]	; 1c40 <SDK_EXAMPLE_direct_individual_motor_commands+0x204>
    1b08:	e5c23002 	strb	r3, [r2, #2]
	WO_Direct_Individual_Motor_Control.motor[3]=RO_ALL_Data.channel[2]/21;
    1b0c:	e59f3124 	ldr	r3, [pc, #292]	; 1c38 <SDK_EXAMPLE_direct_individual_motor_commands+0x1fc>
    1b10:	e1d320b4 	ldrh	r2, [r3, #4]
    1b14:	e59f3120 	ldr	r3, [pc, #288]	; 1c3c <SDK_EXAMPLE_direct_individual_motor_commands+0x200>
    1b18:	e0810293 	umull	r0, r1, r3, r2
    1b1c:	e0613002 	rsb	r3, r1, r2
    1b20:	e1a030a3 	lsr	r3, r3, #1
    1b24:	e0813003 	add	r3, r1, r3
    1b28:	e1a03223 	lsr	r3, r3, #4
    1b2c:	e1a03803 	lsl	r3, r3, #16
    1b30:	e1a03823 	lsr	r3, r3, #16
    1b34:	e20330ff 	and	r3, r3, #255	; 0xff
    1b38:	e59f2100 	ldr	r2, [pc, #256]	; 1c40 <SDK_EXAMPLE_direct_individual_motor_commands+0x204>
    1b3c:	e5c23003 	strb	r3, [r2, #3]
	WO_Direct_Individual_Motor_Control.motor[4]=RO_ALL_Data.channel[2]/21;
    1b40:	e59f30f0 	ldr	r3, [pc, #240]	; 1c38 <SDK_EXAMPLE_direct_individual_motor_commands+0x1fc>
    1b44:	e1d320b4 	ldrh	r2, [r3, #4]
    1b48:	e59f30ec 	ldr	r3, [pc, #236]	; 1c3c <SDK_EXAMPLE_direct_individual_motor_commands+0x200>
    1b4c:	e0810293 	umull	r0, r1, r3, r2
    1b50:	e0613002 	rsb	r3, r1, r2
    1b54:	e1a030a3 	lsr	r3, r3, #1
    1b58:	e0813003 	add	r3, r1, r3
    1b5c:	e1a03223 	lsr	r3, r3, #4
    1b60:	e1a03803 	lsl	r3, r3, #16
    1b64:	e1a03823 	lsr	r3, r3, #16
    1b68:	e20330ff 	and	r3, r3, #255	; 0xff
    1b6c:	e59f20cc 	ldr	r2, [pc, #204]	; 1c40 <SDK_EXAMPLE_direct_individual_motor_commands+0x204>
    1b70:	e5c23004 	strb	r3, [r2, #4]
	WO_Direct_Individual_Motor_Control.motor[5]=RO_ALL_Data.channel[2]/21;
    1b74:	e59f30bc 	ldr	r3, [pc, #188]	; 1c38 <SDK_EXAMPLE_direct_individual_motor_commands+0x1fc>
    1b78:	e1d320b4 	ldrh	r2, [r3, #4]
    1b7c:	e59f30b8 	ldr	r3, [pc, #184]	; 1c3c <SDK_EXAMPLE_direct_individual_motor_commands+0x200>
    1b80:	e0810293 	umull	r0, r1, r3, r2
    1b84:	e0613002 	rsb	r3, r1, r2
    1b88:	e1a030a3 	lsr	r3, r3, #1
    1b8c:	e0813003 	add	r3, r1, r3
    1b90:	e1a03223 	lsr	r3, r3, #4
    1b94:	e1a03803 	lsl	r3, r3, #16
    1b98:	e1a03823 	lsr	r3, r3, #16
    1b9c:	e20330ff 	and	r3, r3, #255	; 0xff
    1ba0:	e59f2098 	ldr	r2, [pc, #152]	; 1c40 <SDK_EXAMPLE_direct_individual_motor_commands+0x204>
    1ba4:	e5c23005 	strb	r3, [r2, #5]

	//make sure commands are never 0 so that motors will always keep spinning
    //also make sure that commands stay within range
    for(i=0;i<6;i++)
    1ba8:	e3a03000 	mov	r3, #0
    1bac:	e50b3010 	str	r3, [fp, #-16]
    1bb0:	ea000019 	b	1c1c <SDK_EXAMPLE_direct_individual_motor_commands+0x1e0>
    {
    	if(!WO_Direct_Individual_Motor_Control.motor[i]) WO_Direct_Individual_Motor_Control.motor[i]=1;
    1bb4:	e51b2010 	ldr	r2, [fp, #-16]
    1bb8:	e59f3080 	ldr	r3, [pc, #128]	; 1c40 <SDK_EXAMPLE_direct_individual_motor_commands+0x204>
    1bbc:	e0833002 	add	r3, r3, r2
    1bc0:	e5d33000 	ldrb	r3, [r3]
    1bc4:	e3530000 	cmp	r3, #0
    1bc8:	1a000005 	bne	1be4 <SDK_EXAMPLE_direct_individual_motor_commands+0x1a8>
    1bcc:	e51b2010 	ldr	r2, [fp, #-16]
    1bd0:	e59f3068 	ldr	r3, [pc, #104]	; 1c40 <SDK_EXAMPLE_direct_individual_motor_commands+0x204>
    1bd4:	e0832002 	add	r2, r3, r2
    1bd8:	e3a03001 	mov	r3, #1
    1bdc:	e5c23000 	strb	r3, [r2]
    1be0:	ea00000a 	b	1c10 <SDK_EXAMPLE_direct_individual_motor_commands+0x1d4>
    	else if (WO_Direct_Individual_Motor_Control.motor[i]>200) WO_Direct_Individual_Motor_Control.motor[i]=200;
    1be4:	e51b2010 	ldr	r2, [fp, #-16]
    1be8:	e59f3050 	ldr	r3, [pc, #80]	; 1c40 <SDK_EXAMPLE_direct_individual_motor_commands+0x204>
    1bec:	e0833002 	add	r3, r3, r2
    1bf0:	e5d33000 	ldrb	r3, [r3]
    1bf4:	e35300c8 	cmp	r3, #200	; 0xc8
    1bf8:	9a000004 	bls	1c10 <SDK_EXAMPLE_direct_individual_motor_commands+0x1d4>
    1bfc:	e51b2010 	ldr	r2, [fp, #-16]
    1c00:	e59f3038 	ldr	r3, [pc, #56]	; 1c40 <SDK_EXAMPLE_direct_individual_motor_commands+0x204>
    1c04:	e0832002 	add	r2, r3, r2
    1c08:	e3e03037 	mvn	r3, #55	; 0x37
    1c0c:	e5c23000 	strb	r3, [r2]
	WO_Direct_Individual_Motor_Control.motor[4]=RO_ALL_Data.channel[2]/21;
	WO_Direct_Individual_Motor_Control.motor[5]=RO_ALL_Data.channel[2]/21;

	//make sure commands are never 0 so that motors will always keep spinning
    //also make sure that commands stay within range
    for(i=0;i<6;i++)
    1c10:	e51b3010 	ldr	r3, [fp, #-16]
    1c14:	e2833001 	add	r3, r3, #1
    1c18:	e50b3010 	str	r3, [fp, #-16]
    1c1c:	e51b3010 	ldr	r3, [fp, #-16]
    1c20:	e3530005 	cmp	r3, #5
    1c24:	9affffe2 	bls	1bb4 <SDK_EXAMPLE_direct_individual_motor_commands+0x178>
    {
    	if(!WO_Direct_Individual_Motor_Control.motor[i]) WO_Direct_Individual_Motor_Control.motor[i]=1;
    	else if (WO_Direct_Individual_Motor_Control.motor[i]>200) WO_Direct_Individual_Motor_Control.motor[i]=200;
    }
}
    1c28:	e24bd00c 	sub	sp, fp, #12
    1c2c:	e89d6800 	ldm	sp, {fp, sp, lr}
    1c30:	e12fff1e 	bx	lr
    1c34:	40001fac 	.word	0x40001fac
    1c38:	40001fc8 	.word	0x40001fc8
    1c3c:	86186187 	.word	0x86186187
    1c40:	40001fa4 	.word	0x40001fa4

00001c44 <SDK_EXAMPLE_direct_motor_commands_with_standard_output_mapping>:


void SDK_EXAMPLE_direct_motor_commands_with_standard_output_mapping(void)
{
    1c44:	e1a0c00d 	mov	ip, sp
    1c48:	e92dd800 	push	{fp, ip, lr, pc}
    1c4c:	e24cb004 	sub	fp, ip, #4
	WO_SDK.ctrl_mode=0x01;	//0x00: direct individual motor control: individual commands for motors 0..3
    1c50:	e59f20f4 	ldr	r2, [pc, #244]	; 1d4c <SDK_EXAMPLE_direct_motor_commands_with_standard_output_mapping+0x108>
    1c54:	e3a03001 	mov	r3, #1
    1c58:	e5c23000 	strb	r3, [r2]
							//0x01: direct motor control using standard output mapping: commands are interpreted as pitch, roll, yaw and thrust inputs; no attitude controller active
							//0x02: attitude and throttle control: commands are input for standard attitude controller
							//0x03: GPS waypoint control

	WO_SDK.ctrl_enabled=1;  //0: disable control by HL processor
    1c5c:	e59f20e8 	ldr	r2, [pc, #232]	; 1d4c <SDK_EXAMPLE_direct_motor_commands_with_standard_output_mapping+0x108>
    1c60:	e3a03001 	mov	r3, #1
    1c64:	e5c23001 	strb	r3, [r2, #1]

	/*
	 *  Stick commands directly mapped to motors, NO attitude control! Do NOT try to fly!
	 * */

	WO_Direct_Motor_Control.pitch=(4095-RO_ALL_Data.channel[0])/21;
    1c68:	e59f30e0 	ldr	r3, [pc, #224]	; 1d50 <SDK_EXAMPLE_direct_motor_commands_with_standard_output_mapping+0x10c>
    1c6c:	e1d330b0 	ldrh	r3, [r3]
    1c70:	e2632eff 	rsb	r2, r3, #4080	; 0xff0
    1c74:	e282200f 	add	r2, r2, #15
    1c78:	e3a035c3 	mov	r3, #817889280	; 0x30c00000
    1c7c:	e2833bc3 	add	r3, r3, #199680	; 0x30c00
    1c80:	e2833031 	add	r3, r3, #49	; 0x31
    1c84:	e0c30392 	smull	r0, r3, r2, r3
    1c88:	e1a01143 	asr	r1, r3, #2
    1c8c:	e1a03fc2 	asr	r3, r2, #31
    1c90:	e0633001 	rsb	r3, r3, r1
    1c94:	e20330ff 	and	r3, r3, #255	; 0xff
    1c98:	e59f20b4 	ldr	r2, [pc, #180]	; 1d54 <SDK_EXAMPLE_direct_motor_commands_with_standard_output_mapping+0x110>
    1c9c:	e5c23000 	strb	r3, [r2]
	WO_Direct_Motor_Control.roll=RO_ALL_Data.channel[1]/21;
    1ca0:	e59f30a8 	ldr	r3, [pc, #168]	; 1d50 <SDK_EXAMPLE_direct_motor_commands_with_standard_output_mapping+0x10c>
    1ca4:	e1d320b2 	ldrh	r2, [r3, #2]
    1ca8:	e59f30a8 	ldr	r3, [pc, #168]	; 1d58 <SDK_EXAMPLE_direct_motor_commands_with_standard_output_mapping+0x114>
    1cac:	e0810293 	umull	r0, r1, r3, r2
    1cb0:	e0613002 	rsb	r3, r1, r2
    1cb4:	e1a030a3 	lsr	r3, r3, #1
    1cb8:	e0813003 	add	r3, r1, r3
    1cbc:	e1a03223 	lsr	r3, r3, #4
    1cc0:	e1a03803 	lsl	r3, r3, #16
    1cc4:	e1a03823 	lsr	r3, r3, #16
    1cc8:	e20330ff 	and	r3, r3, #255	; 0xff
    1ccc:	e59f2080 	ldr	r2, [pc, #128]	; 1d54 <SDK_EXAMPLE_direct_motor_commands_with_standard_output_mapping+0x110>
    1cd0:	e5c23001 	strb	r3, [r2, #1]
	WO_Direct_Motor_Control.thrust=RO_ALL_Data.channel[2]/21;
    1cd4:	e59f3074 	ldr	r3, [pc, #116]	; 1d50 <SDK_EXAMPLE_direct_motor_commands_with_standard_output_mapping+0x10c>
    1cd8:	e1d320b4 	ldrh	r2, [r3, #4]
    1cdc:	e59f3074 	ldr	r3, [pc, #116]	; 1d58 <SDK_EXAMPLE_direct_motor_commands_with_standard_output_mapping+0x114>
    1ce0:	e0810293 	umull	r0, r1, r3, r2
    1ce4:	e0613002 	rsb	r3, r1, r2
    1ce8:	e1a030a3 	lsr	r3, r3, #1
    1cec:	e0813003 	add	r3, r1, r3
    1cf0:	e1a03223 	lsr	r3, r3, #4
    1cf4:	e1a03803 	lsl	r3, r3, #16
    1cf8:	e1a03823 	lsr	r3, r3, #16
    1cfc:	e20330ff 	and	r3, r3, #255	; 0xff
    1d00:	e59f204c 	ldr	r2, [pc, #76]	; 1d54 <SDK_EXAMPLE_direct_motor_commands_with_standard_output_mapping+0x110>
    1d04:	e5c23003 	strb	r3, [r2, #3]
	WO_Direct_Motor_Control.yaw=(4095-RO_ALL_Data.channel[3])/21;
    1d08:	e59f3040 	ldr	r3, [pc, #64]	; 1d50 <SDK_EXAMPLE_direct_motor_commands_with_standard_output_mapping+0x10c>
    1d0c:	e1d330b6 	ldrh	r3, [r3, #6]
    1d10:	e2632eff 	rsb	r2, r3, #4080	; 0xff0
    1d14:	e282200f 	add	r2, r2, #15
    1d18:	e3a035c3 	mov	r3, #817889280	; 0x30c00000
    1d1c:	e2833bc3 	add	r3, r3, #199680	; 0x30c00
    1d20:	e2833031 	add	r3, r3, #49	; 0x31
    1d24:	e0c31392 	smull	r1, r3, r2, r3
    1d28:	e1a01143 	asr	r1, r3, #2
    1d2c:	e1a03fc2 	asr	r3, r2, #31
    1d30:	e0633001 	rsb	r3, r3, r1
    1d34:	e20330ff 	and	r3, r3, #255	; 0xff
    1d38:	e59f2014 	ldr	r2, [pc, #20]	; 1d54 <SDK_EXAMPLE_direct_motor_commands_with_standard_output_mapping+0x110>
    1d3c:	e5c23002 	strb	r3, [r2, #2]

}
    1d40:	e24bd00c 	sub	sp, fp, #12
    1d44:	e89d6800 	ldm	sp, {fp, sp, lr}
    1d48:	e12fff1e 	bx	lr
    1d4c:	40001fac 	.word	0x40001fac
    1d50:	40001fc8 	.word	0x40001fc8
    1d54:	40001f9c 	.word	0x40001f9c
    1d58:	86186187 	.word	0x86186187

00001d5c <SDK_EXAMPLE_attitude_commands>:


void SDK_EXAMPLE_attitude_commands(void)
{
    1d5c:	e1a0c00d 	mov	ip, sp
    1d60:	e92dd800 	push	{fp, ip, lr, pc}
    1d64:	e24cb004 	sub	fp, ip, #4
	WO_SDK.ctrl_mode=0x02;	//0x00: direct individual motor control: individual commands for motors 0..3
    1d68:	e59f2034 	ldr	r2, [pc, #52]	; 1da4 <SDK_EXAMPLE_attitude_commands+0x48>
    1d6c:	e3a03002 	mov	r3, #2
    1d70:	e5c23000 	strb	r3, [r2]
							//0x01: direct motor control using standard output mapping: commands are interpreted as pitch, roll, yaw and thrust inputs; no attitude controller active
							//0x02: attitude and throttle control: commands are input for standard attitude controller
							//0x03: GPS waypoint control

	WO_SDK.ctrl_enabled=1;  //0: disable control by HL processor
    1d74:	e59f2028 	ldr	r2, [pc, #40]	; 1da4 <SDK_EXAMPLE_attitude_commands+0x48>
    1d78:	e3a03001 	mov	r3, #1
    1d7c:	e5c23001 	strb	r3, [r2, #1]
							//1: enable control by HL processor

	//with this example the UAV will go to ~10% throttle when SDK control is activated
	WO_CTRL_Input.ctrl=0x08;	//0x08: enable throttle control by HL. Height control and GPS are deactivated!!
    1d80:	e59f2020 	ldr	r2, [pc, #32]	; 1da8 <SDK_EXAMPLE_attitude_commands+0x4c>
    1d84:	e3a03008 	mov	r3, #8
    1d88:	e1c230b8 	strh	r3, [r2, #8]
								//pitch, roll and yaw are still commanded via the remote control

	WO_CTRL_Input.thrust=400;	//10% throttle command
    1d8c:	e59f2014 	ldr	r2, [pc, #20]	; 1da8 <SDK_EXAMPLE_attitude_commands+0x4c>
    1d90:	e3a03e19 	mov	r3, #400	; 0x190
    1d94:	e1c230b6 	strh	r3, [r2, #6]


}
    1d98:	e24bd00c 	sub	sp, fp, #12
    1d9c:	e89d6800 	ldm	sp, {fp, sp, lr}
    1da0:	e12fff1e 	bx	lr
    1da4:	40001fac 	.word	0x40001fac
    1da8:	40001f90 	.word	0x40001f90

00001dac <SDK_EXAMPLE_gps_waypoint_control>:
 * wpCtrlNavStatus gives you a navigation status. See WP_NAVSTAT_* defines in SDK.h for options
 *
 * wpCtrlDistToWp gives you the current distance to the current waypoint in dm (= 10 cm)
 */
void SDK_EXAMPLE_gps_waypoint_control()
{
    1dac:	e1a0c00d 	mov	ip, sp
    1db0:	e92dd870 	push	{r4, r5, r6, fp, ip, lr, pc}
    1db4:	e24cb004 	sub	fp, ip, #4
    1db8:	e24dd048 	sub	sp, sp, #72	; 0x48
	static unsigned char wpExampleState=0;
	static double originLat,originLon;


	WO_SDK.ctrl_mode=0x03;
    1dbc:	e59f2334 	ldr	r2, [pc, #820]	; 20f8 <SDK_EXAMPLE_gps_waypoint_control+0x34c>
    1dc0:	e3a03003 	mov	r3, #3
    1dc4:	e5c23000 	strb	r3, [r2]

	WO_SDK.ctrl_enabled=1;  //0: disable control by HL processor
    1dc8:	e59f2328 	ldr	r2, [pc, #808]	; 20f8 <SDK_EXAMPLE_gps_waypoint_control+0x34c>
    1dcc:	e3a03001 	mov	r3, #1
    1dd0:	e5c23001 	strb	r3, [r2, #1]
							//1: enable control by HL processor

	switch (wpExampleState)
    1dd4:	e59f332c 	ldr	r3, [pc, #812]	; 2108 <SDK_EXAMPLE_gps_waypoint_control+0x35c>
    1dd8:	e5d33000 	ldrb	r3, [r3]
    1ddc:	e3530004 	cmp	r3, #4
    1de0:	979ff103 	ldrls	pc, [pc, r3, lsl #2]
    1de4:	ea0002dc 	b	295c <SDK_EXAMPLE_gps_waypoint_control+0xbb0>
    1de8:	00001dfc 	.word	0x00001dfc
    1dec:	00001e24 	.word	0x00001e24
    1df0:	00002130 	.word	0x00002130
    1df4:	000023f8 	.word	0x000023f8
    1df8:	000026ec 	.word	0x000026ec
	{
		//prior to start, the lever on channel 7 has to be in "OFF" position
		case 0:
		if (RO_RC_Data.channel[6]<1600)
    1dfc:	e59f3300 	ldr	r3, [pc, #768]	; 2104 <SDK_EXAMPLE_gps_waypoint_control+0x358>
    1e00:	e1d320bc 	ldrh	r2, [r3, #12]
    1e04:	e3a03e63 	mov	r3, #1584	; 0x630
    1e08:	e283300f 	add	r3, r3, #15
    1e0c:	e1520003 	cmp	r2, r3
    1e10:	8a0002d4 	bhi	2968 <SDK_EXAMPLE_gps_waypoint_control+0xbbc>
			wpExampleState=1;
    1e14:	e59f32ec 	ldr	r3, [pc, #748]	; 2108 <SDK_EXAMPLE_gps_waypoint_control+0x35c>
    1e18:	e3a02001 	mov	r2, #1
    1e1c:	e5c32000 	strb	r2, [r3]
		break;
    1e20:	ea0002d0 	b	2968 <SDK_EXAMPLE_gps_waypoint_control+0xbbc>

		case 1:
		if (RO_RC_Data.channel[6]>2400)
    1e24:	e59f32d8 	ldr	r3, [pc, #728]	; 2104 <SDK_EXAMPLE_gps_waypoint_control+0x358>
    1e28:	e1d330bc 	ldrh	r3, [r3, #12]
    1e2c:	e3530e96 	cmp	r3, #2400	; 0x960
    1e30:	9a0002cc 	bls	2968 <SDK_EXAMPLE_gps_waypoint_control+0xbbc>
		{
			double lat,lon;
			//lever was set to "ON" state -> calculate and send first waypoint and switch state

			//fill waypoint structure
			wpToLL.max_speed=100;
    1e34:	e59f22e0 	ldr	r2, [pc, #736]	; 211c <SDK_EXAMPLE_gps_waypoint_control+0x370>
    1e38:	e3a03064 	mov	r3, #100	; 0x64
    1e3c:	e5c23005 	strb	r3, [r2, #5]
			wpToLL.pos_acc=3000; 	//3m accuracy
    1e40:	e59f22d4 	ldr	r2, [pc, #724]	; 211c <SDK_EXAMPLE_gps_waypoint_control+0x370>
    1e44:	e3a03ebb 	mov	r3, #2992	; 0xbb0
    1e48:	e2833008 	add	r3, r3, #8
    1e4c:	e1c230b8 	strh	r3, [r2, #8]
			wpToLL.time=400; 		//4 seconds waiting time at each waypoint
    1e50:	e59f22c4 	ldr	r2, [pc, #708]	; 211c <SDK_EXAMPLE_gps_waypoint_control+0x370>
    1e54:	e3a03e19 	mov	r3, #400	; 0x190
    1e58:	e1c230b6 	strh	r3, [r2, #6]
			wpToLL.wp_activated=1;
    1e5c:	e59f22b8 	ldr	r2, [pc, #696]	; 211c <SDK_EXAMPLE_gps_waypoint_control+0x370>
    1e60:	e3a03001 	mov	r3, #1
    1e64:	e5823000 	str	r3, [r2]

			//see LL_HL_comm.h for WPPROP defines
			wpToLL.properties=WPPROP_ABSCOORDS|WPPROP_AUTOMATICGOTO|WPPROP_HEIGHTENABLED|WPPROP_YAWENABLED;
    1e68:	e59f22ac 	ldr	r2, [pc, #684]	; 211c <SDK_EXAMPLE_gps_waypoint_control+0x370>
    1e6c:	e3a03017 	mov	r3, #23
    1e70:	e5c23004 	strb	r3, [r2, #4]

			//use current height and yaw
			wpToLL.yaw=IMU_CalcData.angle_yaw; //use current yaw
    1e74:	e59f329c 	ldr	r3, [pc, #668]	; 2118 <SDK_EXAMPLE_gps_waypoint_control+0x36c>
    1e78:	e5932008 	ldr	r2, [r3, #8]
    1e7c:	e59f3298 	ldr	r3, [pc, #664]	; 211c <SDK_EXAMPLE_gps_waypoint_control+0x370>
    1e80:	e5832014 	str	r2, [r3, #20]
			wpToLL.height=IMU_CalcData.height; //use current height
    1e84:	e59f328c 	ldr	r3, [pc, #652]	; 2118 <SDK_EXAMPLE_gps_waypoint_control+0x36c>
    1e88:	e593204c 	ldr	r2, [r3, #76]	; 0x4c
    1e8c:	e59f3288 	ldr	r3, [pc, #648]	; 211c <SDK_EXAMPLE_gps_waypoint_control+0x370>
    1e90:	e5832018 	str	r2, [r3, #24]

			originLat=(double)GPS_Data.latitude/10000000.0;
    1e94:	e59f3260 	ldr	r3, [pc, #608]	; 20fc <SDK_EXAMPLE_gps_waypoint_control+0x350>
    1e98:	e5933000 	ldr	r3, [r3]
    1e9c:	e1a00003 	mov	r0, r3
    1ea0:	eb001e1c 	bl	9718 <__aeabi_i2d>
    1ea4:	e1a03000 	mov	r3, r0
    1ea8:	e1a04001 	mov	r4, r1
    1eac:	e1a00003 	mov	r0, r3
    1eb0:	e1a01004 	mov	r1, r4
    1eb4:	e28f2f9b 	add	r2, pc, #620	; 0x26c
    1eb8:	e892000c 	ldm	r2, {r2, r3}
    1ebc:	eb001ef4 	bl	9a94 <__aeabi_ddiv>
    1ec0:	e1a03000 	mov	r3, r0
    1ec4:	e1a04001 	mov	r4, r1
    1ec8:	e59f2250 	ldr	r2, [pc, #592]	; 2120 <SDK_EXAMPLE_gps_waypoint_control+0x374>
    1ecc:	e8820018 	stm	r2, {r3, r4}
			originLon=(double)GPS_Data.longitude/10000000.0;
    1ed0:	e59f3224 	ldr	r3, [pc, #548]	; 20fc <SDK_EXAMPLE_gps_waypoint_control+0x350>
    1ed4:	e5933004 	ldr	r3, [r3, #4]
    1ed8:	e1a00003 	mov	r0, r3
    1edc:	eb001e0d 	bl	9718 <__aeabi_i2d>
    1ee0:	e1a03000 	mov	r3, r0
    1ee4:	e1a04001 	mov	r4, r1
    1ee8:	e1a00003 	mov	r0, r3
    1eec:	e1a01004 	mov	r1, r4
    1ef0:	e28f2e23 	add	r2, pc, #560	; 0x230
    1ef4:	e892000c 	ldm	r2, {r2, r3}
    1ef8:	eb001ee5 	bl	9a94 <__aeabi_ddiv>
    1efc:	e1a03000 	mov	r3, r0
    1f00:	e1a04001 	mov	r4, r1
    1f04:	e59f2218 	ldr	r2, [pc, #536]	; 2124 <SDK_EXAMPLE_gps_waypoint_control+0x378>
    1f08:	e8820018 	stm	r2, {r3, r4}

			//calculate a position 15m north of us
			xy2latlon(originLat,originLon,0.0,15.0,&lat,&lon);
    1f0c:	e59f320c 	ldr	r3, [pc, #524]	; 2120 <SDK_EXAMPLE_gps_waypoint_control+0x374>
    1f10:	e8930006 	ldm	r3, {r1, r2}
    1f14:	e59f3208 	ldr	r3, [pc, #520]	; 2124 <SDK_EXAMPLE_gps_waypoint_control+0x378>
    1f18:	e8930060 	ldm	r3, {r5, r6}
    1f1c:	e3a03000 	mov	r3, #0
    1f20:	e3a04000 	mov	r4, #0
    1f24:	e88d0018 	stm	sp, {r3, r4}
    1f28:	e3a03101 	mov	r3, #1073741824	; 0x40000000
    1f2c:	e283382e 	add	r3, r3, #3014656	; 0x2e0000
    1f30:	e3a04000 	mov	r4, #0
    1f34:	e58d3008 	str	r3, [sp, #8]
    1f38:	e58d400c 	str	r4, [sp, #12]
    1f3c:	e24b3020 	sub	r3, fp, #32
    1f40:	e58d3010 	str	r3, [sp, #16]
    1f44:	e24b3028 	sub	r3, fp, #40	; 0x28
    1f48:	e58d3014 	str	r3, [sp, #20]
    1f4c:	e1a00001 	mov	r0, r1
    1f50:	e1a01002 	mov	r1, r2
    1f54:	e1a02005 	mov	r2, r5
    1f58:	e1a03006 	mov	r3, r6
    1f5c:	ebfffdc3 	bl	1670 <xy2latlon>

			wpToLL.X=lon*10000000;
    1f60:	e24b3028 	sub	r3, fp, #40	; 0x28
    1f64:	e8930018 	ldm	r3, {r3, r4}
    1f68:	e1a00003 	mov	r0, r3
    1f6c:	e1a01004 	mov	r1, r4
    1f70:	e28f2e1b 	add	r2, pc, #432	; 0x1b0
    1f74:	e892000c 	ldm	r2, {r2, r3}
    1f78:	eb001e21 	bl	9804 <__aeabi_dmul>
    1f7c:	e1a03000 	mov	r3, r0
    1f80:	e1a04001 	mov	r4, r1
    1f84:	e1a00003 	mov	r0, r3
    1f88:	e1a01004 	mov	r1, r4
    1f8c:	eb001f93 	bl	9de0 <__aeabi_d2iz>
    1f90:	e1a02000 	mov	r2, r0
    1f94:	e59f3180 	ldr	r3, [pc, #384]	; 211c <SDK_EXAMPLE_gps_waypoint_control+0x370>
    1f98:	e583200c 	str	r2, [r3, #12]
			wpToLL.Y=lat*10000000;
    1f9c:	e24b3020 	sub	r3, fp, #32
    1fa0:	e8930018 	ldm	r3, {r3, r4}
    1fa4:	e1a00003 	mov	r0, r3
    1fa8:	e1a01004 	mov	r1, r4
    1fac:	e28f2f5d 	add	r2, pc, #372	; 0x174
    1fb0:	e892000c 	ldm	r2, {r2, r3}
    1fb4:	eb001e12 	bl	9804 <__aeabi_dmul>
    1fb8:	e1a03000 	mov	r3, r0
    1fbc:	e1a04001 	mov	r4, r1
    1fc0:	e1a00003 	mov	r0, r3
    1fc4:	e1a01004 	mov	r1, r4
    1fc8:	eb001f84 	bl	9de0 <__aeabi_d2iz>
    1fcc:	e1a02000 	mov	r2, r0
    1fd0:	e59f3144 	ldr	r3, [pc, #324]	; 211c <SDK_EXAMPLE_gps_waypoint_control+0x370>
    1fd4:	e5832010 	str	r2, [r3, #16]

			//calc chksum
			wpToLL.chksum = 0xAAAA
    1fd8:	e59f313c 	ldr	r3, [pc, #316]	; 211c <SDK_EXAMPLE_gps_waypoint_control+0x370>
    1fdc:	e5933014 	ldr	r3, [r3, #20]
    1fe0:	e1a03803 	lsl	r3, r3, #16
    1fe4:	e1a02823 	lsr	r2, r3, #16
    1fe8:	e59f312c 	ldr	r3, [pc, #300]	; 211c <SDK_EXAMPLE_gps_waypoint_control+0x370>
    1fec:	e5933018 	ldr	r3, [r3, #24]
    1ff0:	e1a03803 	lsl	r3, r3, #16
    1ff4:	e1a03823 	lsr	r3, r3, #16
    1ff8:	e0823003 	add	r3, r2, r3
    1ffc:	e1a03803 	lsl	r3, r3, #16
    2000:	e1a02823 	lsr	r2, r3, #16
    2004:	e59f3110 	ldr	r3, [pc, #272]	; 211c <SDK_EXAMPLE_gps_waypoint_control+0x370>
    2008:	e1d330b6 	ldrh	r3, [r3, #6]
    200c:	e0823003 	add	r3, r2, r3
    2010:	e1a03803 	lsl	r3, r3, #16
    2014:	e1a02823 	lsr	r2, r3, #16
    2018:	e59f30fc 	ldr	r3, [pc, #252]	; 211c <SDK_EXAMPLE_gps_waypoint_control+0x370>
    201c:	e593300c 	ldr	r3, [r3, #12]
    2020:	e1a03803 	lsl	r3, r3, #16
    2024:	e1a03823 	lsr	r3, r3, #16
    2028:	e0823003 	add	r3, r2, r3
    202c:	e1a03803 	lsl	r3, r3, #16
    2030:	e1a02823 	lsr	r2, r3, #16
    2034:	e59f30e0 	ldr	r3, [pc, #224]	; 211c <SDK_EXAMPLE_gps_waypoint_control+0x370>
    2038:	e5933010 	ldr	r3, [r3, #16]
    203c:	e1a03803 	lsl	r3, r3, #16
    2040:	e1a03823 	lsr	r3, r3, #16
    2044:	e0823003 	add	r3, r2, r3
    2048:	e1a03803 	lsl	r3, r3, #16
    204c:	e1a02823 	lsr	r2, r3, #16
    2050:	e59f30c4 	ldr	r3, [pc, #196]	; 211c <SDK_EXAMPLE_gps_waypoint_control+0x370>
    2054:	e5d33005 	ldrb	r3, [r3, #5]
    2058:	e0823003 	add	r3, r2, r3
    205c:	e1a03803 	lsl	r3, r3, #16
    2060:	e1a02823 	lsr	r2, r3, #16
    2064:	e59f30b0 	ldr	r3, [pc, #176]	; 211c <SDK_EXAMPLE_gps_waypoint_control+0x370>
    2068:	e1d330b8 	ldrh	r3, [r3, #8]
    206c:	e0823003 	add	r3, r2, r3
    2070:	e1a03803 	lsl	r3, r3, #16
    2074:	e1a02823 	lsr	r2, r3, #16
    2078:	e59f309c 	ldr	r3, [pc, #156]	; 211c <SDK_EXAMPLE_gps_waypoint_control+0x370>
    207c:	e5d33004 	ldrb	r3, [r3, #4]
    2080:	e0823003 	add	r3, r2, r3
    2084:	e1a03803 	lsl	r3, r3, #16
    2088:	e1a02823 	lsr	r2, r3, #16
    208c:	e59f3088 	ldr	r3, [pc, #136]	; 211c <SDK_EXAMPLE_gps_waypoint_control+0x370>
    2090:	e5933000 	ldr	r3, [r3]
    2094:	e1a03803 	lsl	r3, r3, #16
    2098:	e1a03823 	lsr	r3, r3, #16
    209c:	e0823003 	add	r3, r2, r3
    20a0:	e1a03803 	lsl	r3, r3, #16
    20a4:	e1a03823 	lsr	r3, r3, #16
    20a8:	e2433c55 	sub	r3, r3, #21760	; 0x5500
    20ac:	e2433056 	sub	r3, r3, #86	; 0x56
    20b0:	e1a03803 	lsl	r3, r3, #16
    20b4:	e1a03823 	lsr	r3, r3, #16
    20b8:	e1a02003 	mov	r2, r3
    20bc:	e59f3058 	ldr	r3, [pc, #88]	; 211c <SDK_EXAMPLE_gps_waypoint_control+0x370>
    20c0:	e1c320ba 	strh	r2, [r3, #10]
									+ wpToLL.pos_acc
									+ wpToLL.properties
									+ wpToLL.wp_activated;

			//send waypoint
			wpCtrlAckTrigger=0;
    20c4:	e59f2044 	ldr	r2, [pc, #68]	; 2110 <SDK_EXAMPLE_gps_waypoint_control+0x364>
    20c8:	e3a03000 	mov	r3, #0
    20cc:	e5c23000 	strb	r3, [r2]
			wpCtrlWpCmd=WP_CMD_SINGLE_WP;
    20d0:	e59f2028 	ldr	r2, [pc, #40]	; 2100 <SDK_EXAMPLE_gps_waypoint_control+0x354>
    20d4:	e3a03001 	mov	r3, #1
    20d8:	e5c23000 	strb	r3, [r2]
			wpCtrlWpCmdUpdated=1;
    20dc:	e59f2028 	ldr	r2, [pc, #40]	; 210c <SDK_EXAMPLE_gps_waypoint_control+0x360>
    20e0:	e3a03001 	mov	r3, #1
    20e4:	e5c23000 	strb	r3, [r2]

			wpExampleState=2;
    20e8:	e59f2018 	ldr	r2, [pc, #24]	; 2108 <SDK_EXAMPLE_gps_waypoint_control+0x35c>
    20ec:	e3a03002 	mov	r3, #2
    20f0:	e5c23000 	strb	r3, [r2]

		}
		break;
    20f4:	ea00021b 	b	2968 <SDK_EXAMPLE_gps_waypoint_control+0xbbc>
    20f8:	40001fac 	.word	0x40001fac
    20fc:	40001f38 	.word	0x40001f38
    2100:	40000b82 	.word	0x40000b82
    2104:	40001fb4 	.word	0x40001fb4
    2108:	40000ddc 	.word	0x40000ddc
    210c:	40000b83 	.word	0x40000b83
    2110:	40000b84 	.word	0x40000b84
    2114:	40000b86 	.word	0x40000b86
    2118:	4000205c 	.word	0x4000205c
    211c:	40001f1c 	.word	0x40001f1c
    2120:	40000dd4 	.word	0x40000dd4
    2124:	40000dcc 	.word	0x40000dcc
    2128:	416312d0 	.word	0x416312d0
    212c:	00000000 	.word	0x00000000

		case 2:
			//wait until cmd is processed and sent to LL processor
			if ((wpCtrlWpCmdUpdated==0) && (wpCtrlAckTrigger))
    2130:	e51f302c 	ldr	r3, [pc, #-44]	; 210c <SDK_EXAMPLE_gps_waypoint_control+0x360>
    2134:	e5d33000 	ldrb	r3, [r3]
    2138:	e3530000 	cmp	r3, #0
    213c:	1a0000a3 	bne	23d0 <SDK_EXAMPLE_gps_waypoint_control+0x624>
    2140:	e51f3038 	ldr	r3, [pc, #-56]	; 2110 <SDK_EXAMPLE_gps_waypoint_control+0x364>
    2144:	e5d33000 	ldrb	r3, [r3]
    2148:	e3530000 	cmp	r3, #0
    214c:	0a00009f 	beq	23d0 <SDK_EXAMPLE_gps_waypoint_control+0x624>
			{
				//check if waypoint was reached and wait time is over
				if (wpCtrlNavStatus&(WP_NAVSTAT_REACHED_POS_TIME))
    2150:	e51f3044 	ldr	r3, [pc, #-68]	; 2114 <SDK_EXAMPLE_gps_waypoint_control+0x368>
    2154:	e1d330b0 	ldrh	r3, [r3]
    2158:	e2033002 	and	r3, r3, #2
    215c:	e3530000 	cmp	r3, #0
    2160:	0a000092 	beq	23b0 <SDK_EXAMPLE_gps_waypoint_control+0x604>
				{
					//new waypoint
					double lat,lon;

					//fill waypoint structure
					wpToLL.max_speed=100;
    2164:	e51f2050 	ldr	r2, [pc, #-80]	; 211c <SDK_EXAMPLE_gps_waypoint_control+0x370>
    2168:	e3a03064 	mov	r3, #100	; 0x64
    216c:	e5c23005 	strb	r3, [r2, #5]
					wpToLL.pos_acc=3000; //3m accuracy
    2170:	e51f205c 	ldr	r2, [pc, #-92]	; 211c <SDK_EXAMPLE_gps_waypoint_control+0x370>
    2174:	e3a03ebb 	mov	r3, #2992	; 0xbb0
    2178:	e2833008 	add	r3, r3, #8
    217c:	e1c230b8 	strh	r3, [r2, #8]
					wpToLL.time=400; //4 seconds wait time
    2180:	e51f206c 	ldr	r2, [pc, #-108]	; 211c <SDK_EXAMPLE_gps_waypoint_control+0x370>
    2184:	e3a03e19 	mov	r3, #400	; 0x190
    2188:	e1c230b6 	strh	r3, [r2, #6]
					wpToLL.wp_activated=1;
    218c:	e51f2078 	ldr	r2, [pc, #-120]	; 211c <SDK_EXAMPLE_gps_waypoint_control+0x370>
    2190:	e3a03001 	mov	r3, #1
    2194:	e5823000 	str	r3, [r2]

					//see LL_HL_comm.h for WPPROP defines
					wpToLL.properties=WPPROP_ABSCOORDS|WPPROP_AUTOMATICGOTO|WPPROP_HEIGHTENABLED|WPPROP_YAWENABLED;
    2198:	e51f2084 	ldr	r2, [pc, #-132]	; 211c <SDK_EXAMPLE_gps_waypoint_control+0x370>
    219c:	e3a03017 	mov	r3, #23
    21a0:	e5c23004 	strb	r3, [r2, #4]

					//use current height and yaw
					wpToLL.yaw=IMU_CalcData.angle_yaw; //use current yaw
    21a4:	e51f3094 	ldr	r3, [pc, #-148]	; 2118 <SDK_EXAMPLE_gps_waypoint_control+0x36c>
    21a8:	e5932008 	ldr	r2, [r3, #8]
    21ac:	e51f3098 	ldr	r3, [pc, #-152]	; 211c <SDK_EXAMPLE_gps_waypoint_control+0x370>
    21b0:	e5832014 	str	r2, [r3, #20]
					wpToLL.height=IMU_CalcData.height; //use current height
    21b4:	e51f30a4 	ldr	r3, [pc, #-164]	; 2118 <SDK_EXAMPLE_gps_waypoint_control+0x36c>
    21b8:	e593204c 	ldr	r2, [r3, #76]	; 0x4c
    21bc:	e51f30a8 	ldr	r3, [pc, #-168]	; 211c <SDK_EXAMPLE_gps_waypoint_control+0x370>
    21c0:	e5832018 	str	r2, [r3, #24]

					//calculate a position 15m north and 15m east of origin
					xy2latlon(originLat,originLon,15.0,15.0,&lat,&lon);
    21c4:	e51f30ac 	ldr	r3, [pc, #-172]	; 2120 <SDK_EXAMPLE_gps_waypoint_control+0x374>
    21c8:	e8930006 	ldm	r3, {r1, r2}
    21cc:	e51f30b0 	ldr	r3, [pc, #-176]	; 2124 <SDK_EXAMPLE_gps_waypoint_control+0x378>
    21d0:	e8930060 	ldm	r3, {r5, r6}
    21d4:	e3a03101 	mov	r3, #1073741824	; 0x40000000
    21d8:	e283382e 	add	r3, r3, #3014656	; 0x2e0000
    21dc:	e3a04000 	mov	r4, #0
    21e0:	e88d0018 	stm	sp, {r3, r4}
    21e4:	e3a03101 	mov	r3, #1073741824	; 0x40000000
    21e8:	e283382e 	add	r3, r3, #3014656	; 0x2e0000
    21ec:	e3a04000 	mov	r4, #0
    21f0:	e58d3008 	str	r3, [sp, #8]
    21f4:	e58d400c 	str	r4, [sp, #12]
    21f8:	e24b3030 	sub	r3, fp, #48	; 0x30
    21fc:	e58d3010 	str	r3, [sp, #16]
    2200:	e24b3038 	sub	r3, fp, #56	; 0x38
    2204:	e58d3014 	str	r3, [sp, #20]
    2208:	e1a00001 	mov	r0, r1
    220c:	e1a01002 	mov	r1, r2
    2210:	e1a02005 	mov	r2, r5
    2214:	e1a03006 	mov	r3, r6
    2218:	ebfffd14 	bl	1670 <xy2latlon>

					wpToLL.X=lon*10000000;
    221c:	e24b3038 	sub	r3, fp, #56	; 0x38
    2220:	e8930018 	ldm	r3, {r3, r4}
    2224:	e1a00003 	mov	r0, r3
    2228:	e1a01004 	mov	r1, r4
    222c:	e24f2f43 	sub	r2, pc, #268	; 0x10c
    2230:	e892000c 	ldm	r2, {r2, r3}
    2234:	eb001d72 	bl	9804 <__aeabi_dmul>
    2238:	e1a03000 	mov	r3, r0
    223c:	e1a04001 	mov	r4, r1
    2240:	e1a00003 	mov	r0, r3
    2244:	e1a01004 	mov	r1, r4
    2248:	eb001ee4 	bl	9de0 <__aeabi_d2iz>
    224c:	e1a02000 	mov	r2, r0
    2250:	e51f313c 	ldr	r3, [pc, #-316]	; 211c <SDK_EXAMPLE_gps_waypoint_control+0x370>
    2254:	e583200c 	str	r2, [r3, #12]
					wpToLL.Y=lat*10000000;
    2258:	e24b3030 	sub	r3, fp, #48	; 0x30
    225c:	e8930018 	ldm	r3, {r3, r4}
    2260:	e1a00003 	mov	r0, r3
    2264:	e1a01004 	mov	r1, r4
    2268:	e24f2f52 	sub	r2, pc, #328	; 0x148
    226c:	e892000c 	ldm	r2, {r2, r3}
    2270:	eb001d63 	bl	9804 <__aeabi_dmul>
    2274:	e1a03000 	mov	r3, r0
    2278:	e1a04001 	mov	r4, r1
    227c:	e1a00003 	mov	r0, r3
    2280:	e1a01004 	mov	r1, r4
    2284:	eb001ed5 	bl	9de0 <__aeabi_d2iz>
    2288:	e1a02000 	mov	r2, r0
    228c:	e51f3178 	ldr	r3, [pc, #-376]	; 211c <SDK_EXAMPLE_gps_waypoint_control+0x370>
    2290:	e5832010 	str	r2, [r3, #16]

					//calc chksum
					wpToLL.chksum = 0xAAAA
    2294:	e51f3180 	ldr	r3, [pc, #-384]	; 211c <SDK_EXAMPLE_gps_waypoint_control+0x370>
    2298:	e5933014 	ldr	r3, [r3, #20]
    229c:	e1a03803 	lsl	r3, r3, #16
    22a0:	e1a02823 	lsr	r2, r3, #16
    22a4:	e51f3190 	ldr	r3, [pc, #-400]	; 211c <SDK_EXAMPLE_gps_waypoint_control+0x370>
    22a8:	e5933018 	ldr	r3, [r3, #24]
    22ac:	e1a03803 	lsl	r3, r3, #16
    22b0:	e1a03823 	lsr	r3, r3, #16
    22b4:	e0823003 	add	r3, r2, r3
    22b8:	e1a03803 	lsl	r3, r3, #16
    22bc:	e1a02823 	lsr	r2, r3, #16
    22c0:	e51f31ac 	ldr	r3, [pc, #-428]	; 211c <SDK_EXAMPLE_gps_waypoint_control+0x370>
    22c4:	e1d330b6 	ldrh	r3, [r3, #6]
    22c8:	e0823003 	add	r3, r2, r3
    22cc:	e1a03803 	lsl	r3, r3, #16
    22d0:	e1a02823 	lsr	r2, r3, #16
    22d4:	e51f31c0 	ldr	r3, [pc, #-448]	; 211c <SDK_EXAMPLE_gps_waypoint_control+0x370>
    22d8:	e593300c 	ldr	r3, [r3, #12]
    22dc:	e1a03803 	lsl	r3, r3, #16
    22e0:	e1a03823 	lsr	r3, r3, #16
    22e4:	e0823003 	add	r3, r2, r3
    22e8:	e1a03803 	lsl	r3, r3, #16
    22ec:	e1a02823 	lsr	r2, r3, #16
    22f0:	e51f31dc 	ldr	r3, [pc, #-476]	; 211c <SDK_EXAMPLE_gps_waypoint_control+0x370>
    22f4:	e5933010 	ldr	r3, [r3, #16]
    22f8:	e1a03803 	lsl	r3, r3, #16
    22fc:	e1a03823 	lsr	r3, r3, #16
    2300:	e0823003 	add	r3, r2, r3
    2304:	e1a03803 	lsl	r3, r3, #16
    2308:	e1a02823 	lsr	r2, r3, #16
    230c:	e51f31f8 	ldr	r3, [pc, #-504]	; 211c <SDK_EXAMPLE_gps_waypoint_control+0x370>
    2310:	e5d33005 	ldrb	r3, [r3, #5]
    2314:	e0823003 	add	r3, r2, r3
    2318:	e1a03803 	lsl	r3, r3, #16
    231c:	e1a02823 	lsr	r2, r3, #16
    2320:	e51f320c 	ldr	r3, [pc, #-524]	; 211c <SDK_EXAMPLE_gps_waypoint_control+0x370>
    2324:	e1d330b8 	ldrh	r3, [r3, #8]
    2328:	e0823003 	add	r3, r2, r3
    232c:	e1a03803 	lsl	r3, r3, #16
    2330:	e1a02823 	lsr	r2, r3, #16
    2334:	e51f3220 	ldr	r3, [pc, #-544]	; 211c <SDK_EXAMPLE_gps_waypoint_control+0x370>
    2338:	e5d33004 	ldrb	r3, [r3, #4]
    233c:	e0823003 	add	r3, r2, r3
    2340:	e1a03803 	lsl	r3, r3, #16
    2344:	e1a02823 	lsr	r2, r3, #16
    2348:	e51f3234 	ldr	r3, [pc, #-564]	; 211c <SDK_EXAMPLE_gps_waypoint_control+0x370>
    234c:	e5933000 	ldr	r3, [r3]
    2350:	e1a03803 	lsl	r3, r3, #16
    2354:	e1a03823 	lsr	r3, r3, #16
    2358:	e0823003 	add	r3, r2, r3
    235c:	e1a03803 	lsl	r3, r3, #16
    2360:	e1a03823 	lsr	r3, r3, #16
    2364:	e2433c55 	sub	r3, r3, #21760	; 0x5500
    2368:	e2433056 	sub	r3, r3, #86	; 0x56
    236c:	e1a03803 	lsl	r3, r3, #16
    2370:	e1a03823 	lsr	r3, r3, #16
    2374:	e1a02003 	mov	r2, r3
    2378:	e51f3264 	ldr	r3, [pc, #-612]	; 211c <SDK_EXAMPLE_gps_waypoint_control+0x370>
    237c:	e1c320ba 	strh	r2, [r3, #10]
											+ wpToLL.max_speed
											+ wpToLL.pos_acc
											+ wpToLL.properties
											+ wpToLL.wp_activated;
					//send waypoint
					wpCtrlAckTrigger=0;
    2380:	e51f2278 	ldr	r2, [pc, #-632]	; 2110 <SDK_EXAMPLE_gps_waypoint_control+0x364>
    2384:	e3a03000 	mov	r3, #0
    2388:	e5c23000 	strb	r3, [r2]
					wpCtrlWpCmd=WP_CMD_SINGLE_WP;
    238c:	e51f2294 	ldr	r2, [pc, #-660]	; 2100 <SDK_EXAMPLE_gps_waypoint_control+0x354>
    2390:	e3a03001 	mov	r3, #1
    2394:	e5c23000 	strb	r3, [r2]
					wpCtrlWpCmdUpdated=1;
    2398:	e51f2294 	ldr	r2, [pc, #-660]	; 210c <SDK_EXAMPLE_gps_waypoint_control+0x360>
    239c:	e3a03001 	mov	r3, #1
    23a0:	e5c23000 	strb	r3, [r2]

					wpExampleState=3;
    23a4:	e51f22a4 	ldr	r2, [pc, #-676]	; 2108 <SDK_EXAMPLE_gps_waypoint_control+0x35c>
    23a8:	e3a03003 	mov	r3, #3
    23ac:	e5c23000 	strb	r3, [r2]
				}

				if (wpCtrlNavStatus&WP_NAVSTAT_PILOT_ABORT)
    23b0:	e51f32a4 	ldr	r3, [pc, #-676]	; 2114 <SDK_EXAMPLE_gps_waypoint_control+0x368>
    23b4:	e1d330b0 	ldrh	r3, [r3]
    23b8:	e2033008 	and	r3, r3, #8
    23bc:	e3530000 	cmp	r3, #0
    23c0:	0a000002 	beq	23d0 <SDK_EXAMPLE_gps_waypoint_control+0x624>
					wpExampleState=0;
    23c4:	e51f32c4 	ldr	r3, [pc, #-708]	; 2108 <SDK_EXAMPLE_gps_waypoint_control+0x35c>
    23c8:	e3a02000 	mov	r2, #0
    23cc:	e5c32000 	strb	r2, [r3]


			}
			if (RO_RC_Data.channel[6]<1600)
    23d0:	e51f32d4 	ldr	r3, [pc, #-724]	; 2104 <SDK_EXAMPLE_gps_waypoint_control+0x358>
    23d4:	e1d320bc 	ldrh	r2, [r3, #12]
    23d8:	e3a03e63 	mov	r3, #1584	; 0x630
    23dc:	e283300f 	add	r3, r3, #15
    23e0:	e1520003 	cmp	r2, r3
    23e4:	8a00015f 	bhi	2968 <SDK_EXAMPLE_gps_waypoint_control+0xbbc>
						wpExampleState=0;
    23e8:	e51f32e8 	ldr	r3, [pc, #-744]	; 2108 <SDK_EXAMPLE_gps_waypoint_control+0x35c>
    23ec:	e3a02000 	mov	r2, #0
    23f0:	e5c32000 	strb	r2, [r3]
		break;
    23f4:	ea00015b 	b	2968 <SDK_EXAMPLE_gps_waypoint_control+0xbbc>

		case 3:
			//wait until cmd is processed and sent to LL processor
			if ((wpCtrlWpCmdUpdated==0) && (wpCtrlAckTrigger))
    23f8:	e51f32f4 	ldr	r3, [pc, #-756]	; 210c <SDK_EXAMPLE_gps_waypoint_control+0x360>
    23fc:	e5d33000 	ldrb	r3, [r3]
    2400:	e3530000 	cmp	r3, #0
    2404:	1a0000a2 	bne	2694 <SDK_EXAMPLE_gps_waypoint_control+0x8e8>
    2408:	e51f3300 	ldr	r3, [pc, #-768]	; 2110 <SDK_EXAMPLE_gps_waypoint_control+0x364>
    240c:	e5d33000 	ldrb	r3, [r3]
    2410:	e3530000 	cmp	r3, #0
    2414:	0a00009e 	beq	2694 <SDK_EXAMPLE_gps_waypoint_control+0x8e8>
			{
				//check if waypoint was reached and wait time is over
				if (wpCtrlNavStatus&(WP_NAVSTAT_REACHED_POS_TIME))
    2418:	e51f330c 	ldr	r3, [pc, #-780]	; 2114 <SDK_EXAMPLE_gps_waypoint_control+0x368>
    241c:	e1d330b0 	ldrh	r3, [r3]
    2420:	e2033002 	and	r3, r3, #2
    2424:	e3530000 	cmp	r3, #0
    2428:	0a000091 	beq	2674 <SDK_EXAMPLE_gps_waypoint_control+0x8c8>
				{
					//new waypoint
					double lat,lon;

					//fill waypoint structure
					wpToLL.max_speed=100;
    242c:	e51f2318 	ldr	r2, [pc, #-792]	; 211c <SDK_EXAMPLE_gps_waypoint_control+0x370>
    2430:	e3a03064 	mov	r3, #100	; 0x64
    2434:	e5c23005 	strb	r3, [r2, #5]
					wpToLL.pos_acc=3000; //3m accuracy
    2438:	e51f2324 	ldr	r2, [pc, #-804]	; 211c <SDK_EXAMPLE_gps_waypoint_control+0x370>
    243c:	e3a03ebb 	mov	r3, #2992	; 0xbb0
    2440:	e2833008 	add	r3, r3, #8
    2444:	e1c230b8 	strh	r3, [r2, #8]
					wpToLL.time=400; //4 seconds wait time
    2448:	e51f2334 	ldr	r2, [pc, #-820]	; 211c <SDK_EXAMPLE_gps_waypoint_control+0x370>
    244c:	e3a03e19 	mov	r3, #400	; 0x190
    2450:	e1c230b6 	strh	r3, [r2, #6]
					wpToLL.wp_activated=1;
    2454:	e51f2340 	ldr	r2, [pc, #-832]	; 211c <SDK_EXAMPLE_gps_waypoint_control+0x370>
    2458:	e3a03001 	mov	r3, #1
    245c:	e5823000 	str	r3, [r2]

					//see LL_HL_comm.h for WPPROP defines
					wpToLL.properties=WPPROP_ABSCOORDS|WPPROP_AUTOMATICGOTO|WPPROP_HEIGHTENABLED|WPPROP_YAWENABLED;
    2460:	e51f234c 	ldr	r2, [pc, #-844]	; 211c <SDK_EXAMPLE_gps_waypoint_control+0x370>
    2464:	e3a03017 	mov	r3, #23
    2468:	e5c23004 	strb	r3, [r2, #4]

					//use current height and yaw
					wpToLL.yaw=IMU_CalcData.angle_yaw; //use current yaw
    246c:	e51f335c 	ldr	r3, [pc, #-860]	; 2118 <SDK_EXAMPLE_gps_waypoint_control+0x36c>
    2470:	e5932008 	ldr	r2, [r3, #8]
    2474:	e51f3360 	ldr	r3, [pc, #-864]	; 211c <SDK_EXAMPLE_gps_waypoint_control+0x370>
    2478:	e5832014 	str	r2, [r3, #20]
					wpToLL.height=IMU_CalcData.height; //use current height
    247c:	e51f336c 	ldr	r3, [pc, #-876]	; 2118 <SDK_EXAMPLE_gps_waypoint_control+0x36c>
    2480:	e593204c 	ldr	r2, [r3, #76]	; 0x4c
    2484:	e51f3370 	ldr	r3, [pc, #-880]	; 211c <SDK_EXAMPLE_gps_waypoint_control+0x370>
    2488:	e5832018 	str	r2, [r3, #24]

					//calculate a position 15m east of origin
					xy2latlon(originLat,originLon,15.0,0.0,&lat,&lon);
    248c:	e51f3374 	ldr	r3, [pc, #-884]	; 2120 <SDK_EXAMPLE_gps_waypoint_control+0x374>
    2490:	e8930006 	ldm	r3, {r1, r2}
    2494:	e51f3378 	ldr	r3, [pc, #-888]	; 2124 <SDK_EXAMPLE_gps_waypoint_control+0x378>
    2498:	e8930060 	ldm	r3, {r5, r6}
    249c:	e3a03101 	mov	r3, #1073741824	; 0x40000000
    24a0:	e283382e 	add	r3, r3, #3014656	; 0x2e0000
    24a4:	e3a04000 	mov	r4, #0
    24a8:	e88d0018 	stm	sp, {r3, r4}
    24ac:	e3a03000 	mov	r3, #0
    24b0:	e3a04000 	mov	r4, #0
    24b4:	e58d3008 	str	r3, [sp, #8]
    24b8:	e58d400c 	str	r4, [sp, #12]
    24bc:	e24b3040 	sub	r3, fp, #64	; 0x40
    24c0:	e58d3010 	str	r3, [sp, #16]
    24c4:	e24b3048 	sub	r3, fp, #72	; 0x48
    24c8:	e58d3014 	str	r3, [sp, #20]
    24cc:	e1a00001 	mov	r0, r1
    24d0:	e1a01002 	mov	r1, r2
    24d4:	e1a02005 	mov	r2, r5
    24d8:	e1a03006 	mov	r3, r6
    24dc:	ebfffc63 	bl	1670 <xy2latlon>

					wpToLL.X=lon*10000000;
    24e0:	e24b3048 	sub	r3, fp, #72	; 0x48
    24e4:	e8930018 	ldm	r3, {r3, r4}
    24e8:	e1a00003 	mov	r0, r3
    24ec:	e1a01004 	mov	r1, r4
    24f0:	e28f2f7b 	add	r2, pc, #492	; 0x1ec
    24f4:	e892000c 	ldm	r2, {r2, r3}
    24f8:	eb001cc1 	bl	9804 <__aeabi_dmul>
    24fc:	e1a03000 	mov	r3, r0
    2500:	e1a04001 	mov	r4, r1
    2504:	e1a00003 	mov	r0, r3
    2508:	e1a01004 	mov	r1, r4
    250c:	eb001e33 	bl	9de0 <__aeabi_d2iz>
    2510:	e1a02000 	mov	r2, r0
    2514:	e59f31ac 	ldr	r3, [pc, #428]	; 26c8 <SDK_EXAMPLE_gps_waypoint_control+0x91c>
    2518:	e583200c 	str	r2, [r3, #12]
					wpToLL.Y=lat*10000000;
    251c:	e24b3040 	sub	r3, fp, #64	; 0x40
    2520:	e8930018 	ldm	r3, {r3, r4}
    2524:	e1a00003 	mov	r0, r3
    2528:	e1a01004 	mov	r1, r4
    252c:	e28f2e1b 	add	r2, pc, #432	; 0x1b0
    2530:	e892000c 	ldm	r2, {r2, r3}
    2534:	eb001cb2 	bl	9804 <__aeabi_dmul>
    2538:	e1a03000 	mov	r3, r0
    253c:	e1a04001 	mov	r4, r1
    2540:	e1a00003 	mov	r0, r3
    2544:	e1a01004 	mov	r1, r4
    2548:	eb001e24 	bl	9de0 <__aeabi_d2iz>
    254c:	e1a02000 	mov	r2, r0
    2550:	e59f3170 	ldr	r3, [pc, #368]	; 26c8 <SDK_EXAMPLE_gps_waypoint_control+0x91c>
    2554:	e5832010 	str	r2, [r3, #16]

					//calc chksum
					wpToLL.chksum = 0xAAAA
    2558:	e59f3168 	ldr	r3, [pc, #360]	; 26c8 <SDK_EXAMPLE_gps_waypoint_control+0x91c>
    255c:	e5933014 	ldr	r3, [r3, #20]
    2560:	e1a03803 	lsl	r3, r3, #16
    2564:	e1a02823 	lsr	r2, r3, #16
    2568:	e59f3158 	ldr	r3, [pc, #344]	; 26c8 <SDK_EXAMPLE_gps_waypoint_control+0x91c>
    256c:	e5933018 	ldr	r3, [r3, #24]
    2570:	e1a03803 	lsl	r3, r3, #16
    2574:	e1a03823 	lsr	r3, r3, #16
    2578:	e0823003 	add	r3, r2, r3
    257c:	e1a03803 	lsl	r3, r3, #16
    2580:	e1a02823 	lsr	r2, r3, #16
    2584:	e59f313c 	ldr	r3, [pc, #316]	; 26c8 <SDK_EXAMPLE_gps_waypoint_control+0x91c>
    2588:	e1d330b6 	ldrh	r3, [r3, #6]
    258c:	e0823003 	add	r3, r2, r3
    2590:	e1a03803 	lsl	r3, r3, #16
    2594:	e1a02823 	lsr	r2, r3, #16
    2598:	e59f3128 	ldr	r3, [pc, #296]	; 26c8 <SDK_EXAMPLE_gps_waypoint_control+0x91c>
    259c:	e593300c 	ldr	r3, [r3, #12]
    25a0:	e1a03803 	lsl	r3, r3, #16
    25a4:	e1a03823 	lsr	r3, r3, #16
    25a8:	e0823003 	add	r3, r2, r3
    25ac:	e1a03803 	lsl	r3, r3, #16
    25b0:	e1a02823 	lsr	r2, r3, #16
    25b4:	e59f310c 	ldr	r3, [pc, #268]	; 26c8 <SDK_EXAMPLE_gps_waypoint_control+0x91c>
    25b8:	e5933010 	ldr	r3, [r3, #16]
    25bc:	e1a03803 	lsl	r3, r3, #16
    25c0:	e1a03823 	lsr	r3, r3, #16
    25c4:	e0823003 	add	r3, r2, r3
    25c8:	e1a03803 	lsl	r3, r3, #16
    25cc:	e1a02823 	lsr	r2, r3, #16
    25d0:	e59f30f0 	ldr	r3, [pc, #240]	; 26c8 <SDK_EXAMPLE_gps_waypoint_control+0x91c>
    25d4:	e5d33005 	ldrb	r3, [r3, #5]
    25d8:	e0823003 	add	r3, r2, r3
    25dc:	e1a03803 	lsl	r3, r3, #16
    25e0:	e1a02823 	lsr	r2, r3, #16
    25e4:	e59f30dc 	ldr	r3, [pc, #220]	; 26c8 <SDK_EXAMPLE_gps_waypoint_control+0x91c>
    25e8:	e1d330b8 	ldrh	r3, [r3, #8]
    25ec:	e0823003 	add	r3, r2, r3
    25f0:	e1a03803 	lsl	r3, r3, #16
    25f4:	e1a02823 	lsr	r2, r3, #16
    25f8:	e59f30c8 	ldr	r3, [pc, #200]	; 26c8 <SDK_EXAMPLE_gps_waypoint_control+0x91c>
    25fc:	e5d33004 	ldrb	r3, [r3, #4]
    2600:	e0823003 	add	r3, r2, r3
    2604:	e1a03803 	lsl	r3, r3, #16
    2608:	e1a02823 	lsr	r2, r3, #16
    260c:	e59f30b4 	ldr	r3, [pc, #180]	; 26c8 <SDK_EXAMPLE_gps_waypoint_control+0x91c>
    2610:	e5933000 	ldr	r3, [r3]
    2614:	e1a03803 	lsl	r3, r3, #16
    2618:	e1a03823 	lsr	r3, r3, #16
    261c:	e0823003 	add	r3, r2, r3
    2620:	e1a03803 	lsl	r3, r3, #16
    2624:	e1a03823 	lsr	r3, r3, #16
    2628:	e2433c55 	sub	r3, r3, #21760	; 0x5500
    262c:	e2433056 	sub	r3, r3, #86	; 0x56
    2630:	e1a03803 	lsl	r3, r3, #16
    2634:	e1a03823 	lsr	r3, r3, #16
    2638:	e1a02003 	mov	r2, r3
    263c:	e59f3084 	ldr	r3, [pc, #132]	; 26c8 <SDK_EXAMPLE_gps_waypoint_control+0x91c>
    2640:	e1c320ba 	strh	r2, [r3, #10]
											+ wpToLL.pos_acc
											+ wpToLL.properties
											+ wpToLL.wp_activated;

					//send waypoint
					wpCtrlAckTrigger=0;
    2644:	e59f2080 	ldr	r2, [pc, #128]	; 26cc <SDK_EXAMPLE_gps_waypoint_control+0x920>
    2648:	e3a03000 	mov	r3, #0
    264c:	e5c23000 	strb	r3, [r2]
					wpCtrlWpCmd=WP_CMD_SINGLE_WP;
    2650:	e59f2078 	ldr	r2, [pc, #120]	; 26d0 <SDK_EXAMPLE_gps_waypoint_control+0x924>
    2654:	e3a03001 	mov	r3, #1
    2658:	e5c23000 	strb	r3, [r2]
					wpCtrlWpCmdUpdated=1;
    265c:	e59f2070 	ldr	r2, [pc, #112]	; 26d4 <SDK_EXAMPLE_gps_waypoint_control+0x928>
    2660:	e3a03001 	mov	r3, #1
    2664:	e5c23000 	strb	r3, [r2]

					wpExampleState=4;
    2668:	e59f2070 	ldr	r2, [pc, #112]	; 26e0 <SDK_EXAMPLE_gps_waypoint_control+0x934>
    266c:	e3a03004 	mov	r3, #4
    2670:	e5c23000 	strb	r3, [r2]
				}

				if (wpCtrlNavStatus&WP_NAVSTAT_PILOT_ABORT)
    2674:	e59f305c 	ldr	r3, [pc, #92]	; 26d8 <SDK_EXAMPLE_gps_waypoint_control+0x92c>
    2678:	e1d330b0 	ldrh	r3, [r3]
    267c:	e2033008 	and	r3, r3, #8
    2680:	e3530000 	cmp	r3, #0
    2684:	0a000002 	beq	2694 <SDK_EXAMPLE_gps_waypoint_control+0x8e8>
					wpExampleState=0;
    2688:	e59f3050 	ldr	r3, [pc, #80]	; 26e0 <SDK_EXAMPLE_gps_waypoint_control+0x934>
    268c:	e3a02000 	mov	r2, #0
    2690:	e5c32000 	strb	r2, [r3]


			}
			if (RO_RC_Data.channel[6]<1600)
    2694:	e59f3040 	ldr	r3, [pc, #64]	; 26dc <SDK_EXAMPLE_gps_waypoint_control+0x930>
    2698:	e1d320bc 	ldrh	r2, [r3, #12]
    269c:	e3a03e63 	mov	r3, #1584	; 0x630
    26a0:	e283300f 	add	r3, r3, #15
    26a4:	e1520003 	cmp	r2, r3
    26a8:	8a0000ae 	bhi	2968 <SDK_EXAMPLE_gps_waypoint_control+0xbbc>
						wpExampleState=0;
    26ac:	e59f302c 	ldr	r3, [pc, #44]	; 26e0 <SDK_EXAMPLE_gps_waypoint_control+0x934>
    26b0:	e3a02000 	mov	r2, #0
    26b4:	e5c32000 	strb	r2, [r3]
		break;
    26b8:	ea0000aa 	b	2968 <SDK_EXAMPLE_gps_waypoint_control+0xbbc>
    26bc:	4000205c 	.word	0x4000205c
    26c0:	40000dcc 	.word	0x40000dcc
    26c4:	40000dd4 	.word	0x40000dd4
    26c8:	40001f1c 	.word	0x40001f1c
    26cc:	40000b84 	.word	0x40000b84
    26d0:	40000b82 	.word	0x40000b82
    26d4:	40000b83 	.word	0x40000b83
    26d8:	40000b86 	.word	0x40000b86
    26dc:	40001fb4 	.word	0x40001fb4
    26e0:	40000ddc 	.word	0x40000ddc
    26e4:	416312d0 	.word	0x416312d0
    26e8:	00000000 	.word	0x00000000

		case 4:
			//wait until cmd is processed and sent to LL processor
			if ((wpCtrlWpCmdUpdated==0) && (wpCtrlAckTrigger))
    26ec:	e51f3020 	ldr	r3, [pc, #-32]	; 26d4 <SDK_EXAMPLE_gps_waypoint_control+0x928>
    26f0:	e5d33000 	ldrb	r3, [r3]
    26f4:	e3530000 	cmp	r3, #0
    26f8:	1a00008d 	bne	2934 <SDK_EXAMPLE_gps_waypoint_control+0xb88>
    26fc:	e51f3038 	ldr	r3, [pc, #-56]	; 26cc <SDK_EXAMPLE_gps_waypoint_control+0x920>
    2700:	e5d33000 	ldrb	r3, [r3]
    2704:	e3530000 	cmp	r3, #0
    2708:	0a000089 	beq	2934 <SDK_EXAMPLE_gps_waypoint_control+0xb88>
			{
				//check if waypoint was reached and wait time is over
				if (wpCtrlNavStatus&(WP_NAVSTAT_REACHED_POS_TIME))
    270c:	e51f303c 	ldr	r3, [pc, #-60]	; 26d8 <SDK_EXAMPLE_gps_waypoint_control+0x92c>
    2710:	e1d330b0 	ldrh	r3, [r3]
    2714:	e2033002 	and	r3, r3, #2
    2718:	e3530000 	cmp	r3, #0
    271c:	0a00007c 	beq	2914 <SDK_EXAMPLE_gps_waypoint_control+0xb68>
				{

					//fill waypoint structure
					wpToLL.max_speed=100;
    2720:	e51f2060 	ldr	r2, [pc, #-96]	; 26c8 <SDK_EXAMPLE_gps_waypoint_control+0x91c>
    2724:	e3a03064 	mov	r3, #100	; 0x64
    2728:	e5c23005 	strb	r3, [r2, #5]
					wpToLL.pos_acc=3000; //3m accuracy
    272c:	e51f206c 	ldr	r2, [pc, #-108]	; 26c8 <SDK_EXAMPLE_gps_waypoint_control+0x91c>
    2730:	e3a03ebb 	mov	r3, #2992	; 0xbb0
    2734:	e2833008 	add	r3, r3, #8
    2738:	e1c230b8 	strh	r3, [r2, #8]
					wpToLL.time=400; //4 seconds wait time
    273c:	e51f207c 	ldr	r2, [pc, #-124]	; 26c8 <SDK_EXAMPLE_gps_waypoint_control+0x91c>
    2740:	e3a03e19 	mov	r3, #400	; 0x190
    2744:	e1c230b6 	strh	r3, [r2, #6]
					wpToLL.wp_activated=1;
    2748:	e51f2088 	ldr	r2, [pc, #-136]	; 26c8 <SDK_EXAMPLE_gps_waypoint_control+0x91c>
    274c:	e3a03001 	mov	r3, #1
    2750:	e5823000 	str	r3, [r2]

					//see LL_HL_comm.h for WPPROP defines
					wpToLL.properties=WPPROP_ABSCOORDS|WPPROP_AUTOMATICGOTO|WPPROP_HEIGHTENABLED|WPPROP_YAWENABLED;
    2754:	e51f2094 	ldr	r2, [pc, #-148]	; 26c8 <SDK_EXAMPLE_gps_waypoint_control+0x91c>
    2758:	e3a03017 	mov	r3, #23
    275c:	e5c23004 	strb	r3, [r2, #4]

					//use current height and yaw
					wpToLL.yaw=IMU_CalcData.angle_yaw; //use current yaw
    2760:	e51f30ac 	ldr	r3, [pc, #-172]	; 26bc <SDK_EXAMPLE_gps_waypoint_control+0x910>
    2764:	e5932008 	ldr	r2, [r3, #8]
    2768:	e51f30a8 	ldr	r3, [pc, #-168]	; 26c8 <SDK_EXAMPLE_gps_waypoint_control+0x91c>
    276c:	e5832014 	str	r2, [r3, #20]
					wpToLL.height=IMU_CalcData.height; //use current height
    2770:	e51f30bc 	ldr	r3, [pc, #-188]	; 26bc <SDK_EXAMPLE_gps_waypoint_control+0x910>
    2774:	e593204c 	ldr	r2, [r3, #76]	; 0x4c
    2778:	e51f30b8 	ldr	r3, [pc, #-184]	; 26c8 <SDK_EXAMPLE_gps_waypoint_control+0x91c>
    277c:	e5832018 	str	r2, [r3, #24]

					//go to the beginning

					wpToLL.X=originLon*10000000;
    2780:	e51f30c8 	ldr	r3, [pc, #-200]	; 26c0 <SDK_EXAMPLE_gps_waypoint_control+0x914>
    2784:	e8930018 	ldm	r3, {r3, r4}
    2788:	e1a00003 	mov	r0, r3
    278c:	e1a01004 	mov	r1, r4
    2790:	e24f20b4 	sub	r2, pc, #180	; 0xb4
    2794:	e892000c 	ldm	r2, {r2, r3}
    2798:	eb001c19 	bl	9804 <__aeabi_dmul>
    279c:	e1a03000 	mov	r3, r0
    27a0:	e1a04001 	mov	r4, r1
    27a4:	e1a00003 	mov	r0, r3
    27a8:	e1a01004 	mov	r1, r4
    27ac:	eb001d8b 	bl	9de0 <__aeabi_d2iz>
    27b0:	e1a02000 	mov	r2, r0
    27b4:	e51f30f4 	ldr	r3, [pc, #-244]	; 26c8 <SDK_EXAMPLE_gps_waypoint_control+0x91c>
    27b8:	e583200c 	str	r2, [r3, #12]
					wpToLL.Y=originLat*10000000;
    27bc:	e51f3100 	ldr	r3, [pc, #-256]	; 26c4 <SDK_EXAMPLE_gps_waypoint_control+0x918>
    27c0:	e8930018 	ldm	r3, {r3, r4}
    27c4:	e1a00003 	mov	r0, r3
    27c8:	e1a01004 	mov	r1, r4
    27cc:	e24f20f0 	sub	r2, pc, #240	; 0xf0
    27d0:	e892000c 	ldm	r2, {r2, r3}
    27d4:	eb001c0a 	bl	9804 <__aeabi_dmul>
    27d8:	e1a03000 	mov	r3, r0
    27dc:	e1a04001 	mov	r4, r1
    27e0:	e1a00003 	mov	r0, r3
    27e4:	e1a01004 	mov	r1, r4
    27e8:	eb001d7c 	bl	9de0 <__aeabi_d2iz>
    27ec:	e1a02000 	mov	r2, r0
    27f0:	e51f3130 	ldr	r3, [pc, #-304]	; 26c8 <SDK_EXAMPLE_gps_waypoint_control+0x91c>
    27f4:	e5832010 	str	r2, [r3, #16]

					//calc chksum
					wpToLL.chksum = 0xAAAA
    27f8:	e51f3138 	ldr	r3, [pc, #-312]	; 26c8 <SDK_EXAMPLE_gps_waypoint_control+0x91c>
    27fc:	e5933014 	ldr	r3, [r3, #20]
    2800:	e1a03803 	lsl	r3, r3, #16
    2804:	e1a02823 	lsr	r2, r3, #16
    2808:	e51f3148 	ldr	r3, [pc, #-328]	; 26c8 <SDK_EXAMPLE_gps_waypoint_control+0x91c>
    280c:	e5933018 	ldr	r3, [r3, #24]
    2810:	e1a03803 	lsl	r3, r3, #16
    2814:	e1a03823 	lsr	r3, r3, #16
    2818:	e0823003 	add	r3, r2, r3
    281c:	e1a03803 	lsl	r3, r3, #16
    2820:	e1a02823 	lsr	r2, r3, #16
    2824:	e51f3164 	ldr	r3, [pc, #-356]	; 26c8 <SDK_EXAMPLE_gps_waypoint_control+0x91c>
    2828:	e1d330b6 	ldrh	r3, [r3, #6]
    282c:	e0823003 	add	r3, r2, r3
    2830:	e1a03803 	lsl	r3, r3, #16
    2834:	e1a02823 	lsr	r2, r3, #16
    2838:	e51f3178 	ldr	r3, [pc, #-376]	; 26c8 <SDK_EXAMPLE_gps_waypoint_control+0x91c>
    283c:	e593300c 	ldr	r3, [r3, #12]
    2840:	e1a03803 	lsl	r3, r3, #16
    2844:	e1a03823 	lsr	r3, r3, #16
    2848:	e0823003 	add	r3, r2, r3
    284c:	e1a03803 	lsl	r3, r3, #16
    2850:	e1a02823 	lsr	r2, r3, #16
    2854:	e51f3194 	ldr	r3, [pc, #-404]	; 26c8 <SDK_EXAMPLE_gps_waypoint_control+0x91c>
    2858:	e5933010 	ldr	r3, [r3, #16]
    285c:	e1a03803 	lsl	r3, r3, #16
    2860:	e1a03823 	lsr	r3, r3, #16
    2864:	e0823003 	add	r3, r2, r3
    2868:	e1a03803 	lsl	r3, r3, #16
    286c:	e1a02823 	lsr	r2, r3, #16
    2870:	e51f31b0 	ldr	r3, [pc, #-432]	; 26c8 <SDK_EXAMPLE_gps_waypoint_control+0x91c>
    2874:	e5d33005 	ldrb	r3, [r3, #5]
    2878:	e0823003 	add	r3, r2, r3
    287c:	e1a03803 	lsl	r3, r3, #16
    2880:	e1a02823 	lsr	r2, r3, #16
    2884:	e51f31c4 	ldr	r3, [pc, #-452]	; 26c8 <SDK_EXAMPLE_gps_waypoint_control+0x91c>
    2888:	e1d330b8 	ldrh	r3, [r3, #8]
    288c:	e0823003 	add	r3, r2, r3
    2890:	e1a03803 	lsl	r3, r3, #16
    2894:	e1a02823 	lsr	r2, r3, #16
    2898:	e51f31d8 	ldr	r3, [pc, #-472]	; 26c8 <SDK_EXAMPLE_gps_waypoint_control+0x91c>
    289c:	e5d33004 	ldrb	r3, [r3, #4]
    28a0:	e0823003 	add	r3, r2, r3
    28a4:	e1a03803 	lsl	r3, r3, #16
    28a8:	e1a02823 	lsr	r2, r3, #16
    28ac:	e51f31ec 	ldr	r3, [pc, #-492]	; 26c8 <SDK_EXAMPLE_gps_waypoint_control+0x91c>
    28b0:	e5933000 	ldr	r3, [r3]
    28b4:	e1a03803 	lsl	r3, r3, #16
    28b8:	e1a03823 	lsr	r3, r3, #16
    28bc:	e0823003 	add	r3, r2, r3
    28c0:	e1a03803 	lsl	r3, r3, #16
    28c4:	e1a03823 	lsr	r3, r3, #16
    28c8:	e2433c55 	sub	r3, r3, #21760	; 0x5500
    28cc:	e2433056 	sub	r3, r3, #86	; 0x56
    28d0:	e1a03803 	lsl	r3, r3, #16
    28d4:	e1a03823 	lsr	r3, r3, #16
    28d8:	e1a02003 	mov	r2, r3
    28dc:	e51f321c 	ldr	r3, [pc, #-540]	; 26c8 <SDK_EXAMPLE_gps_waypoint_control+0x91c>
    28e0:	e1c320ba 	strh	r2, [r3, #10]
											+ wpToLL.pos_acc
											+ wpToLL.properties
											+ wpToLL.wp_activated;

					//send waypoint
					wpCtrlAckTrigger=0;
    28e4:	e51f2220 	ldr	r2, [pc, #-544]	; 26cc <SDK_EXAMPLE_gps_waypoint_control+0x920>
    28e8:	e3a03000 	mov	r3, #0
    28ec:	e5c23000 	strb	r3, [r2]
					wpCtrlWpCmd=WP_CMD_SINGLE_WP;
    28f0:	e51f2228 	ldr	r2, [pc, #-552]	; 26d0 <SDK_EXAMPLE_gps_waypoint_control+0x924>
    28f4:	e3a03001 	mov	r3, #1
    28f8:	e5c23000 	strb	r3, [r2]
					wpCtrlWpCmdUpdated=1;
    28fc:	e51f2230 	ldr	r2, [pc, #-560]	; 26d4 <SDK_EXAMPLE_gps_waypoint_control+0x928>
    2900:	e3a03001 	mov	r3, #1
    2904:	e5c23000 	strb	r3, [r2]

					wpExampleState=0;
    2908:	e51f2230 	ldr	r2, [pc, #-560]	; 26e0 <SDK_EXAMPLE_gps_waypoint_control+0x934>
    290c:	e3a03000 	mov	r3, #0
    2910:	e5c23000 	strb	r3, [r2]
				}

				if (wpCtrlNavStatus&WP_NAVSTAT_PILOT_ABORT)
    2914:	e51f3244 	ldr	r3, [pc, #-580]	; 26d8 <SDK_EXAMPLE_gps_waypoint_control+0x92c>
    2918:	e1d330b0 	ldrh	r3, [r3]
    291c:	e2033008 	and	r3, r3, #8
    2920:	e3530000 	cmp	r3, #0
    2924:	0a000002 	beq	2934 <SDK_EXAMPLE_gps_waypoint_control+0xb88>
					wpExampleState=0;
    2928:	e51f3250 	ldr	r3, [pc, #-592]	; 26e0 <SDK_EXAMPLE_gps_waypoint_control+0x934>
    292c:	e3a02000 	mov	r2, #0
    2930:	e5c32000 	strb	r2, [r3]


			}
			if (RO_RC_Data.channel[6]<1600)
    2934:	e51f3260 	ldr	r3, [pc, #-608]	; 26dc <SDK_EXAMPLE_gps_waypoint_control+0x930>
    2938:	e1d320bc 	ldrh	r2, [r3, #12]
    293c:	e3a03e63 	mov	r3, #1584	; 0x630
    2940:	e283300f 	add	r3, r3, #15
    2944:	e1520003 	cmp	r2, r3
    2948:	8a000006 	bhi	2968 <SDK_EXAMPLE_gps_waypoint_control+0xbbc>
						wpExampleState=0;
    294c:	e51f3274 	ldr	r3, [pc, #-628]	; 26e0 <SDK_EXAMPLE_gps_waypoint_control+0x934>
    2950:	e3a02000 	mov	r2, #0
    2954:	e5c32000 	strb	r2, [r3]
		break;
    2958:	ea000002 	b	2968 <SDK_EXAMPLE_gps_waypoint_control+0xbbc>

		default:
			wpExampleState=0;
    295c:	e51f3284 	ldr	r3, [pc, #-644]	; 26e0 <SDK_EXAMPLE_gps_waypoint_control+0x934>
    2960:	e3a02000 	mov	r2, #0
    2964:	e5c32000 	strb	r2, [r3]
		break;
	}

}
    2968:	e24bd018 	sub	sp, fp, #24
    296c:	e89d6870 	ldm	sp, {r4, r5, r6, fp, sp, lr}
    2970:	e12fff1e 	bx	lr

00002974 <SDK_EXAMPLE_turn_motors_on>:

int SDK_EXAMPLE_turn_motors_on(void) //hold throttle stick down and yaw stick fully left to turn motors on
{
    2974:	e1a0c00d 	mov	ip, sp
    2978:	e92dd800 	push	{fp, ip, lr, pc}
    297c:	e24cb004 	sub	fp, ip, #4
    2980:	e24dd004 	sub	sp, sp, #4
	static int timeout=0;

	WO_SDK.ctrl_mode=0x02;	//0x00: direct individual motor control: individual commands for motors 0..3
    2984:	e59f20e4 	ldr	r2, [pc, #228]	; 2a70 <SDK_EXAMPLE_turn_motors_on+0xfc>
    2988:	e3a03002 	mov	r3, #2
    298c:	e5c23000 	strb	r3, [r2]
							//0x01: direct motor control using standard output mapping: commands are interpreted as pitch, roll, yaw and thrust inputs; no attitude controller active
							//0x02: attitude and throttle control: commands are input for standard attitude controller
							//0x03: GPS waypoint control

	WO_SDK.ctrl_enabled=1;  //0: disable control by HL processor
    2990:	e59f20d8 	ldr	r2, [pc, #216]	; 2a70 <SDK_EXAMPLE_turn_motors_on+0xfc>
    2994:	e3a03001 	mov	r3, #1
    2998:	e5c23001 	strb	r3, [r2, #1]
							//1: enable control by HL processor

	WO_SDK.disable_motor_onoff_by_stick=0; //make sure stick command is accepted
    299c:	e59f20cc 	ldr	r2, [pc, #204]	; 2a70 <SDK_EXAMPLE_turn_motors_on+0xfc>
    29a0:	e3a03000 	mov	r3, #0
    29a4:	e5c23002 	strb	r3, [r2, #2]

	if(++timeout>=1000)
    29a8:	e59f30c4 	ldr	r3, [pc, #196]	; 2a74 <SDK_EXAMPLE_turn_motors_on+0x100>
    29ac:	e5933000 	ldr	r3, [r3]
    29b0:	e2832001 	add	r2, r3, #1
    29b4:	e59f30b8 	ldr	r3, [pc, #184]	; 2a74 <SDK_EXAMPLE_turn_motors_on+0x100>
    29b8:	e5832000 	str	r2, [r3]
    29bc:	e59f30b0 	ldr	r3, [pc, #176]	; 2a74 <SDK_EXAMPLE_turn_motors_on+0x100>
    29c0:	e5932000 	ldr	r2, [r3]
    29c4:	e3a03ff9 	mov	r3, #996	; 0x3e4
    29c8:	e2833003 	add	r3, r3, #3
    29cc:	e1520003 	cmp	r2, r3
    29d0:	da000005 	ble	29ec <SDK_EXAMPLE_turn_motors_on+0x78>
	{
		timeout=0;
    29d4:	e59f2098 	ldr	r2, [pc, #152]	; 2a74 <SDK_EXAMPLE_turn_motors_on+0x100>
    29d8:	e3a03000 	mov	r3, #0
    29dc:	e5823000 	str	r3, [r2]
		return(1); //1 => start sequence completed => motors running => user can stop calling this function
    29e0:	e3a03001 	mov	r3, #1
    29e4:	e50b3010 	str	r3, [fp, #-16]
    29e8:	ea00001b 	b	2a5c <SDK_EXAMPLE_turn_motors_on+0xe8>
	}
	else if(timeout>500) //neutral stick command for 500 ms
    29ec:	e59f3080 	ldr	r3, [pc, #128]	; 2a74 <SDK_EXAMPLE_turn_motors_on+0x100>
    29f0:	e5933000 	ldr	r3, [r3]
    29f4:	e3530f7d 	cmp	r3, #500	; 0x1f4
    29f8:	da00000b 	ble	2a2c <SDK_EXAMPLE_turn_motors_on+0xb8>
	{
		WO_CTRL_Input.ctrl=0x0C;	//0x0C: enable throttle control and yaw control
    29fc:	e59f2074 	ldr	r2, [pc, #116]	; 2a78 <SDK_EXAMPLE_turn_motors_on+0x104>
    2a00:	e3a0300c 	mov	r3, #12
    2a04:	e1c230b8 	strh	r3, [r2, #8]
		WO_CTRL_Input.thrust=0;	//use R/C throttle stick input /2 to control thrust (just for testing)
    2a08:	e59f2068 	ldr	r2, [pc, #104]	; 2a78 <SDK_EXAMPLE_turn_motors_on+0x104>
    2a0c:	e3a03000 	mov	r3, #0
    2a10:	e1c230b6 	strh	r3, [r2, #6]
		WO_CTRL_Input.yaw=0;
    2a14:	e59f205c 	ldr	r2, [pc, #92]	; 2a78 <SDK_EXAMPLE_turn_motors_on+0x104>
    2a18:	e3a03000 	mov	r3, #0
    2a1c:	e1c230b4 	strh	r3, [r2, #4]
		return(0);
    2a20:	e3a03000 	mov	r3, #0
    2a24:	e50b3010 	str	r3, [fp, #-16]
    2a28:	ea00000b 	b	2a5c <SDK_EXAMPLE_turn_motors_on+0xe8>
	}
	else //hold stick command for 500 ms
	{
		WO_CTRL_Input.ctrl=0x0C;	//0x0C: enable throttle control and yaw control
    2a2c:	e59f2044 	ldr	r2, [pc, #68]	; 2a78 <SDK_EXAMPLE_turn_motors_on+0x104>
    2a30:	e3a0300c 	mov	r3, #12
    2a34:	e1c230b8 	strh	r3, [r2, #8]
		WO_CTRL_Input.thrust=0;	//use R/C throttle stick input /2 to control thrust (just for testing)
    2a38:	e59f2038 	ldr	r2, [pc, #56]	; 2a78 <SDK_EXAMPLE_turn_motors_on+0x104>
    2a3c:	e3a03000 	mov	r3, #0
    2a40:	e1c230b6 	strh	r3, [r2, #6]
		WO_CTRL_Input.yaw=-2047;
    2a44:	e59f202c 	ldr	r2, [pc, #44]	; 2a78 <SDK_EXAMPLE_turn_motors_on+0x104>
    2a48:	e3e03e7f 	mvn	r3, #2032	; 0x7f0
    2a4c:	e243300e 	sub	r3, r3, #14
    2a50:	e1c230b4 	strh	r3, [r2, #4]
		return(0);
    2a54:	e3a03000 	mov	r3, #0
    2a58:	e50b3010 	str	r3, [fp, #-16]
    2a5c:	e51b3010 	ldr	r3, [fp, #-16]
	}

}
    2a60:	e1a00003 	mov	r0, r3
    2a64:	e24bd00c 	sub	sp, fp, #12
    2a68:	e89d6800 	ldm	sp, {fp, sp, lr}
    2a6c:	e12fff1e 	bx	lr
    2a70:	40001fac 	.word	0x40001fac
    2a74:	40000de0 	.word	0x40000de0
    2a78:	40001f90 	.word	0x40001f90

00002a7c <SDK_EXAMPLE_turn_motors_off>:

int SDK_EXAMPLE_turn_motors_off(void) //hold throttle stick down and yaw stick fully right to turn motors off
{
    2a7c:	e1a0c00d 	mov	ip, sp
    2a80:	e92dd800 	push	{fp, ip, lr, pc}
    2a84:	e24cb004 	sub	fp, ip, #4
    2a88:	e24dd004 	sub	sp, sp, #4
	static int timeout=0;

	WO_SDK.ctrl_mode=0x02;	//0x00: direct individual motor control: individual commands for motors 0..3
    2a8c:	e59f20e0 	ldr	r2, [pc, #224]	; 2b74 <SDK_EXAMPLE_turn_motors_off+0xf8>
    2a90:	e3a03002 	mov	r3, #2
    2a94:	e5c23000 	strb	r3, [r2]
							//0x01: direct motor control using standard output mapping: commands are interpreted as pitch, roll, yaw and thrust inputs; no attitude controller active
							//0x02: attitude and throttle control: commands are input for standard attitude controller
							//0x03: GPS waypoint control

	WO_SDK.ctrl_enabled=1;  //0: disable control by HL processor
    2a98:	e59f20d4 	ldr	r2, [pc, #212]	; 2b74 <SDK_EXAMPLE_turn_motors_off+0xf8>
    2a9c:	e3a03001 	mov	r3, #1
    2aa0:	e5c23001 	strb	r3, [r2, #1]
							//1: enable control by HL processor

	WO_SDK.disable_motor_onoff_by_stick=0; //make sure stick command is accepted
    2aa4:	e59f20c8 	ldr	r2, [pc, #200]	; 2b74 <SDK_EXAMPLE_turn_motors_off+0xf8>
    2aa8:	e3a03000 	mov	r3, #0
    2aac:	e5c23002 	strb	r3, [r2, #2]

	if(++timeout>=1000)
    2ab0:	e59f30c0 	ldr	r3, [pc, #192]	; 2b78 <SDK_EXAMPLE_turn_motors_off+0xfc>
    2ab4:	e5933000 	ldr	r3, [r3]
    2ab8:	e2832001 	add	r2, r3, #1
    2abc:	e59f30b4 	ldr	r3, [pc, #180]	; 2b78 <SDK_EXAMPLE_turn_motors_off+0xfc>
    2ac0:	e5832000 	str	r2, [r3]
    2ac4:	e59f30ac 	ldr	r3, [pc, #172]	; 2b78 <SDK_EXAMPLE_turn_motors_off+0xfc>
    2ac8:	e5932000 	ldr	r2, [r3]
    2acc:	e3a03ff9 	mov	r3, #996	; 0x3e4
    2ad0:	e2833003 	add	r3, r3, #3
    2ad4:	e1520003 	cmp	r2, r3
    2ad8:	da000005 	ble	2af4 <SDK_EXAMPLE_turn_motors_off+0x78>
	{
		timeout=0;
    2adc:	e59f2094 	ldr	r2, [pc, #148]	; 2b78 <SDK_EXAMPLE_turn_motors_off+0xfc>
    2ae0:	e3a03000 	mov	r3, #0
    2ae4:	e5823000 	str	r3, [r2]
		return(1); //1 => stop sequence completed => motors turned off => user can stop calling this function
    2ae8:	e3a03001 	mov	r3, #1
    2aec:	e50b3010 	str	r3, [fp, #-16]
    2af0:	ea00001a 	b	2b60 <SDK_EXAMPLE_turn_motors_off+0xe4>
	}
	else if(timeout>500) //neutral stick command for 500 ms
    2af4:	e59f307c 	ldr	r3, [pc, #124]	; 2b78 <SDK_EXAMPLE_turn_motors_off+0xfc>
    2af8:	e5933000 	ldr	r3, [r3]
    2afc:	e3530f7d 	cmp	r3, #500	; 0x1f4
    2b00:	da00000b 	ble	2b34 <SDK_EXAMPLE_turn_motors_off+0xb8>
	{
		WO_CTRL_Input.ctrl=0x0C;	//0x0C: enable throttle control and yaw control
    2b04:	e59f2070 	ldr	r2, [pc, #112]	; 2b7c <SDK_EXAMPLE_turn_motors_off+0x100>
    2b08:	e3a0300c 	mov	r3, #12
    2b0c:	e1c230b8 	strh	r3, [r2, #8]
		WO_CTRL_Input.thrust=0;	//use R/C throttle stick input /2 to control thrust (just for testing)
    2b10:	e59f2064 	ldr	r2, [pc, #100]	; 2b7c <SDK_EXAMPLE_turn_motors_off+0x100>
    2b14:	e3a03000 	mov	r3, #0
    2b18:	e1c230b6 	strh	r3, [r2, #6]
		WO_CTRL_Input.yaw=0;
    2b1c:	e59f2058 	ldr	r2, [pc, #88]	; 2b7c <SDK_EXAMPLE_turn_motors_off+0x100>
    2b20:	e3a03000 	mov	r3, #0
    2b24:	e1c230b4 	strh	r3, [r2, #4]
		return(0);
    2b28:	e3a03000 	mov	r3, #0
    2b2c:	e50b3010 	str	r3, [fp, #-16]
    2b30:	ea00000a 	b	2b60 <SDK_EXAMPLE_turn_motors_off+0xe4>
	}
	else //hold stick command for 500 ms
	{
		WO_CTRL_Input.ctrl=0x0C;	//0x0C: enable throttle control and yaw control
    2b34:	e59f2040 	ldr	r2, [pc, #64]	; 2b7c <SDK_EXAMPLE_turn_motors_off+0x100>
    2b38:	e3a0300c 	mov	r3, #12
    2b3c:	e1c230b8 	strh	r3, [r2, #8]
		WO_CTRL_Input.thrust=0;	//use R/C throttle stick input /2 to control thrust (just for testing)
    2b40:	e59f2034 	ldr	r2, [pc, #52]	; 2b7c <SDK_EXAMPLE_turn_motors_off+0x100>
    2b44:	e3a03000 	mov	r3, #0
    2b48:	e1c230b6 	strh	r3, [r2, #6]
		WO_CTRL_Input.yaw=2047;
    2b4c:	e59f2028 	ldr	r2, [pc, #40]	; 2b7c <SDK_EXAMPLE_turn_motors_off+0x100>
    2b50:	e3e03b3e 	mvn	r3, #63488	; 0xf800
    2b54:	e1c230b4 	strh	r3, [r2, #4]
		return(0);
    2b58:	e3a03000 	mov	r3, #0
    2b5c:	e50b3010 	str	r3, [fp, #-16]
    2b60:	e51b3010 	ldr	r3, [fp, #-16]
	}
}
    2b64:	e1a00003 	mov	r0, r3
    2b68:	e24bd00c 	sub	sp, fp, #12
    2b6c:	e89d6800 	ldm	sp, {fp, sp, lr}
    2b70:	e12fff1e 	bx	lr
    2b74:	40001fac 	.word	0x40001fac
    2b78:	40000de4 	.word	0x40000de4
    2b7c:	40001f90 	.word	0x40001f90

00002b80 <my_send>:

void my_send(int fd
		,PackageDefine pd
		,unsigned char pl
		,void* data
		,unsigned char check){
    2b80:	e1a0c00d 	mov	ip, sp
    2b84:	e92dd800 	push	{fp, ip, lr, pc}
    2b88:	e24cb004 	sub	fp, ip, #4
    2b8c:	e24dd01c 	sub	sp, sp, #28
    2b90:	e50b0018 	str	r0, [fp, #-24]
    2b94:	e50b101c 	str	r1, [fp, #-28]
    2b98:	e50b3024 	str	r3, [fp, #-36]	; 0x24
    2b9c:	e59b1004 	ldr	r1, [fp, #4]
    2ba0:	e1a03002 	mov	r3, r2
    2ba4:	e54b3020 	strb	r3, [fp, #-32]
    2ba8:	e1a03001 	mov	r3, r1
    2bac:	e54b3028 	strb	r3, [fp, #-40]	; 0x28
	int i=0;
    2bb0:	e3a03000 	mov	r3, #0
    2bb4:	e50b3014 	str	r3, [fp, #-20]
	unsigned char t;
	unsigned char crc;
	//send header
	send_single(fd,254);
    2bb8:	e51b0018 	ldr	r0, [fp, #-24]
    2bbc:	e3a010fe 	mov	r1, #254	; 0xfe
    2bc0:	eb00004b 	bl	2cf4 <send_single>
	//send package define
	send_single(fd,(unsigned char)pd);
    2bc4:	e51b301c 	ldr	r3, [fp, #-28]
    2bc8:	e20330ff 	and	r3, r3, #255	; 0xff
    2bcc:	e51b0018 	ldr	r0, [fp, #-24]
    2bd0:	e1a01003 	mov	r1, r3
    2bd4:	eb000046 	bl	2cf4 <send_single>
	//send package length
	send_single(fd,pl);
    2bd8:	e55b3020 	ldrb	r3, [fp, #-32]
    2bdc:	e51b0018 	ldr	r0, [fp, #-24]
    2be0:	e1a01003 	mov	r1, r3
    2be4:	eb000042 	bl	2cf4 <send_single>
	if(check==0){
    2be8:	e55b3028 	ldrb	r3, [fp, #-40]	; 0x28
    2bec:	e3530000 	cmp	r3, #0
    2bf0:	1a000013 	bne	2c44 <my_send+0xc4>
		for(i=0;i<pl;i++){
    2bf4:	e3a03000 	mov	r3, #0
    2bf8:	e50b3014 	str	r3, [fp, #-20]
    2bfc:	ea00000b 	b	2c30 <my_send+0xb0>
			t=*((unsigned char*)data+i);
    2c00:	e51b2024 	ldr	r2, [fp, #-36]	; 0x24
    2c04:	e51b3014 	ldr	r3, [fp, #-20]
    2c08:	e0823003 	add	r3, r2, r3
    2c0c:	e5d33000 	ldrb	r3, [r3]
    2c10:	e54b300e 	strb	r3, [fp, #-14]
			send_single(fd,t);
    2c14:	e55b300e 	ldrb	r3, [fp, #-14]
    2c18:	e51b0018 	ldr	r0, [fp, #-24]
    2c1c:	e1a01003 	mov	r1, r3
    2c20:	eb000033 	bl	2cf4 <send_single>
	//send package define
	send_single(fd,(unsigned char)pd);
	//send package length
	send_single(fd,pl);
	if(check==0){
		for(i=0;i<pl;i++){
    2c24:	e51b3014 	ldr	r3, [fp, #-20]
    2c28:	e2833001 	add	r3, r3, #1
    2c2c:	e50b3014 	str	r3, [fp, #-20]
    2c30:	e55b2020 	ldrb	r2, [fp, #-32]
    2c34:	e51b3014 	ldr	r3, [fp, #-20]
    2c38:	e1520003 	cmp	r2, r3
    2c3c:	caffffef 	bgt	2c00 <my_send+0x80>
    2c40:	ea00001d 	b	2cbc <my_send+0x13c>
			t=*((unsigned char*)data+i);
			send_single(fd,t);
		}
	}else{
		crc=254+pd+pl;
    2c44:	e51b301c 	ldr	r3, [fp, #-28]
    2c48:	e20320ff 	and	r2, r3, #255	; 0xff
    2c4c:	e55b3020 	ldrb	r3, [fp, #-32]
    2c50:	e0823003 	add	r3, r2, r3
    2c54:	e20330ff 	and	r3, r3, #255	; 0xff
    2c58:	e2433002 	sub	r3, r3, #2
    2c5c:	e54b300d 	strb	r3, [fp, #-13]
		for(i=0;i<pl;i++){
    2c60:	e3a03000 	mov	r3, #0
    2c64:	e50b3014 	str	r3, [fp, #-20]
    2c68:	ea00000f 	b	2cac <my_send+0x12c>
			t=*((unsigned char*)data+i);
    2c6c:	e51b2024 	ldr	r2, [fp, #-36]	; 0x24
    2c70:	e51b3014 	ldr	r3, [fp, #-20]
    2c74:	e0823003 	add	r3, r2, r3
    2c78:	e5d33000 	ldrb	r3, [r3]
    2c7c:	e54b300e 	strb	r3, [fp, #-14]
			send_single(fd,t);
    2c80:	e55b300e 	ldrb	r3, [fp, #-14]
    2c84:	e51b0018 	ldr	r0, [fp, #-24]
    2c88:	e1a01003 	mov	r1, r3
    2c8c:	eb000018 	bl	2cf4 <send_single>
			crc+=t;
    2c90:	e55b200d 	ldrb	r2, [fp, #-13]
    2c94:	e55b300e 	ldrb	r3, [fp, #-14]
    2c98:	e0823003 	add	r3, r2, r3
    2c9c:	e54b300d 	strb	r3, [fp, #-13]
			t=*((unsigned char*)data+i);
			send_single(fd,t);
		}
	}else{
		crc=254+pd+pl;
		for(i=0;i<pl;i++){
    2ca0:	e51b3014 	ldr	r3, [fp, #-20]
    2ca4:	e2833001 	add	r3, r3, #1
    2ca8:	e50b3014 	str	r3, [fp, #-20]
    2cac:	e55b2020 	ldrb	r2, [fp, #-32]
    2cb0:	e51b3014 	ldr	r3, [fp, #-20]
    2cb4:	e1520003 	cmp	r2, r3
    2cb8:	caffffeb 	bgt	2c6c <my_send+0xec>
			t=*((unsigned char*)data+i);
			send_single(fd,t);
			crc+=t;
		}
	}
	if(check==0){
    2cbc:	e55b3028 	ldrb	r3, [fp, #-40]	; 0x28
    2cc0:	e3530000 	cmp	r3, #0
    2cc4:	1a000003 	bne	2cd8 <my_send+0x158>
		send_single(fd,0);
    2cc8:	e51b0018 	ldr	r0, [fp, #-24]
    2ccc:	e3a01000 	mov	r1, #0
    2cd0:	eb000007 	bl	2cf4 <send_single>
    2cd4:	ea000003 	b	2ce8 <my_send+0x168>
	}else{
		send_single(fd,crc);
    2cd8:	e55b300d 	ldrb	r3, [fp, #-13]
    2cdc:	e51b0018 	ldr	r0, [fp, #-24]
    2ce0:	e1a01003 	mov	r1, r3
    2ce4:	eb000002 	bl	2cf4 <send_single>
	}
}
    2ce8:	e24bd00c 	sub	sp, fp, #12
    2cec:	e89d6800 	ldm	sp, {fp, sp, lr}
    2cf0:	e12fff1e 	bx	lr

00002cf4 <send_single>:

void send_single(int fd,unsigned char c){
    2cf4:	e1a0c00d 	mov	ip, sp
    2cf8:	e92dd800 	push	{fp, ip, lr, pc}
    2cfc:	e24cb004 	sub	fp, ip, #4
    2d00:	e24dd008 	sub	sp, sp, #8
    2d04:	e50b0010 	str	r0, [fp, #-16]
    2d08:	e1a03001 	mov	r3, r1
    2d0c:	e54b3014 	strb	r3, [fp, #-20]
	UARTWriteChar(c);//read_callback(fd,&c,1);
    2d10:	e55b3014 	ldrb	r3, [fp, #-20]
    2d14:	e1a00003 	mov	r0, r3
    2d18:	eb00105c 	bl	6e90 <UARTWriteChar>
}
    2d1c:	e24bd00c 	sub	sp, fp, #12
    2d20:	e89d6800 	ldm	sp, {fp, sp, lr}
    2d24:	e12fff1e 	bx	lr

00002d28 <receive_single>:

int receive_single(int fd,unsigned char* result){
    2d28:	e1a0c00d 	mov	ip, sp
    2d2c:	e92dd800 	push	{fp, ip, lr, pc}
    2d30:	e24cb004 	sub	fp, ip, #4
    2d34:	e24dd008 	sub	sp, sp, #8
    2d38:	e50b0010 	str	r0, [fp, #-16]
    2d3c:	e50b1014 	str	r1, [fp, #-20]
	*result=(unsigned char)fd;
    2d40:	e51b3010 	ldr	r3, [fp, #-16]
    2d44:	e20330ff 	and	r3, r3, #255	; 0xff
    2d48:	e51b2014 	ldr	r2, [fp, #-20]
    2d4c:	e5c23000 	strb	r3, [r2]
	return 1;
    2d50:	e3a03001 	mov	r3, #1
}
    2d54:	e1a00003 	mov	r0, r3
    2d58:	e24bd00c 	sub	sp, fp, #12
    2d5c:	e89d6800 	ldm	sp, {fp, sp, lr}
    2d60:	e12fff1e 	bx	lr

00002d64 <my_receive>:
ReceiveState my_receive(
		int fd,
		void* buffer,
		void* data,
		int* id,
		unsigned char check){
    2d64:	e1a0c00d 	mov	ip, sp
    2d68:	e92dd800 	push	{fp, ip, lr, pc}
    2d6c:	e24cb004 	sub	fp, ip, #4
    2d70:	e24dd018 	sub	sp, sp, #24
    2d74:	e50b0010 	str	r0, [fp, #-16]
    2d78:	e50b1014 	str	r1, [fp, #-20]
    2d7c:	e50b2018 	str	r2, [fp, #-24]
    2d80:	e50b301c 	str	r3, [fp, #-28]
    2d84:	e59b3004 	ldr	r3, [fp, #4]
    2d88:	e54b3020 	strb	r3, [fp, #-32]
	static unsigned char my_index;
	//get package length
	static unsigned char len;
	static unsigned char i=0;
	static unsigned char crc;
	status=receive_single(fd,&t);
    2d8c:	e51b0010 	ldr	r0, [fp, #-16]
    2d90:	e59f132c 	ldr	r1, [pc, #812]	; 30c4 <my_receive+0x360>
    2d94:	ebffffe3 	bl	2d28 <receive_single>
    2d98:	e1a02000 	mov	r2, r0
    2d9c:	e59f3324 	ldr	r3, [pc, #804]	; 30c8 <my_receive+0x364>
    2da0:	e5832000 	str	r2, [r3]
	if(status!=0){
    2da4:	e59f331c 	ldr	r3, [pc, #796]	; 30c8 <my_receive+0x364>
    2da8:	e5933000 	ldr	r3, [r3]
    2dac:	e3530000 	cmp	r3, #0
    2db0:	0a0000b9 	beq	309c <my_receive+0x338>
		//some data received
		if(t==254&&flag==PARSE_NOT_START){
    2db4:	e59f3308 	ldr	r3, [pc, #776]	; 30c4 <my_receive+0x360>
    2db8:	e5d33000 	ldrb	r3, [r3]
    2dbc:	e35300fe 	cmp	r3, #254	; 0xfe
    2dc0:	1a00000a 	bne	2df0 <my_receive+0x8c>
    2dc4:	e59f3300 	ldr	r3, [pc, #768]	; 30cc <my_receive+0x368>
    2dc8:	e5933000 	ldr	r3, [r3]
    2dcc:	e3530000 	cmp	r3, #0
    2dd0:	1a000006 	bne	2df0 <my_receive+0x8c>
			crc=254;
    2dd4:	e59f22f4 	ldr	r2, [pc, #756]	; 30d0 <my_receive+0x36c>
    2dd8:	e3e03001 	mvn	r3, #1
    2ddc:	e5c23000 	strb	r3, [r2]
			flag=PARSE_READ_ID;
    2de0:	e59f22e4 	ldr	r2, [pc, #740]	; 30cc <my_receive+0x368>
    2de4:	e3a03001 	mov	r3, #1
    2de8:	e5823000 	str	r3, [r2]
	static unsigned char i=0;
	static unsigned char crc;
	status=receive_single(fd,&t);
	if(status!=0){
		//some data received
		if(t==254&&flag==PARSE_NOT_START){
    2dec:	ea00005f 	b	2f70 <my_receive+0x20c>
			crc=254;
			flag=PARSE_READ_ID;
		}else if(flag==PARSE_READ_ID){
    2df0:	e59f32d4 	ldr	r3, [pc, #724]	; 30cc <my_receive+0x368>
    2df4:	e5933000 	ldr	r3, [r3]
    2df8:	e3530001 	cmp	r3, #1
    2dfc:	1a00000f 	bne	2e40 <my_receive+0xdc>
			my_index=t;
    2e00:	e59f32bc 	ldr	r3, [pc, #700]	; 30c4 <my_receive+0x360>
    2e04:	e5d33000 	ldrb	r3, [r3]
    2e08:	e59f22c4 	ldr	r2, [pc, #708]	; 30d4 <my_receive+0x370>
    2e0c:	e5c23000 	strb	r3, [r2]
			crc+=t;
    2e10:	e59f32b8 	ldr	r3, [pc, #696]	; 30d0 <my_receive+0x36c>
    2e14:	e5d32000 	ldrb	r2, [r3]
    2e18:	e59f32a4 	ldr	r3, [pc, #676]	; 30c4 <my_receive+0x360>
    2e1c:	e5d33000 	ldrb	r3, [r3]
    2e20:	e0823003 	add	r3, r2, r3
    2e24:	e20330ff 	and	r3, r3, #255	; 0xff
    2e28:	e59f22a0 	ldr	r2, [pc, #672]	; 30d0 <my_receive+0x36c>
    2e2c:	e5c23000 	strb	r3, [r2]
			flag=PARSE_READ_LEN;
    2e30:	e59f2294 	ldr	r2, [pc, #660]	; 30cc <my_receive+0x368>
    2e34:	e3a03002 	mov	r3, #2
    2e38:	e5823000 	str	r3, [r2]
    2e3c:	ea00004b 	b	2f70 <my_receive+0x20c>
		}else if(flag==PARSE_READ_LEN){
    2e40:	e59f3284 	ldr	r3, [pc, #644]	; 30cc <my_receive+0x368>
    2e44:	e5933000 	ldr	r3, [r3]
    2e48:	e3530002 	cmp	r3, #2
    2e4c:	1a000012 	bne	2e9c <my_receive+0x138>
			len=t;
    2e50:	e59f326c 	ldr	r3, [pc, #620]	; 30c4 <my_receive+0x360>
    2e54:	e5d33000 	ldrb	r3, [r3]
    2e58:	e59f2278 	ldr	r2, [pc, #632]	; 30d8 <my_receive+0x374>
    2e5c:	e5c23000 	strb	r3, [r2]
			i=0;
    2e60:	e59f2274 	ldr	r2, [pc, #628]	; 30dc <my_receive+0x378>
    2e64:	e3a03000 	mov	r3, #0
    2e68:	e5c23000 	strb	r3, [r2]
			crc+=t;
    2e6c:	e59f325c 	ldr	r3, [pc, #604]	; 30d0 <my_receive+0x36c>
    2e70:	e5d32000 	ldrb	r2, [r3]
    2e74:	e59f3248 	ldr	r3, [pc, #584]	; 30c4 <my_receive+0x360>
    2e78:	e5d33000 	ldrb	r3, [r3]
    2e7c:	e0823003 	add	r3, r2, r3
    2e80:	e20330ff 	and	r3, r3, #255	; 0xff
    2e84:	e59f2244 	ldr	r2, [pc, #580]	; 30d0 <my_receive+0x36c>
    2e88:	e5c23000 	strb	r3, [r2]
			flag=PARSE_READ_DATA;
    2e8c:	e59f2238 	ldr	r2, [pc, #568]	; 30cc <my_receive+0x368>
    2e90:	e3a03003 	mov	r3, #3
    2e94:	e5823000 	str	r3, [r2]
    2e98:	ea000034 	b	2f70 <my_receive+0x20c>
		}else if(flag==PARSE_READ_DATA){
    2e9c:	e59f3228 	ldr	r3, [pc, #552]	; 30cc <my_receive+0x368>
    2ea0:	e5933000 	ldr	r3, [r3]
    2ea4:	e3530003 	cmp	r3, #3
    2ea8:	1a00001f 	bne	2f2c <my_receive+0x1c8>
			memset(((unsigned char*)buffer+i),t,1);
    2eac:	e59f3228 	ldr	r3, [pc, #552]	; 30dc <my_receive+0x378>
    2eb0:	e5d33000 	ldrb	r3, [r3]
    2eb4:	e1a02003 	mov	r2, r3
    2eb8:	e51b3014 	ldr	r3, [fp, #-20]
    2ebc:	e0822003 	add	r2, r2, r3
    2ec0:	e59f31fc 	ldr	r3, [pc, #508]	; 30c4 <my_receive+0x360>
    2ec4:	e5d33000 	ldrb	r3, [r3]
    2ec8:	e5c23000 	strb	r3, [r2]
			i++;
    2ecc:	e59f3208 	ldr	r3, [pc, #520]	; 30dc <my_receive+0x378>
    2ed0:	e5d33000 	ldrb	r3, [r3]
    2ed4:	e2833001 	add	r3, r3, #1
    2ed8:	e20330ff 	and	r3, r3, #255	; 0xff
    2edc:	e59f21f8 	ldr	r2, [pc, #504]	; 30dc <my_receive+0x378>
    2ee0:	e5c23000 	strb	r3, [r2]
			crc+=t;
    2ee4:	e59f31e4 	ldr	r3, [pc, #484]	; 30d0 <my_receive+0x36c>
    2ee8:	e5d32000 	ldrb	r2, [r3]
    2eec:	e59f31d0 	ldr	r3, [pc, #464]	; 30c4 <my_receive+0x360>
    2ef0:	e5d33000 	ldrb	r3, [r3]
    2ef4:	e0823003 	add	r3, r2, r3
    2ef8:	e20330ff 	and	r3, r3, #255	; 0xff
    2efc:	e59f21cc 	ldr	r2, [pc, #460]	; 30d0 <my_receive+0x36c>
    2f00:	e5c23000 	strb	r3, [r2]
			if(i==len){
    2f04:	e59f31d0 	ldr	r3, [pc, #464]	; 30dc <my_receive+0x378>
    2f08:	e5d32000 	ldrb	r2, [r3]
    2f0c:	e59f31c4 	ldr	r3, [pc, #452]	; 30d8 <my_receive+0x374>
    2f10:	e5d33000 	ldrb	r3, [r3]
    2f14:	e1520003 	cmp	r2, r3
    2f18:	1a000014 	bne	2f70 <my_receive+0x20c>
				flag=PARSE_CHECK;
    2f1c:	e59f21a8 	ldr	r2, [pc, #424]	; 30cc <my_receive+0x368>
    2f20:	e3a03004 	mov	r3, #4
    2f24:	e5823000 	str	r3, [r2]
    2f28:	ea000010 	b	2f70 <my_receive+0x20c>
			}
		}else if(flag==PARSE_CHECK){
    2f2c:	e59f3198 	ldr	r3, [pc, #408]	; 30cc <my_receive+0x368>
    2f30:	e5933000 	ldr	r3, [r3]
    2f34:	e3530004 	cmp	r3, #4
    2f38:	1a00000c 	bne	2f70 <my_receive+0x20c>
			//need to check?
			//if check==0, t=0, so crc=0 ,and it also can be tested
			if(t==crc){
    2f3c:	e59f3180 	ldr	r3, [pc, #384]	; 30c4 <my_receive+0x360>
    2f40:	e5d32000 	ldrb	r2, [r3]
    2f44:	e59f3184 	ldr	r3, [pc, #388]	; 30d0 <my_receive+0x36c>
    2f48:	e5d33000 	ldrb	r3, [r3]
    2f4c:	e1520003 	cmp	r2, r3
    2f50:	1a000003 	bne	2f64 <my_receive+0x200>
				flag=PARSE_SUCCEED;
    2f54:	e59f2170 	ldr	r2, [pc, #368]	; 30cc <my_receive+0x368>
    2f58:	e3a03005 	mov	r3, #5
    2f5c:	e5823000 	str	r3, [r2]
    2f60:	ea000002 	b	2f70 <my_receive+0x20c>
			}else{
				//printf("%x    %x\n",crc,t);
				flag=PARSE_FAIL;
    2f64:	e59f2160 	ldr	r2, [pc, #352]	; 30cc <my_receive+0x368>
    2f68:	e3a03006 	mov	r3, #6
    2f6c:	e5823000 	str	r3, [r2]
			}
		}
		if(flag==PARSE_SUCCEED){
    2f70:	e59f3154 	ldr	r3, [pc, #340]	; 30cc <my_receive+0x368>
    2f74:	e5933000 	ldr	r3, [r3]
    2f78:	e3530005 	cmp	r3, #5
    2f7c:	1a000026 	bne	301c <my_receive+0x2b8>
			//need to check?
			memcpy(data,buffer,len);
    2f80:	e59f3150 	ldr	r3, [pc, #336]	; 30d8 <my_receive+0x374>
    2f84:	e5d33000 	ldrb	r3, [r3]
    2f88:	e1a01003 	mov	r1, r3
    2f8c:	e51b3018 	ldr	r3, [fp, #-24]
    2f90:	e51b2014 	ldr	r2, [fp, #-20]
    2f94:	e1a0c001 	mov	ip, r1
    2f98:	e1a00003 	mov	r0, r3
    2f9c:	e1a01002 	mov	r1, r2
    2fa0:	e1a0200c 	mov	r2, ip
    2fa4:	eb003d3c 	bl	1249c <__memcpy_from_arm>
			*id=my_index;
    2fa8:	e59f3124 	ldr	r3, [pc, #292]	; 30d4 <my_receive+0x370>
    2fac:	e5d33000 	ldrb	r3, [r3]
    2fb0:	e1a02003 	mov	r2, r3
    2fb4:	e51b301c 	ldr	r3, [fp, #-28]
    2fb8:	e5832000 	str	r2, [r3]
			status=0;flag=PARSE_NOT_START;t=0;
    2fbc:	e59f2104 	ldr	r2, [pc, #260]	; 30c8 <my_receive+0x364>
    2fc0:	e3a03000 	mov	r3, #0
    2fc4:	e5823000 	str	r3, [r2]
    2fc8:	e59f20fc 	ldr	r2, [pc, #252]	; 30cc <my_receive+0x368>
    2fcc:	e3a03000 	mov	r3, #0
    2fd0:	e5823000 	str	r3, [r2]
    2fd4:	e59f20e8 	ldr	r2, [pc, #232]	; 30c4 <my_receive+0x360>
    2fd8:	e3a03000 	mov	r3, #0
    2fdc:	e5c23000 	strb	r3, [r2]
			my_index=0;len=0;i=0;crc=0;
    2fe0:	e59f20ec 	ldr	r2, [pc, #236]	; 30d4 <my_receive+0x370>
    2fe4:	e3a03000 	mov	r3, #0
    2fe8:	e5c23000 	strb	r3, [r2]
    2fec:	e59f20e4 	ldr	r2, [pc, #228]	; 30d8 <my_receive+0x374>
    2ff0:	e3a03000 	mov	r3, #0
    2ff4:	e5c23000 	strb	r3, [r2]
    2ff8:	e59f20dc 	ldr	r2, [pc, #220]	; 30dc <my_receive+0x378>
    2ffc:	e3a03000 	mov	r3, #0
    3000:	e5c23000 	strb	r3, [r2]
    3004:	e59f20c4 	ldr	r2, [pc, #196]	; 30d0 <my_receive+0x36c>
    3008:	e3a03000 	mov	r3, #0
    300c:	e5c23000 	strb	r3, [r2]
			return RECEIVE_STATE_SUCCESS;
    3010:	e3a03002 	mov	r3, #2
    3014:	e50b3024 	str	r3, [fp, #-36]	; 0x24
    3018:	ea000024 	b	30b0 <my_receive+0x34c>
		}else if(flag==PARSE_FAIL){
    301c:	e59f30a8 	ldr	r3, [pc, #168]	; 30cc <my_receive+0x368>
    3020:	e5933000 	ldr	r3, [r3]
    3024:	e3530006 	cmp	r3, #6
    3028:	1a00001b 	bne	309c <my_receive+0x338>
			//need to check?
			//memcpy(data,buffer,len);
			memset(data,0,len);
    302c:	e59f30a4 	ldr	r3, [pc, #164]	; 30d8 <my_receive+0x374>
    3030:	e5d33000 	ldrb	r3, [r3]
    3034:	e1a02003 	mov	r2, r3
    3038:	e51b3018 	ldr	r3, [fp, #-24]
    303c:	e1a00003 	mov	r0, r3
    3040:	e3a01000 	mov	r1, #0
    3044:	eb003d17 	bl	124a8 <__memset_from_arm>
			status=0;flag=PARSE_NOT_START;t=0;
    3048:	e59f2078 	ldr	r2, [pc, #120]	; 30c8 <my_receive+0x364>
    304c:	e3a03000 	mov	r3, #0
    3050:	e5823000 	str	r3, [r2]
    3054:	e59f2070 	ldr	r2, [pc, #112]	; 30cc <my_receive+0x368>
    3058:	e3a03000 	mov	r3, #0
    305c:	e5823000 	str	r3, [r2]
    3060:	e59f205c 	ldr	r2, [pc, #92]	; 30c4 <my_receive+0x360>
    3064:	e3a03000 	mov	r3, #0
    3068:	e5c23000 	strb	r3, [r2]
			my_index=0;len=0;i=0;crc=0;
    306c:	e59f2060 	ldr	r2, [pc, #96]	; 30d4 <my_receive+0x370>
    3070:	e3a03000 	mov	r3, #0
    3074:	e5c23000 	strb	r3, [r2]
    3078:	e59f2058 	ldr	r2, [pc, #88]	; 30d8 <my_receive+0x374>
    307c:	e3a03000 	mov	r3, #0
    3080:	e5c23000 	strb	r3, [r2]
    3084:	e59f2050 	ldr	r2, [pc, #80]	; 30dc <my_receive+0x378>
    3088:	e3a03000 	mov	r3, #0
    308c:	e5c23000 	strb	r3, [r2]
    3090:	e59f2038 	ldr	r2, [pc, #56]	; 30d0 <my_receive+0x36c>
    3094:	e3a03000 	mov	r3, #0
    3098:	e5c23000 	strb	r3, [r2]
		}
		//printf("%d  %d  %d  %d\n",crc,len,i,t);
	}
	*id=-1;
    309c:	e51b201c 	ldr	r2, [fp, #-28]
    30a0:	e3e03000 	mvn	r3, #0
    30a4:	e5823000 	str	r3, [r2]
	return RECEIVE_STATE_NOT_COMPLETED;
    30a8:	e3a03000 	mov	r3, #0
    30ac:	e50b3024 	str	r3, [fp, #-36]	; 0x24
    30b0:	e51b3024 	ldr	r3, [fp, #-36]	; 0x24
}
    30b4:	e1a00003 	mov	r0, r3
    30b8:	e24bd00c 	sub	sp, fp, #12
    30bc:	e89d6800 	ldm	sp, {fp, sp, lr}
    30c0:	e12fff1e 	bx	lr
    30c4:	40000dec 	.word	0x40000dec
    30c8:	40000df4 	.word	0x40000df4
    30cc:	40000df0 	.word	0x40000df0
    30d0:	40000de8 	.word	0x40000de8
    30d4:	40000deb 	.word	0x40000deb
    30d8:	40000dea 	.word	0x40000dea
    30dc:	40000de9 	.word	0x40000de9

000030e0 <getPackageLength>:

unsigned char getPackageLength(PackageDefine pd){
    30e0:	e1a0c00d 	mov	ip, sp
    30e4:	e92dd800 	push	{fp, ip, lr, pc}
    30e8:	e24cb004 	sub	fp, ip, #4
    30ec:	e24dd008 	sub	sp, sp, #8
    30f0:	e50b0010 	str	r0, [fp, #-16]
	switch(pd){
    30f4:	e51b3010 	ldr	r3, [fp, #-16]
    30f8:	e2433001 	sub	r3, r3, #1
    30fc:	e3530006 	cmp	r3, #6
    3100:	979ff103 	ldrls	pc, [pc, r3, lsl #2]
    3104:	ea00001b 	b	3178 <getPackageLength+0x98>
    3108:	00003124 	.word	0x00003124
    310c:	00003130 	.word	0x00003130
    3110:	0000313c 	.word	0x0000313c
    3114:	00003148 	.word	0x00003148
    3118:	00003154 	.word	0x00003154
    311c:	00003160 	.word	0x00003160
    3120:	0000316c 	.word	0x0000316c
	case PACKAGE_DEFINE_STATUS:
		return SYSTEM_STATE_LENGTH;
    3124:	e3a0300c 	mov	r3, #12
    3128:	e50b3014 	str	r3, [fp, #-20]
    312c:	ea000013 	b	3180 <getPackageLength+0xa0>
	case PACKAGE_DEFINE_VICON:
		return VICON_DATA_LENGTH;
    3130:	e3a03028 	mov	r3, #40	; 0x28
    3134:	e50b3014 	str	r3, [fp, #-20]
    3138:	ea000010 	b	3180 <getPackageLength+0xa0>
	case PACKAGE_DEFINE_SENSOR:
		return SENSOR_DATA_LENGTH;
    313c:	e3a0300c 	mov	r3, #12
    3140:	e50b3014 	str	r3, [fp, #-20]
    3144:	ea00000d 	b	3180 <getPackageLength+0xa0>
	case PACKAGE_DEFINE_FUSION:
		return FUSION_DATA_LENGTH;
    3148:	e3a03008 	mov	r3, #8
    314c:	e50b3014 	str	r3, [fp, #-20]
    3150:	ea00000a 	b	3180 <getPackageLength+0xa0>
	case PACKAGE_DEFINE_DEBUG:
		return DEBUG_DATA_LENGTH;
    3154:	e3a03040 	mov	r3, #64	; 0x40
    3158:	e50b3014 	str	r3, [fp, #-20]
    315c:	ea000007 	b	3180 <getPackageLength+0xa0>
	case PACKAGE_DEFINE_PARAM:
		return PARAM_DEBUG_LENGTH;
    3160:	e3a03024 	mov	r3, #36	; 0x24
    3164:	e50b3014 	str	r3, [fp, #-20]
    3168:	ea000004 	b	3180 <getPackageLength+0xa0>
	case PACKAGE_DEFINE_CMD:
		return CMD_DATA_LENGTH;
    316c:	e3a03004 	mov	r3, #4
    3170:	e50b3014 	str	r3, [fp, #-20]
    3174:	ea000001 	b	3180 <getPackageLength+0xa0>
	default:
		return -1;
    3178:	e3a030ff 	mov	r3, #255	; 0xff
    317c:	e50b3014 	str	r3, [fp, #-20]
    3180:	e51b3014 	ldr	r3, [fp, #-20]
	}
}
    3184:	e1a00003 	mov	r0, r3
    3188:	e24bd00c 	sub	sp, fp, #12
    318c:	e89d6800 	ldm	sp, {fp, sp, lr}
    3190:	e12fff1e 	bx	lr

00003194 <constrain>:
 */

#include "pid.h"

float constrain(float value, const float minVal, const float maxVal)
{
    3194:	e1a0c00d 	mov	ip, sp
    3198:	e92dd800 	push	{fp, ip, lr, pc}
    319c:	e24cb004 	sub	fp, ip, #4
    31a0:	e24dd018 	sub	sp, sp, #24
    31a4:	e50b0010 	str	r0, [fp, #-16]
    31a8:	e50b1014 	str	r1, [fp, #-20]
    31ac:	e50b2018 	str	r2, [fp, #-24]
  return min(maxVal, max(minVal,value));
    31b0:	e51b0014 	ldr	r0, [fp, #-20]
    31b4:	e51b1010 	ldr	r1, [fp, #-16]
    31b8:	eb001c88 	bl	a3e0 <__gesf2>
    31bc:	e1a03000 	mov	r3, r0
    31c0:	e3530000 	cmp	r3, #0
    31c4:	ca000000 	bgt	31cc <constrain+0x38>
    31c8:	ea000002 	b	31d8 <constrain+0x44>
    31cc:	e51b3014 	ldr	r3, [fp, #-20]
    31d0:	e50b3020 	str	r3, [fp, #-32]
    31d4:	ea000001 	b	31e0 <constrain+0x4c>
    31d8:	e51b3010 	ldr	r3, [fp, #-16]
    31dc:	e50b3020 	str	r3, [fp, #-32]
    31e0:	e51b0020 	ldr	r0, [fp, #-32]
    31e4:	e51b1018 	ldr	r1, [fp, #-24]
    31e8:	eb001c7c 	bl	a3e0 <__gesf2>
    31ec:	e1a03000 	mov	r3, r0
    31f0:	e3530000 	cmp	r3, #0
    31f4:	ca000000 	bgt	31fc <constrain+0x68>
    31f8:	ea000002 	b	3208 <constrain+0x74>
    31fc:	e51b3018 	ldr	r3, [fp, #-24]
    3200:	e50b3024 	str	r3, [fp, #-36]	; 0x24
    3204:	ea00000d 	b	3240 <constrain+0xac>
    3208:	e51b0014 	ldr	r0, [fp, #-20]
    320c:	e51b1010 	ldr	r1, [fp, #-16]
    3210:	eb001c72 	bl	a3e0 <__gesf2>
    3214:	e1a03000 	mov	r3, r0
    3218:	e3530000 	cmp	r3, #0
    321c:	ca000000 	bgt	3224 <constrain+0x90>
    3220:	ea000002 	b	3230 <constrain+0x9c>
    3224:	e51b3014 	ldr	r3, [fp, #-20]
    3228:	e50b301c 	str	r3, [fp, #-28]
    322c:	ea000001 	b	3238 <constrain+0xa4>
    3230:	e51b3010 	ldr	r3, [fp, #-16]
    3234:	e50b301c 	str	r3, [fp, #-28]
    3238:	e51b301c 	ldr	r3, [fp, #-28]
    323c:	e50b3024 	str	r3, [fp, #-36]	; 0x24
    3240:	e51b3024 	ldr	r3, [fp, #-36]	; 0x24
}
    3244:	e1a00003 	mov	r0, r3
    3248:	e24bd00c 	sub	sp, fp, #12
    324c:	e89d6800 	ldm	sp, {fp, sp, lr}
    3250:	e12fff1e 	bx	lr

00003254 <deadband>:

float deadband(float value, const float threshold)
{
    3254:	e1a0c00d 	mov	ip, sp
    3258:	e92dd800 	push	{fp, ip, lr, pc}
    325c:	e24cb004 	sub	fp, ip, #4
    3260:	e24dd008 	sub	sp, sp, #8
    3264:	e50b0010 	str	r0, [fp, #-16]
    3268:	e50b1014 	str	r1, [fp, #-20]
  if (fabsf(value) < threshold)
    326c:	e51b3010 	ldr	r3, [fp, #-16]
    3270:	e3c33102 	bic	r3, r3, #-2147483648	; 0x80000000
    3274:	e1a00003 	mov	r0, r3
    3278:	e51b1014 	ldr	r1, [fp, #-20]
    327c:	eb001c59 	bl	a3e8 <__lesf2>
    3280:	e1a03000 	mov	r3, r0
    3284:	e3530000 	cmp	r3, #0
    3288:	ba000000 	blt	3290 <deadband+0x3c>
    328c:	ea000002 	b	329c <deadband+0x48>
  {
    value = 0;
    3290:	e59f307c 	ldr	r3, [pc, #124]	; 3314 <deadband+0xc0>
    3294:	e50b3010 	str	r3, [fp, #-16]
    3298:	ea000018 	b	3300 <deadband+0xac>
  }
  else if (value > 0)
    329c:	e51b0010 	ldr	r0, [fp, #-16]
    32a0:	e59f106c 	ldr	r1, [pc, #108]	; 3314 <deadband+0xc0>
    32a4:	eb001c4d 	bl	a3e0 <__gesf2>
    32a8:	e1a03000 	mov	r3, r0
    32ac:	e3530000 	cmp	r3, #0
    32b0:	ca000000 	bgt	32b8 <deadband+0x64>
    32b4:	ea000005 	b	32d0 <deadband+0x7c>
  {
    value -= threshold;
    32b8:	e51b0010 	ldr	r0, [fp, #-16]
    32bc:	e51b1014 	ldr	r1, [fp, #-20]
    32c0:	eb001adf 	bl	9e44 <__aeabi_fsub>
    32c4:	e1a03000 	mov	r3, r0
    32c8:	e50b3010 	str	r3, [fp, #-16]
    32cc:	ea00000b 	b	3300 <deadband+0xac>
  }
  else if (value < 0)
    32d0:	e51b0010 	ldr	r0, [fp, #-16]
    32d4:	e59f1038 	ldr	r1, [pc, #56]	; 3314 <deadband+0xc0>
    32d8:	eb001c42 	bl	a3e8 <__lesf2>
    32dc:	e1a03000 	mov	r3, r0
    32e0:	e3530000 	cmp	r3, #0
    32e4:	ba000000 	blt	32ec <deadband+0x98>
    32e8:	ea000004 	b	3300 <deadband+0xac>
  {
    value += threshold;
    32ec:	e51b0010 	ldr	r0, [fp, #-16]
    32f0:	e51b1014 	ldr	r1, [fp, #-20]
    32f4:	eb001ad3 	bl	9e48 <__addsf3>
    32f8:	e1a03000 	mov	r3, r0
    32fc:	e50b3010 	str	r3, [fp, #-16]
  }
  return value;
    3300:	e51b3010 	ldr	r3, [fp, #-16]
}
    3304:	e1a00003 	mov	r0, r3
    3308:	e24bd00c 	sub	sp, fp, #12
    330c:	e89d6800 	ldm	sp, {fp, sp, lr}
    3310:	e12fff1e 	bx	lr
    3314:	00000000 	.word	0x00000000

00003318 <pidInit>:
void pidInit(PidObject* pid, const float desired, const float kp,
             const float ki, const float kd, const float dt)
{
    3318:	e1a0c00d 	mov	ip, sp
    331c:	e92dd800 	push	{fp, ip, lr, pc}
    3320:	e24cb004 	sub	fp, ip, #4
    3324:	e24dd010 	sub	sp, sp, #16
    3328:	e50b0010 	str	r0, [fp, #-16]
    332c:	e50b1014 	str	r1, [fp, #-20]
    3330:	e50b2018 	str	r2, [fp, #-24]
    3334:	e50b301c 	str	r3, [fp, #-28]
  pid->error         = 0;
    3338:	e51b2010 	ldr	r2, [fp, #-16]
    333c:	e59f3084 	ldr	r3, [pc, #132]	; 33c8 <pidInit+0xb0>
    3340:	e5823004 	str	r3, [r2, #4]
  pid->prevError     = 0;
    3344:	e51b2010 	ldr	r2, [fp, #-16]
    3348:	e59f3078 	ldr	r3, [pc, #120]	; 33c8 <pidInit+0xb0>
    334c:	e5823008 	str	r3, [r2, #8]
  pid->integ         = 0;
    3350:	e51b2010 	ldr	r2, [fp, #-16]
    3354:	e59f306c 	ldr	r3, [pc, #108]	; 33c8 <pidInit+0xb0>
    3358:	e582300c 	str	r3, [r2, #12]
  pid->deriv         = 0;
    335c:	e51b2010 	ldr	r2, [fp, #-16]
    3360:	e59f3060 	ldr	r3, [pc, #96]	; 33c8 <pidInit+0xb0>
    3364:	e5823010 	str	r3, [r2, #16]
  pid->desired       = desired;
    3368:	e51b2010 	ldr	r2, [fp, #-16]
    336c:	e51b3014 	ldr	r3, [fp, #-20]
    3370:	e5823000 	str	r3, [r2]
  pid->kp            = kp;
    3374:	e51b2010 	ldr	r2, [fp, #-16]
    3378:	e51b3018 	ldr	r3, [fp, #-24]
    337c:	e5823014 	str	r3, [r2, #20]
  pid->ki            = ki;
    3380:	e51b2010 	ldr	r2, [fp, #-16]
    3384:	e51b301c 	ldr	r3, [fp, #-28]
    3388:	e5823018 	str	r3, [r2, #24]
  pid->kd            = kd;
    338c:	e51b2010 	ldr	r2, [fp, #-16]
    3390:	e59b3004 	ldr	r3, [fp, #4]
    3394:	e582301c 	str	r3, [r2, #28]
  pid->iLimit        = DEFAULT_PID_INTEGRATION_LIMIT;
    3398:	e51b2010 	ldr	r2, [fp, #-16]
    339c:	e59f3028 	ldr	r3, [pc, #40]	; 33cc <pidInit+0xb4>
    33a0:	e582302c 	str	r3, [r2, #44]	; 0x2c
  pid->outputLimit   = DEFAULT_PID_OUTPUT_LIMIT;
    33a4:	e51b2010 	ldr	r2, [fp, #-16]
    33a8:	e59f3018 	ldr	r3, [pc, #24]	; 33c8 <pidInit+0xb0>
    33ac:	e5823030 	str	r3, [r2, #48]	; 0x30
  pid->dt            = dt;
    33b0:	e51b2010 	ldr	r2, [fp, #-16]
    33b4:	e59b3008 	ldr	r3, [fp, #8]
    33b8:	e5823034 	str	r3, [r2, #52]	; 0x34
}
    33bc:	e24bd00c 	sub	sp, fp, #12
    33c0:	e89d6800 	ldm	sp, {fp, sp, lr}
    33c4:	e12fff1e 	bx	lr
    33c8:	00000000 	.word	0x00000000
    33cc:	43fa0000 	.word	0x43fa0000

000033d0 <pidUpdate>:

float pidUpdate(PidObject* pid, const float measured, const unsigned char updateError)
{
    33d0:	e1a0c00d 	mov	ip, sp
    33d4:	e92dd810 	push	{r4, fp, ip, lr, pc}
    33d8:	e24cb004 	sub	fp, ip, #4
    33dc:	e24dd014 	sub	sp, sp, #20
    33e0:	e50b001c 	str	r0, [fp, #-28]
    33e4:	e50b1020 	str	r1, [fp, #-32]
    33e8:	e1a03002 	mov	r3, r2
    33ec:	e54b3024 	strb	r3, [fp, #-36]	; 0x24
    float output = 0.0;
    33f0:	e59f32a0 	ldr	r3, [pc, #672]	; 3698 <pidUpdate+0x2c8>
    33f4:	e50b3018 	str	r3, [fp, #-24]

    if (updateError)
    33f8:	e55b3024 	ldrb	r3, [fp, #-36]	; 0x24
    33fc:	e3530000 	cmp	r3, #0
    3400:	0a000008 	beq	3428 <pidUpdate+0x58>
    {
        pid->error = pid->desired - measured;
    3404:	e51b301c 	ldr	r3, [fp, #-28]
    3408:	e5933000 	ldr	r3, [r3]
    340c:	e1a00003 	mov	r0, r3
    3410:	e51b1020 	ldr	r1, [fp, #-32]
    3414:	eb001a8a 	bl	9e44 <__aeabi_fsub>
    3418:	e1a03000 	mov	r3, r0
    341c:	e1a02003 	mov	r2, r3
    3420:	e51b301c 	ldr	r3, [fp, #-28]
    3424:	e5832004 	str	r2, [r3, #4]
    }

    pid->outP = pid->kp * pid->error;
    3428:	e51b301c 	ldr	r3, [fp, #-28]
    342c:	e5932014 	ldr	r2, [r3, #20]
    3430:	e51b301c 	ldr	r3, [fp, #-28]
    3434:	e5933004 	ldr	r3, [r3, #4]
    3438:	e1a00002 	mov	r0, r2
    343c:	e1a01003 	mov	r1, r3
    3440:	eb001b28 	bl	a0e8 <__aeabi_fmul>
    3444:	e1a03000 	mov	r3, r0
    3448:	e1a02003 	mov	r2, r3
    344c:	e51b301c 	ldr	r3, [fp, #-28]
    3450:	e5832020 	str	r2, [r3, #32]
    output += pid->outP;
    3454:	e51b301c 	ldr	r3, [fp, #-28]
    3458:	e5933020 	ldr	r3, [r3, #32]
    345c:	e51b0018 	ldr	r0, [fp, #-24]
    3460:	e1a01003 	mov	r1, r3
    3464:	eb001a77 	bl	9e48 <__addsf3>
    3468:	e1a03000 	mov	r3, r0
    346c:	e50b3018 	str	r3, [fp, #-24]

    float deriv = (pid->error - pid->prevError) / pid->dt;
    3470:	e51b301c 	ldr	r3, [fp, #-28]
    3474:	e5932004 	ldr	r2, [r3, #4]
    3478:	e51b301c 	ldr	r3, [fp, #-28]
    347c:	e5933008 	ldr	r3, [r3, #8]
    3480:	e1a00002 	mov	r0, r2
    3484:	e1a01003 	mov	r1, r3
    3488:	eb001a6d 	bl	9e44 <__aeabi_fsub>
    348c:	e1a03000 	mov	r3, r0
    3490:	e1a02003 	mov	r2, r3
    3494:	e51b301c 	ldr	r3, [fp, #-28]
    3498:	e5933034 	ldr	r3, [r3, #52]	; 0x34
    349c:	e1a00002 	mov	r0, r2
    34a0:	e1a01003 	mov	r1, r3
    34a4:	eb001b75 	bl	a280 <__aeabi_fdiv>
    34a8:	e1a03000 	mov	r3, r0
    34ac:	e50b3014 	str	r3, [fp, #-20]

    pid->deriv = deriv;
    34b0:	e51b201c 	ldr	r2, [fp, #-28]
    34b4:	e51b3014 	ldr	r3, [fp, #-20]
    34b8:	e5823010 	str	r3, [r2, #16]
    if (isnan(pid->deriv)) {
    34bc:	e51b301c 	ldr	r3, [fp, #-28]
    34c0:	e5932010 	ldr	r2, [r3, #16]
    34c4:	e51b301c 	ldr	r3, [fp, #-28]
    34c8:	e5933010 	ldr	r3, [r3, #16]
    34cc:	e1a00002 	mov	r0, r2
    34d0:	e1a01003 	mov	r1, r3
    34d4:	eb001bc5 	bl	a3f0 <__cmpsf2>
    34d8:	e1a03000 	mov	r3, r0
    34dc:	e3530000 	cmp	r3, #0
    34e0:	1a000000 	bne	34e8 <pidUpdate+0x118>
    34e4:	ea000002 	b	34f4 <pidUpdate+0x124>
      pid->deriv = 0;
    34e8:	e51b201c 	ldr	r2, [fp, #-28]
    34ec:	e59f31a4 	ldr	r3, [pc, #420]	; 3698 <pidUpdate+0x2c8>
    34f0:	e5823010 	str	r3, [r2, #16]
    }
    pid->outD = pid->kd * pid->deriv;
    34f4:	e51b301c 	ldr	r3, [fp, #-28]
    34f8:	e593201c 	ldr	r2, [r3, #28]
    34fc:	e51b301c 	ldr	r3, [fp, #-28]
    3500:	e5933010 	ldr	r3, [r3, #16]
    3504:	e1a00002 	mov	r0, r2
    3508:	e1a01003 	mov	r1, r3
    350c:	eb001af5 	bl	a0e8 <__aeabi_fmul>
    3510:	e1a03000 	mov	r3, r0
    3514:	e1a02003 	mov	r2, r3
    3518:	e51b301c 	ldr	r3, [fp, #-28]
    351c:	e5832028 	str	r2, [r3, #40]	; 0x28
    output += pid->outD;
    3520:	e51b301c 	ldr	r3, [fp, #-28]
    3524:	e5933028 	ldr	r3, [r3, #40]	; 0x28
    3528:	e51b0018 	ldr	r0, [fp, #-24]
    352c:	e1a01003 	mov	r1, r3
    3530:	eb001a44 	bl	9e48 <__addsf3>
    3534:	e1a03000 	mov	r3, r0
    3538:	e50b3018 	str	r3, [fp, #-24]

    pid->integ += pid->error * pid->dt;
    353c:	e51b301c 	ldr	r3, [fp, #-28]
    3540:	e593400c 	ldr	r4, [r3, #12]
    3544:	e51b301c 	ldr	r3, [fp, #-28]
    3548:	e5932004 	ldr	r2, [r3, #4]
    354c:	e51b301c 	ldr	r3, [fp, #-28]
    3550:	e5933034 	ldr	r3, [r3, #52]	; 0x34
    3554:	e1a00002 	mov	r0, r2
    3558:	e1a01003 	mov	r1, r3
    355c:	eb001ae1 	bl	a0e8 <__aeabi_fmul>
    3560:	e1a03000 	mov	r3, r0
    3564:	e1a00004 	mov	r0, r4
    3568:	e1a01003 	mov	r1, r3
    356c:	eb001a35 	bl	9e48 <__addsf3>
    3570:	e1a03000 	mov	r3, r0
    3574:	e1a02003 	mov	r2, r3
    3578:	e51b301c 	ldr	r3, [fp, #-28]
    357c:	e583200c 	str	r2, [r3, #12]

    // Constrain the integral (unless the iLimit is zero)
    if(pid->iLimit != 0)
    3580:	e51b301c 	ldr	r3, [fp, #-28]
    3584:	e593302c 	ldr	r3, [r3, #44]	; 0x2c
    3588:	e1a00003 	mov	r0, r3
    358c:	e59f1104 	ldr	r1, [pc, #260]	; 3698 <pidUpdate+0x2c8>
    3590:	eb001b96 	bl	a3f0 <__cmpsf2>
    3594:	e1a03000 	mov	r3, r0
    3598:	e3530000 	cmp	r3, #0
    359c:	1a000000 	bne	35a4 <pidUpdate+0x1d4>
    35a0:	ea00000d 	b	35dc <pidUpdate+0x20c>
    {
    	pid->integ = constrain(pid->integ, -pid->iLimit, pid->iLimit);
    35a4:	e51b301c 	ldr	r3, [fp, #-28]
    35a8:	e593100c 	ldr	r1, [r3, #12]
    35ac:	e51b301c 	ldr	r3, [fp, #-28]
    35b0:	e593302c 	ldr	r3, [r3, #44]	; 0x2c
    35b4:	e2232102 	eor	r2, r3, #-2147483648	; 0x80000000
    35b8:	e51b301c 	ldr	r3, [fp, #-28]
    35bc:	e593302c 	ldr	r3, [r3, #44]	; 0x2c
    35c0:	e1a00001 	mov	r0, r1
    35c4:	e1a01002 	mov	r1, r2
    35c8:	e1a02003 	mov	r2, r3
    35cc:	ebfffef0 	bl	3194 <constrain>
    35d0:	e1a02000 	mov	r2, r0
    35d4:	e51b301c 	ldr	r3, [fp, #-28]
    35d8:	e583200c 	str	r2, [r3, #12]
    }

    pid->outI = pid->ki * pid->integ;
    35dc:	e51b301c 	ldr	r3, [fp, #-28]
    35e0:	e5932018 	ldr	r2, [r3, #24]
    35e4:	e51b301c 	ldr	r3, [fp, #-28]
    35e8:	e593300c 	ldr	r3, [r3, #12]
    35ec:	e1a00002 	mov	r0, r2
    35f0:	e1a01003 	mov	r1, r3
    35f4:	eb001abb 	bl	a0e8 <__aeabi_fmul>
    35f8:	e1a03000 	mov	r3, r0
    35fc:	e1a02003 	mov	r2, r3
    3600:	e51b301c 	ldr	r3, [fp, #-28]
    3604:	e5832024 	str	r2, [r3, #36]	; 0x24
    output += pid->outI;
    3608:	e51b301c 	ldr	r3, [fp, #-28]
    360c:	e5933024 	ldr	r3, [r3, #36]	; 0x24
    3610:	e51b0018 	ldr	r0, [fp, #-24]
    3614:	e1a01003 	mov	r1, r3
    3618:	eb001a0a 	bl	9e48 <__addsf3>
    361c:	e1a03000 	mov	r3, r0
    3620:	e50b3018 	str	r3, [fp, #-24]

    // Constrain the total PID output (unless the outputLimit is zero)
    if(pid->outputLimit != 0)
    3624:	e51b301c 	ldr	r3, [fp, #-28]
    3628:	e5933030 	ldr	r3, [r3, #48]	; 0x30
    362c:	e1a00003 	mov	r0, r3
    3630:	e59f1060 	ldr	r1, [pc, #96]	; 3698 <pidUpdate+0x2c8>
    3634:	eb001b6d 	bl	a3f0 <__cmpsf2>
    3638:	e1a03000 	mov	r3, r0
    363c:	e3530000 	cmp	r3, #0
    3640:	1a000000 	bne	3648 <pidUpdate+0x278>
    3644:	ea00000a 	b	3674 <pidUpdate+0x2a4>
    {
      output = constrain(output, -pid->outputLimit, pid->outputLimit);
    3648:	e51b301c 	ldr	r3, [fp, #-28]
    364c:	e5933030 	ldr	r3, [r3, #48]	; 0x30
    3650:	e2232102 	eor	r2, r3, #-2147483648	; 0x80000000
    3654:	e51b301c 	ldr	r3, [fp, #-28]
    3658:	e5933030 	ldr	r3, [r3, #48]	; 0x30
    365c:	e51b0018 	ldr	r0, [fp, #-24]
    3660:	e1a01002 	mov	r1, r2
    3664:	e1a02003 	mov	r2, r3
    3668:	ebfffec9 	bl	3194 <constrain>
    366c:	e1a03000 	mov	r3, r0
    3670:	e50b3018 	str	r3, [fp, #-24]
    }


    pid->prevError = pid->error;
    3674:	e51b301c 	ldr	r3, [fp, #-28]
    3678:	e5932004 	ldr	r2, [r3, #4]
    367c:	e51b301c 	ldr	r3, [fp, #-28]
    3680:	e5832008 	str	r2, [r3, #8]

    return output;
    3684:	e51b3018 	ldr	r3, [fp, #-24]
}
    3688:	e1a00003 	mov	r0, r3
    368c:	e24bd010 	sub	sp, fp, #16
    3690:	e89d6810 	ldm	sp, {r4, fp, sp, lr}
    3694:	e12fff1e 	bx	lr
    3698:	00000000 	.word	0x00000000

0000369c <pidSetIntegralLimit>:

void pidSetIntegralLimit(PidObject* pid, const float limit) {
    369c:	e1a0c00d 	mov	ip, sp
    36a0:	e92dd800 	push	{fp, ip, lr, pc}
    36a4:	e24cb004 	sub	fp, ip, #4
    36a8:	e24dd008 	sub	sp, sp, #8
    36ac:	e50b0010 	str	r0, [fp, #-16]
    36b0:	e50b1014 	str	r1, [fp, #-20]
    pid->iLimit = limit;
    36b4:	e51b2010 	ldr	r2, [fp, #-16]
    36b8:	e51b3014 	ldr	r3, [fp, #-20]
    36bc:	e582302c 	str	r3, [r2, #44]	; 0x2c
}
    36c0:	e24bd00c 	sub	sp, fp, #12
    36c4:	e89d6800 	ldm	sp, {fp, sp, lr}
    36c8:	e12fff1e 	bx	lr

000036cc <pidReset>:


void pidReset(PidObject* pid)
{
    36cc:	e1a0c00d 	mov	ip, sp
    36d0:	e92dd800 	push	{fp, ip, lr, pc}
    36d4:	e24cb004 	sub	fp, ip, #4
    36d8:	e24dd004 	sub	sp, sp, #4
    36dc:	e50b0010 	str	r0, [fp, #-16]
  pid->error     = 0;
    36e0:	e51b2010 	ldr	r2, [fp, #-16]
    36e4:	e59f3030 	ldr	r3, [pc, #48]	; 371c <pidReset+0x50>
    36e8:	e5823004 	str	r3, [r2, #4]
  pid->prevError = 0;
    36ec:	e51b2010 	ldr	r2, [fp, #-16]
    36f0:	e59f3024 	ldr	r3, [pc, #36]	; 371c <pidReset+0x50>
    36f4:	e5823008 	str	r3, [r2, #8]
  pid->integ     = 0;
    36f8:	e51b2010 	ldr	r2, [fp, #-16]
    36fc:	e59f3018 	ldr	r3, [pc, #24]	; 371c <pidReset+0x50>
    3700:	e582300c 	str	r3, [r2, #12]
  pid->deriv     = 0;
    3704:	e51b2010 	ldr	r2, [fp, #-16]
    3708:	e59f300c 	ldr	r3, [pc, #12]	; 371c <pidReset+0x50>
    370c:	e5823010 	str	r3, [r2, #16]
}
    3710:	e24bd00c 	sub	sp, fp, #12
    3714:	e89d6800 	ldm	sp, {fp, sp, lr}
    3718:	e12fff1e 	bx	lr
    371c:	00000000 	.word	0x00000000

00003720 <pidSetError>:

void pidSetError(PidObject* pid, const float error)
{
    3720:	e1a0c00d 	mov	ip, sp
    3724:	e92dd800 	push	{fp, ip, lr, pc}
    3728:	e24cb004 	sub	fp, ip, #4
    372c:	e24dd008 	sub	sp, sp, #8
    3730:	e50b0010 	str	r0, [fp, #-16]
    3734:	e50b1014 	str	r1, [fp, #-20]
  pid->error = error;
    3738:	e51b2010 	ldr	r2, [fp, #-16]
    373c:	e51b3014 	ldr	r3, [fp, #-20]
    3740:	e5823004 	str	r3, [r2, #4]
}
    3744:	e24bd00c 	sub	sp, fp, #12
    3748:	e89d6800 	ldm	sp, {fp, sp, lr}
    374c:	e12fff1e 	bx	lr

00003750 <pidSetDesired>:

void pidSetDesired(PidObject* pid, const float desired)
{
    3750:	e1a0c00d 	mov	ip, sp
    3754:	e92dd800 	push	{fp, ip, lr, pc}
    3758:	e24cb004 	sub	fp, ip, #4
    375c:	e24dd008 	sub	sp, sp, #8
    3760:	e50b0010 	str	r0, [fp, #-16]
    3764:	e50b1014 	str	r1, [fp, #-20]
  pid->desired = desired;
    3768:	e51b2010 	ldr	r2, [fp, #-16]
    376c:	e51b3014 	ldr	r3, [fp, #-20]
    3770:	e5823000 	str	r3, [r2]
}
    3774:	e24bd00c 	sub	sp, fp, #12
    3778:	e89d6800 	ldm	sp, {fp, sp, lr}
    377c:	e12fff1e 	bx	lr

00003780 <pidGetDesired>:

float pidGetDesired(PidObject* pid)
{
    3780:	e1a0c00d 	mov	ip, sp
    3784:	e92dd800 	push	{fp, ip, lr, pc}
    3788:	e24cb004 	sub	fp, ip, #4
    378c:	e24dd004 	sub	sp, sp, #4
    3790:	e50b0010 	str	r0, [fp, #-16]
  return pid->desired;
    3794:	e51b3010 	ldr	r3, [fp, #-16]
    3798:	e5933000 	ldr	r3, [r3]
}
    379c:	e1a00003 	mov	r0, r3
    37a0:	e24bd00c 	sub	sp, fp, #12
    37a4:	e89d6800 	ldm	sp, {fp, sp, lr}
    37a8:	e12fff1e 	bx	lr

000037ac <pidIsActive>:

unsigned char pidIsActive(PidObject* pid)
{
    37ac:	e1a0c00d 	mov	ip, sp
    37b0:	e92dd810 	push	{r4, fp, ip, lr, pc}
    37b4:	e24cb004 	sub	fp, ip, #4
    37b8:	e24dd008 	sub	sp, sp, #8
    37bc:	e50b0018 	str	r0, [fp, #-24]
	unsigned char isActive = 1;
    37c0:	e3a03001 	mov	r3, #1
    37c4:	e54b3011 	strb	r3, [fp, #-17]

  if (pid->kp < 0.0001&& pid->ki < 0.0001&& pid->kd < 0.0001)
    37c8:	e51b3018 	ldr	r3, [fp, #-24]
    37cc:	e5933014 	ldr	r3, [r3, #20]
    37d0:	e1a00003 	mov	r0, r3
    37d4:	eb0017da 	bl	9744 <__aeabi_f2d>
    37d8:	e1a03000 	mov	r3, r0
    37dc:	e1a04001 	mov	r4, r1
    37e0:	e1a00003 	mov	r0, r3
    37e4:	e1a01004 	mov	r1, r4
    37e8:	e28f20a8 	add	r2, pc, #168	; 0xa8
    37ec:	e892000c 	ldm	r2, {r2, r3}
    37f0:	eb00192c 	bl	9ca8 <__ledf2>
    37f4:	e1a03000 	mov	r3, r0
    37f8:	e3530000 	cmp	r3, #0
    37fc:	ba000000 	blt	3804 <pidIsActive+0x58>
    3800:	ea00001f 	b	3884 <pidIsActive+0xd8>
    3804:	e51b3018 	ldr	r3, [fp, #-24]
    3808:	e5933018 	ldr	r3, [r3, #24]
    380c:	e1a00003 	mov	r0, r3
    3810:	eb0017cb 	bl	9744 <__aeabi_f2d>
    3814:	e1a03000 	mov	r3, r0
    3818:	e1a04001 	mov	r4, r1
    381c:	e1a00003 	mov	r0, r3
    3820:	e1a01004 	mov	r1, r4
    3824:	e28f206c 	add	r2, pc, #108	; 0x6c
    3828:	e892000c 	ldm	r2, {r2, r3}
    382c:	eb00191d 	bl	9ca8 <__ledf2>
    3830:	e1a03000 	mov	r3, r0
    3834:	e3530000 	cmp	r3, #0
    3838:	ba000000 	blt	3840 <pidIsActive+0x94>
    383c:	ea000010 	b	3884 <pidIsActive+0xd8>
    3840:	e51b3018 	ldr	r3, [fp, #-24]
    3844:	e593301c 	ldr	r3, [r3, #28]
    3848:	e1a00003 	mov	r0, r3
    384c:	eb0017bc 	bl	9744 <__aeabi_f2d>
    3850:	e1a03000 	mov	r3, r0
    3854:	e1a04001 	mov	r4, r1
    3858:	e1a00003 	mov	r0, r3
    385c:	e1a01004 	mov	r1, r4
    3860:	e28f2030 	add	r2, pc, #48	; 0x30
    3864:	e892000c 	ldm	r2, {r2, r3}
    3868:	eb00190e 	bl	9ca8 <__ledf2>
    386c:	e1a03000 	mov	r3, r0
    3870:	e3530000 	cmp	r3, #0
    3874:	ba000000 	blt	387c <pidIsActive+0xd0>
    3878:	ea000001 	b	3884 <pidIsActive+0xd8>
  {
    isActive = 0;
    387c:	e3a03000 	mov	r3, #0
    3880:	e54b3011 	strb	r3, [fp, #-17]
  }

  return isActive;
    3884:	e55b3011 	ldrb	r3, [fp, #-17]
}
    3888:	e1a00003 	mov	r0, r3
    388c:	e24bd010 	sub	sp, fp, #16
    3890:	e89d6810 	ldm	sp, {r4, fp, sp, lr}
    3894:	e12fff1e 	bx	lr
    3898:	3f1a36e2 	.word	0x3f1a36e2
    389c:	eb1c432d 	.word	0xeb1c432d

000038a0 <pidSetKp>:

void pidSetKp(PidObject* pid, const float kp)
{
    38a0:	e1a0c00d 	mov	ip, sp
    38a4:	e92dd800 	push	{fp, ip, lr, pc}
    38a8:	e24cb004 	sub	fp, ip, #4
    38ac:	e24dd008 	sub	sp, sp, #8
    38b0:	e50b0010 	str	r0, [fp, #-16]
    38b4:	e50b1014 	str	r1, [fp, #-20]
  pid->kp = kp;
    38b8:	e51b2010 	ldr	r2, [fp, #-16]
    38bc:	e51b3014 	ldr	r3, [fp, #-20]
    38c0:	e5823014 	str	r3, [r2, #20]
}
    38c4:	e24bd00c 	sub	sp, fp, #12
    38c8:	e89d6800 	ldm	sp, {fp, sp, lr}
    38cc:	e12fff1e 	bx	lr

000038d0 <pidSetKi>:

void pidSetKi(PidObject* pid, const float ki)
{
    38d0:	e1a0c00d 	mov	ip, sp
    38d4:	e92dd800 	push	{fp, ip, lr, pc}
    38d8:	e24cb004 	sub	fp, ip, #4
    38dc:	e24dd008 	sub	sp, sp, #8
    38e0:	e50b0010 	str	r0, [fp, #-16]
    38e4:	e50b1014 	str	r1, [fp, #-20]
  pid->ki = ki;
    38e8:	e51b2010 	ldr	r2, [fp, #-16]
    38ec:	e51b3014 	ldr	r3, [fp, #-20]
    38f0:	e5823018 	str	r3, [r2, #24]
}
    38f4:	e24bd00c 	sub	sp, fp, #12
    38f8:	e89d6800 	ldm	sp, {fp, sp, lr}
    38fc:	e12fff1e 	bx	lr

00003900 <pidSetKd>:

void pidSetKd(PidObject* pid, const float kd)
{
    3900:	e1a0c00d 	mov	ip, sp
    3904:	e92dd800 	push	{fp, ip, lr, pc}
    3908:	e24cb004 	sub	fp, ip, #4
    390c:	e24dd008 	sub	sp, sp, #8
    3910:	e50b0010 	str	r0, [fp, #-16]
    3914:	e50b1014 	str	r1, [fp, #-20]
  pid->kd = kd;
    3918:	e51b2010 	ldr	r2, [fp, #-16]
    391c:	e51b3014 	ldr	r3, [fp, #-20]
    3920:	e582301c 	str	r3, [r2, #28]
}
    3924:	e24bd00c 	sub	sp, fp, #12
    3928:	e89d6800 	ldm	sp, {fp, sp, lr}
    392c:	e12fff1e 	bx	lr

00003930 <pidSetDt>:
void pidSetDt(PidObject* pid, const float dt) {
    3930:	e1a0c00d 	mov	ip, sp
    3934:	e92dd800 	push	{fp, ip, lr, pc}
    3938:	e24cb004 	sub	fp, ip, #4
    393c:	e24dd008 	sub	sp, sp, #8
    3940:	e50b0010 	str	r0, [fp, #-16]
    3944:	e50b1014 	str	r1, [fp, #-20]
    pid->dt = dt;
    3948:	e51b2010 	ldr	r2, [fp, #-16]
    394c:	e51b3014 	ldr	r3, [fp, #-20]
    3950:	e5823034 	str	r3, [r2, #52]	; 0x34
}
    3954:	e24bd00c 	sub	sp, fp, #12
    3958:	e89d6800 	ldm	sp, {fp, sp, lr}
    395c:	e12fff1e 	bx	lr

00003960 <positionEstimate>:

void positionEstimate(state_t* estimate,
		const float vicon_data,
		const long timestamp,
		EstimateParams* params,
		const float dt){
    3960:	e1a0c00d 	mov	ip, sp
    3964:	e92dd810 	push	{r4, fp, ip, lr, pc}
    3968:	e24cb004 	sub	fp, ip, #4
    396c:	e24dd014 	sub	sp, sp, #20
    3970:	e50b0018 	str	r0, [fp, #-24]
    3974:	e50b101c 	str	r1, [fp, #-28]
    3978:	e50b2020 	str	r2, [fp, #-32]
    397c:	e50b3024 	str	r3, [fp, #-36]	; 0x24
	float filteredZ;
	static float prev_estimatedZ=0;
	static int estimateMode=0;
	if(estimate->timestamp==timestamp){
    3980:	e51b3018 	ldr	r3, [fp, #-24]
    3984:	e5932028 	ldr	r2, [r3, #40]	; 0x28
    3988:	e51b3020 	ldr	r3, [fp, #-32]
    398c:	e1520003 	cmp	r2, r3
    3990:	1a000025 	bne	3a2c <positionEstimate+0xcc>
		filteredZ=(params->alpha)*params->estimatedZ
    3994:	e51b3024 	ldr	r3, [fp, #-36]	; 0x24
    3998:	e5932000 	ldr	r2, [r3]
    399c:	e51b3024 	ldr	r3, [fp, #-36]	; 0x24
    39a0:	e5933004 	ldr	r3, [r3, #4]
    39a4:	e1a00002 	mov	r0, r2
    39a8:	e1a01003 	mov	r1, r3
    39ac:	eb0019cd 	bl	a0e8 <__aeabi_fmul>
    39b0:	e1a03000 	mov	r3, r0
    39b4:	e1a04003 	mov	r4, r3
    39b8:	e51b3024 	ldr	r3, [fp, #-36]	; 0x24
    39bc:	e5933000 	ldr	r3, [r3]
    39c0:	e59f00ac 	ldr	r0, [pc, #172]	; 3a74 <positionEstimate+0x114>
    39c4:	e1a01003 	mov	r1, r3
    39c8:	eb00191d 	bl	9e44 <__aeabi_fsub>
    39cc:	e1a03000 	mov	r3, r0
    39d0:	e1a00003 	mov	r0, r3
    39d4:	e51b101c 	ldr	r1, [fp, #-28]
    39d8:	eb0019c2 	bl	a0e8 <__aeabi_fmul>
    39dc:	e1a03000 	mov	r3, r0
    39e0:	e1a00004 	mov	r0, r4
    39e4:	e1a01003 	mov	r1, r3
    39e8:	eb001916 	bl	9e48 <__addsf3>
    39ec:	e1a03000 	mov	r3, r0
    39f0:	e50b3014 	str	r3, [fp, #-20]
				+(1.0f-params->alpha)*vicon_data;
		params->estimatedZ=filteredZ+params->estimatedVZ*dt;
    39f4:	e51b3024 	ldr	r3, [fp, #-36]	; 0x24
    39f8:	e5933008 	ldr	r3, [r3, #8]
    39fc:	e1a00003 	mov	r0, r3
    3a00:	e59b1004 	ldr	r1, [fp, #4]
    3a04:	eb0019b7 	bl	a0e8 <__aeabi_fmul>
    3a08:	e1a03000 	mov	r3, r0
    3a0c:	e1a00003 	mov	r0, r3
    3a10:	e51b1014 	ldr	r1, [fp, #-20]
    3a14:	eb00190b 	bl	9e48 <__addsf3>
    3a18:	e1a03000 	mov	r3, r0
    3a1c:	e1a02003 	mov	r2, r3
    3a20:	e51b3024 	ldr	r3, [fp, #-36]	; 0x24
    3a24:	e5832004 	str	r2, [r3, #4]
    3a28:	ea00000e 	b	3a68 <positionEstimate+0x108>
	}else{
		if(params->estimatedZ==0.0f){
    3a2c:	e51b3024 	ldr	r3, [fp, #-36]	; 0x24
    3a30:	e5933004 	ldr	r3, [r3, #4]
    3a34:	e1a00003 	mov	r0, r3
    3a38:	e59f1038 	ldr	r1, [pc, #56]	; 3a78 <positionEstimate+0x118>
    3a3c:	eb001a6b 	bl	a3f0 <__cmpsf2>
    3a40:	e1a03000 	mov	r3, r0
    3a44:	e3530000 	cmp	r3, #0
    3a48:	0a000000 	beq	3a50 <positionEstimate+0xf0>
    3a4c:	ea000002 	b	3a5c <positionEstimate+0xfc>
			filteredZ=vicon_data;
    3a50:	e51b301c 	ldr	r3, [fp, #-28]
    3a54:	e50b3014 	str	r3, [fp, #-20]
    3a58:	ea000002 	b	3a68 <positionEstimate+0x108>
		}else{
			filteredZ=(params->alpha);
    3a5c:	e51b3024 	ldr	r3, [fp, #-36]	; 0x24
    3a60:	e5933000 	ldr	r3, [r3]
    3a64:	e50b3014 	str	r3, [fp, #-20]
		}
	}
}
    3a68:	e24bd010 	sub	sp, fp, #16
    3a6c:	e89d6810 	ldm	sp, {r4, fp, sp, lr}
    3a70:	e12fff1e 	bx	lr
    3a74:	3f800000 	.word	0x3f800000
    3a78:	00000000 	.word	0x00000000

00003a7c <positionControllerInit>:
void positionControllerInit ()
{
    3a7c:	e1a0c00d 	mov	ip, sp
    3a80:	e92dd800 	push	{fp, ip, lr, pc}
    3a84:	e24cb004 	sub	fp, ip, #4
    3a88:	e24dd008 	sub	sp, sp, #8
  pidInit(&my_this.pidX.pid, my_this.pidX.setpoint, my_this.pidX.init.kp, my_this.pidX.init.ki, my_this.pidX.init.kd,
    3a8c:	e59f3184 	ldr	r3, [pc, #388]	; 3c18 <positionControllerInit+0x19c>
    3a90:	e5931128 	ldr	r1, [r3, #296]	; 0x128
    3a94:	e59f317c 	ldr	r3, [pc, #380]	; 3c18 <positionControllerInit+0x19c>
    3a98:	e593e11c 	ldr	lr, [r3, #284]	; 0x11c
    3a9c:	e59f3174 	ldr	r3, [pc, #372]	; 3c18 <positionControllerInit+0x19c>
    3aa0:	e593c120 	ldr	ip, [r3, #288]	; 0x120
    3aa4:	e59f316c 	ldr	r3, [pc, #364]	; 3c18 <positionControllerInit+0x19c>
    3aa8:	e5932124 	ldr	r2, [r3, #292]	; 0x124
    3aac:	e59f3164 	ldr	r3, [pc, #356]	; 3c18 <positionControllerInit+0x19c>
    3ab0:	e5933118 	ldr	r3, [r3, #280]	; 0x118
    3ab4:	e58d2000 	str	r2, [sp]
    3ab8:	e58d3004 	str	r3, [sp, #4]
    3abc:	e59f0158 	ldr	r0, [pc, #344]	; 3c1c <positionControllerInit+0x1a0>
    3ac0:	e1a0200e 	mov	r2, lr
    3ac4:	e1a0300c 	mov	r3, ip
    3ac8:	ebfffe12 	bl	3318 <pidInit>
      my_this.pidX.pid.dt);
  pidInit(&my_this.pidY.pid, my_this.pidY.setpoint, my_this.pidY.init.kp, my_this.pidY.init.ki, my_this.pidY.init.kd,
    3acc:	e59f3144 	ldr	r3, [pc, #324]	; 3c18 <positionControllerInit+0x19c>
    3ad0:	e59311c0 	ldr	r1, [r3, #448]	; 0x1c0
    3ad4:	e59f313c 	ldr	r3, [pc, #316]	; 3c18 <positionControllerInit+0x19c>
    3ad8:	e593e1b4 	ldr	lr, [r3, #436]	; 0x1b4
    3adc:	e59f3134 	ldr	r3, [pc, #308]	; 3c18 <positionControllerInit+0x19c>
    3ae0:	e593c1b8 	ldr	ip, [r3, #440]	; 0x1b8
    3ae4:	e59f312c 	ldr	r3, [pc, #300]	; 3c18 <positionControllerInit+0x19c>
    3ae8:	e59321bc 	ldr	r2, [r3, #444]	; 0x1bc
    3aec:	e59f3124 	ldr	r3, [pc, #292]	; 3c18 <positionControllerInit+0x19c>
    3af0:	e59331b0 	ldr	r3, [r3, #432]	; 0x1b0
    3af4:	e58d2000 	str	r2, [sp]
    3af8:	e58d3004 	str	r3, [sp, #4]
    3afc:	e59f011c 	ldr	r0, [pc, #284]	; 3c20 <positionControllerInit+0x1a4>
    3b00:	e1a0200e 	mov	r2, lr
    3b04:	e1a0300c 	mov	r3, ip
    3b08:	ebfffe02 	bl	3318 <pidInit>
      my_this.pidY.pid.dt);
  pidInit(&my_this.pidZ.pid, my_this.pidZ.setpoint, my_this.pidZ.init.kp, my_this.pidZ.init.ki, my_this.pidZ.init.kd,
    3b0c:	e59f3104 	ldr	r3, [pc, #260]	; 3c18 <positionControllerInit+0x19c>
    3b10:	e5931090 	ldr	r1, [r3, #144]	; 0x90
    3b14:	e59f30fc 	ldr	r3, [pc, #252]	; 3c18 <positionControllerInit+0x19c>
    3b18:	e593e084 	ldr	lr, [r3, #132]	; 0x84
    3b1c:	e59f30f4 	ldr	r3, [pc, #244]	; 3c18 <positionControllerInit+0x19c>
    3b20:	e593c088 	ldr	ip, [r3, #136]	; 0x88
    3b24:	e59f30ec 	ldr	r3, [pc, #236]	; 3c18 <positionControllerInit+0x19c>
    3b28:	e593208c 	ldr	r2, [r3, #140]	; 0x8c
    3b2c:	e59f30e4 	ldr	r3, [pc, #228]	; 3c18 <positionControllerInit+0x19c>
    3b30:	e5933080 	ldr	r3, [r3, #128]	; 0x80
    3b34:	e58d2000 	str	r2, [sp]
    3b38:	e58d3004 	str	r3, [sp, #4]
    3b3c:	e59f00e0 	ldr	r0, [pc, #224]	; 3c24 <positionControllerInit+0x1a8>
    3b40:	e1a0200e 	mov	r2, lr
    3b44:	e1a0300c 	mov	r3, ip
    3b48:	ebfffdf2 	bl	3318 <pidInit>
      my_this.pidZ.pid.dt);

  pidInit(&my_this.pidVX.pid, my_this.pidVX.setpoint, my_this.pidVX.init.kp, my_this.pidVX.init.ki, my_this.pidVX.init.kd,
    3b4c:	e59f30c4 	ldr	r3, [pc, #196]	; 3c18 <positionControllerInit+0x19c>
    3b50:	e59310dc 	ldr	r1, [r3, #220]	; 0xdc
    3b54:	e59f30bc 	ldr	r3, [pc, #188]	; 3c18 <positionControllerInit+0x19c>
    3b58:	e593e0d0 	ldr	lr, [r3, #208]	; 0xd0
    3b5c:	e59f30b4 	ldr	r3, [pc, #180]	; 3c18 <positionControllerInit+0x19c>
    3b60:	e593c0d4 	ldr	ip, [r3, #212]	; 0xd4
    3b64:	e59f30ac 	ldr	r3, [pc, #172]	; 3c18 <positionControllerInit+0x19c>
    3b68:	e59320d8 	ldr	r2, [r3, #216]	; 0xd8
    3b6c:	e59f30a4 	ldr	r3, [pc, #164]	; 3c18 <positionControllerInit+0x19c>
    3b70:	e59330cc 	ldr	r3, [r3, #204]	; 0xcc
    3b74:	e58d2000 	str	r2, [sp]
    3b78:	e58d3004 	str	r3, [sp, #4]
    3b7c:	e59f00a4 	ldr	r0, [pc, #164]	; 3c28 <positionControllerInit+0x1ac>
    3b80:	e1a0200e 	mov	r2, lr
    3b84:	e1a0300c 	mov	r3, ip
    3b88:	ebfffde2 	bl	3318 <pidInit>
      my_this.pidVX.pid.dt);
  pidInit(&my_this.pidVY.pid, my_this.pidVY.setpoint, my_this.pidVY.init.kp, my_this.pidVY.init.ki, my_this.pidVY.init.kd,
    3b8c:	e59f3084 	ldr	r3, [pc, #132]	; 3c18 <positionControllerInit+0x19c>
    3b90:	e5931174 	ldr	r1, [r3, #372]	; 0x174
    3b94:	e59f307c 	ldr	r3, [pc, #124]	; 3c18 <positionControllerInit+0x19c>
    3b98:	e593e168 	ldr	lr, [r3, #360]	; 0x168
    3b9c:	e59f3074 	ldr	r3, [pc, #116]	; 3c18 <positionControllerInit+0x19c>
    3ba0:	e593c16c 	ldr	ip, [r3, #364]	; 0x16c
    3ba4:	e59f306c 	ldr	r3, [pc, #108]	; 3c18 <positionControllerInit+0x19c>
    3ba8:	e5932170 	ldr	r2, [r3, #368]	; 0x170
    3bac:	e59f3064 	ldr	r3, [pc, #100]	; 3c18 <positionControllerInit+0x19c>
    3bb0:	e5933164 	ldr	r3, [r3, #356]	; 0x164
    3bb4:	e58d2000 	str	r2, [sp]
    3bb8:	e58d3004 	str	r3, [sp, #4]
    3bbc:	e59f0068 	ldr	r0, [pc, #104]	; 3c2c <positionControllerInit+0x1b0>
    3bc0:	e1a0200e 	mov	r2, lr
    3bc4:	e1a0300c 	mov	r3, ip
    3bc8:	ebfffdd2 	bl	3318 <pidInit>
      my_this.pidVY.pid.dt);
  pidInit(&my_this.pidVZ.pid, my_this.pidVZ.setpoint, my_this.pidVZ.init.kp, my_this.pidVZ.init.ki, my_this.pidVZ.init.kd,
    3bcc:	e59f3044 	ldr	r3, [pc, #68]	; 3c18 <positionControllerInit+0x19c>
    3bd0:	e5931044 	ldr	r1, [r3, #68]	; 0x44
    3bd4:	e59f303c 	ldr	r3, [pc, #60]	; 3c18 <positionControllerInit+0x19c>
    3bd8:	e593e038 	ldr	lr, [r3, #56]	; 0x38
    3bdc:	e59f3034 	ldr	r3, [pc, #52]	; 3c18 <positionControllerInit+0x19c>
    3be0:	e593c03c 	ldr	ip, [r3, #60]	; 0x3c
    3be4:	e59f302c 	ldr	r3, [pc, #44]	; 3c18 <positionControllerInit+0x19c>
    3be8:	e5932040 	ldr	r2, [r3, #64]	; 0x40
    3bec:	e59f3024 	ldr	r3, [pc, #36]	; 3c18 <positionControllerInit+0x19c>
    3bf0:	e5933034 	ldr	r3, [r3, #52]	; 0x34
    3bf4:	e58d2000 	str	r2, [sp]
    3bf8:	e58d3004 	str	r3, [sp, #4]
    3bfc:	e59f0014 	ldr	r0, [pc, #20]	; 3c18 <positionControllerInit+0x19c>
    3c00:	e1a0200e 	mov	r2, lr
    3c04:	e1a0300c 	mov	r3, ip
    3c08:	ebfffdc2 	bl	3318 <pidInit>
      my_this.pidVZ.pid.dt);

}
    3c0c:	e24bd00c 	sub	sp, fp, #12
    3c10:	e89d6800 	ldm	sp, {fp, sp, lr}
    3c14:	e12fff1e 	bx	lr
    3c18:	4000004c 	.word	0x4000004c
    3c1c:	40000130 	.word	0x40000130
    3c20:	400001c8 	.word	0x400001c8
    3c24:	40000098 	.word	0x40000098
    3c28:	400000e4 	.word	0x400000e4
    3c2c:	4000017c 	.word	0x4000017c

00003c30 <runPid>:

float runPid(float input, struct pidAxis_s *axis,  float setpoint, float dt) {
    3c30:	e1a0c00d 	mov	ip, sp
    3c34:	e92dd800 	push	{fp, ip, lr, pc}
    3c38:	e24cb004 	sub	fp, ip, #4
    3c3c:	e24dd010 	sub	sp, sp, #16
    3c40:	e50b0010 	str	r0, [fp, #-16]
    3c44:	e50b1014 	str	r1, [fp, #-20]
    3c48:	e50b2018 	str	r2, [fp, #-24]
    3c4c:	e50b301c 	str	r3, [fp, #-28]
  axis->setpoint = setpoint;
    3c50:	e51b2014 	ldr	r2, [fp, #-20]
    3c54:	e51b3018 	ldr	r3, [fp, #-24]
    3c58:	e5823044 	str	r3, [r2, #68]	; 0x44
  pidSetDesired(&(axis->pid), axis->setpoint);
    3c5c:	e51b2014 	ldr	r2, [fp, #-20]
    3c60:	e51b3014 	ldr	r3, [fp, #-20]
    3c64:	e5933044 	ldr	r3, [r3, #68]	; 0x44
    3c68:	e1a00002 	mov	r0, r2
    3c6c:	e1a01003 	mov	r1, r3
    3c70:	ebfffeb6 	bl	3750 <pidSetDesired>
  return pidUpdate(&(axis->pid), input, 1);
    3c74:	e51b3014 	ldr	r3, [fp, #-20]
    3c78:	e1a00003 	mov	r0, r3
    3c7c:	e51b1010 	ldr	r1, [fp, #-16]
    3c80:	e3a02001 	mov	r2, #1
    3c84:	ebfffdd1 	bl	33d0 <pidUpdate>
    3c88:	e1a03000 	mov	r3, r0
}
    3c8c:	e1a00003 	mov	r0, r3
    3c90:	e24bd00c 	sub	sp, fp, #12
    3c94:	e89d6800 	ldm	sp, {fp, sp, lr}
    3c98:	e12fff1e 	bx	lr

00003c9c <data_fusion>:
float data_fusion(int flag,float vicon_z,int acc_z){
    3c9c:	e1a0c00d 	mov	ip, sp
    3ca0:	e92dd800 	push	{fp, ip, lr, pc}
    3ca4:	e24cb004 	sub	fp, ip, #4
    3ca8:	e24dd010 	sub	sp, sp, #16
    3cac:	e50b0014 	str	r0, [fp, #-20]
    3cb0:	e50b1018 	str	r1, [fp, #-24]
    3cb4:	e50b201c 	str	r2, [fp, #-28]
	static float result=0;
	static float acc_get_vel=0;
	static float acc_get_pos=0;
	float acc;
	acc=(acc_z-10000)/GRAVITY_ACC;
    3cb8:	e51b301c 	ldr	r3, [fp, #-28]
    3cbc:	e2433c27 	sub	r3, r3, #9984	; 0x2700
    3cc0:	e2433010 	sub	r3, r3, #16
    3cc4:	e1a00003 	mov	r0, r3
    3cc8:	eb0018cf 	bl	a00c <__aeabi_i2f>
    3ccc:	e1a03000 	mov	r3, r0
    3cd0:	e1a00003 	mov	r0, r3
    3cd4:	e59f10fc 	ldr	r1, [pc, #252]	; 3dd8 <data_fusion+0x13c>
    3cd8:	eb001968 	bl	a280 <__aeabi_fdiv>
    3cdc:	e1a03000 	mov	r3, r0
    3ce0:	e50b3010 	str	r3, [fp, #-16]
	if(flag==1){
    3ce4:	e51b3014 	ldr	r3, [fp, #-20]
    3ce8:	e3530001 	cmp	r3, #1
    3cec:	1a000009 	bne	3d18 <data_fusion+0x7c>
		result=vicon_z;
    3cf0:	e59f20e4 	ldr	r2, [pc, #228]	; 3ddc <data_fusion+0x140>
    3cf4:	e51b3018 	ldr	r3, [fp, #-24]
    3cf8:	e5823000 	str	r3, [r2]
		acc_get_vel=0;
    3cfc:	e59f20dc 	ldr	r2, [pc, #220]	; 3de0 <data_fusion+0x144>
    3d00:	e59f30dc 	ldr	r3, [pc, #220]	; 3de4 <data_fusion+0x148>
    3d04:	e5823000 	str	r3, [r2]
		acc_get_pos=0;
    3d08:	e59f20d8 	ldr	r2, [pc, #216]	; 3de8 <data_fusion+0x14c>
    3d0c:	e59f30d0 	ldr	r3, [pc, #208]	; 3de4 <data_fusion+0x148>
    3d10:	e5823000 	str	r3, [r2]
    3d14:	ea000029 	b	3dc0 <data_fusion+0x124>
	}else if(flag==0){
    3d18:	e51b3014 	ldr	r3, [fp, #-20]
    3d1c:	e3530000 	cmp	r3, #0
    3d20:	1a000026 	bne	3dc0 <data_fusion+0x124>
		acc_get_vel+=acc_z*DT;
    3d24:	e51b001c 	ldr	r0, [fp, #-28]
    3d28:	eb0018b7 	bl	a00c <__aeabi_i2f>
    3d2c:	e1a03000 	mov	r3, r0
    3d30:	e1a00003 	mov	r0, r3
    3d34:	e59f10b0 	ldr	r1, [pc, #176]	; 3dec <data_fusion+0x150>
    3d38:	eb0018ea 	bl	a0e8 <__aeabi_fmul>
    3d3c:	e1a03000 	mov	r3, r0
    3d40:	e1a02003 	mov	r2, r3
    3d44:	e59f3094 	ldr	r3, [pc, #148]	; 3de0 <data_fusion+0x144>
    3d48:	e5933000 	ldr	r3, [r3]
    3d4c:	e1a00002 	mov	r0, r2
    3d50:	e1a01003 	mov	r1, r3
    3d54:	eb00183b 	bl	9e48 <__addsf3>
    3d58:	e1a03000 	mov	r3, r0
    3d5c:	e1a02003 	mov	r2, r3
    3d60:	e59f3078 	ldr	r3, [pc, #120]	; 3de0 <data_fusion+0x144>
    3d64:	e5832000 	str	r2, [r3]
		acc_get_pos+=acc_get_vel;
    3d68:	e59f3078 	ldr	r3, [pc, #120]	; 3de8 <data_fusion+0x14c>
    3d6c:	e5932000 	ldr	r2, [r3]
    3d70:	e59f3068 	ldr	r3, [pc, #104]	; 3de0 <data_fusion+0x144>
    3d74:	e5933000 	ldr	r3, [r3]
    3d78:	e1a00002 	mov	r0, r2
    3d7c:	e1a01003 	mov	r1, r3
    3d80:	eb001830 	bl	9e48 <__addsf3>
    3d84:	e1a03000 	mov	r3, r0
    3d88:	e1a02003 	mov	r2, r3
    3d8c:	e59f3054 	ldr	r3, [pc, #84]	; 3de8 <data_fusion+0x14c>
    3d90:	e5832000 	str	r2, [r3]
		result+=acc_get_pos;
    3d94:	e59f3040 	ldr	r3, [pc, #64]	; 3ddc <data_fusion+0x140>
    3d98:	e5932000 	ldr	r2, [r3]
    3d9c:	e59f3044 	ldr	r3, [pc, #68]	; 3de8 <data_fusion+0x14c>
    3da0:	e5933000 	ldr	r3, [r3]
    3da4:	e1a00002 	mov	r0, r2
    3da8:	e1a01003 	mov	r1, r3
    3dac:	eb001825 	bl	9e48 <__addsf3>
    3db0:	e1a03000 	mov	r3, r0
    3db4:	e1a02003 	mov	r2, r3
    3db8:	e59f301c 	ldr	r3, [pc, #28]	; 3ddc <data_fusion+0x140>
    3dbc:	e5832000 	str	r2, [r3]
	}
	return result;
    3dc0:	e59f3014 	ldr	r3, [pc, #20]	; 3ddc <data_fusion+0x140>
    3dc4:	e5933000 	ldr	r3, [r3]
}
    3dc8:	e1a00003 	mov	r0, r3
    3dcc:	e24bd00c 	sub	sp, fp, #12
    3dd0:	e89d6800 	ldm	sp, {fp, sp, lr}
    3dd4:	e12fff1e 	bx	lr
    3dd8:	411c3958 	.word	0x411c3958
    3ddc:	40000e08 	.word	0x40000e08
    3de0:	40000e04 	.word	0x40000e04
    3de4:	00000000 	.word	0x00000000
    3de8:	40000e00 	.word	0x40000e00
    3dec:	3c23d70a 	.word	0x3c23d70a

00003df0 <positionController>:
void positionController(float* thrust,float* pitch,float* roll,
                                                             const state_t *state)
{
    3df0:	e1a0c00d 	mov	ip, sp
    3df4:	e92dd810 	push	{r4, fp, ip, lr, pc}
    3df8:	e24cb004 	sub	fp, ip, #4
    3dfc:	e24dd028 	sub	sp, sp, #40	; 0x28
    3e00:	e50b0024 	str	r0, [fp, #-36]	; 0x24
    3e04:	e50b1028 	str	r1, [fp, #-40]	; 0x28
    3e08:	e50b202c 	str	r2, [fp, #-44]	; 0x2c
    3e0c:	e50b3030 	str	r3, [fp, #-48]	; 0x30
	float thrustRaw;
	static int y_temp=-1000;
	my_this.pidX.pid.outputLimit = xyVelMax  * velMaxOverhead;
    3e10:	e59f3428 	ldr	r3, [pc, #1064]	; 4240 <positionController+0x450>
    3e14:	e5932000 	ldr	r2, [r3]
    3e18:	e59f3424 	ldr	r3, [pc, #1060]	; 4244 <positionController+0x454>
    3e1c:	e5933000 	ldr	r3, [r3]
    3e20:	e1a00002 	mov	r0, r2
    3e24:	e1a01003 	mov	r1, r3
    3e28:	eb0018ae 	bl	a0e8 <__aeabi_fmul>
    3e2c:	e1a03000 	mov	r3, r0
    3e30:	e1a02003 	mov	r2, r3
    3e34:	e59f340c 	ldr	r3, [pc, #1036]	; 4248 <positionController+0x458>
    3e38:	e5832114 	str	r2, [r3, #276]	; 0x114
	my_this.pidY.pid.outputLimit =  xyVelMax  * velMaxOverhead;
    3e3c:	e59f33fc 	ldr	r3, [pc, #1020]	; 4240 <positionController+0x450>
    3e40:	e5932000 	ldr	r2, [r3]
    3e44:	e59f33f8 	ldr	r3, [pc, #1016]	; 4244 <positionController+0x454>
    3e48:	e5933000 	ldr	r3, [r3]
    3e4c:	e1a00002 	mov	r0, r2
    3e50:	e1a01003 	mov	r1, r3
    3e54:	eb0018a3 	bl	a0e8 <__aeabi_fmul>
    3e58:	e1a03000 	mov	r3, r0
    3e5c:	e1a02003 	mov	r2, r3
    3e60:	e59f33e0 	ldr	r3, [pc, #992]	; 4248 <positionController+0x458>
    3e64:	e58321ac 	str	r2, [r3, #428]	; 0x1ac
    my_this.pidZ.pid.outputLimit = max(zVelMax, 200.0f)  * velMaxOverhead;
    3e68:	e59f33dc 	ldr	r3, [pc, #988]	; 424c <positionController+0x45c>
    3e6c:	e5933000 	ldr	r3, [r3]
    3e70:	e1a00003 	mov	r0, r3
    3e74:	e59f13d4 	ldr	r1, [pc, #980]	; 4250 <positionController+0x460>
    3e78:	eb001958 	bl	a3e0 <__gesf2>
    3e7c:	e1a03000 	mov	r3, r0
    3e80:	e3530000 	cmp	r3, #0
    3e84:	ca000000 	bgt	3e8c <positionController+0x9c>
    3e88:	ea000003 	b	3e9c <positionController+0xac>
    3e8c:	e59f33b8 	ldr	r3, [pc, #952]	; 424c <positionController+0x45c>
    3e90:	e5933000 	ldr	r3, [r3]
    3e94:	e50b3038 	str	r3, [fp, #-56]	; 0x38
    3e98:	ea000001 	b	3ea4 <positionController+0xb4>
    3e9c:	e59f23ac 	ldr	r2, [pc, #940]	; 4250 <positionController+0x460>
    3ea0:	e50b2038 	str	r2, [fp, #-56]	; 0x38
    3ea4:	e59f3398 	ldr	r3, [pc, #920]	; 4244 <positionController+0x454>
    3ea8:	e5933000 	ldr	r3, [r3]
    3eac:	e51b0038 	ldr	r0, [fp, #-56]	; 0x38
    3eb0:	e1a01003 	mov	r1, r3
    3eb4:	eb00188b 	bl	a0e8 <__aeabi_fmul>
    3eb8:	e1a03000 	mov	r3, r0
    3ebc:	e1a02003 	mov	r2, r3
    3ec0:	e59f3380 	ldr	r3, [pc, #896]	; 4248 <positionController+0x458>
    3ec4:	e583207c 	str	r2, [r3, #124]	; 0x7c
//    float cosyaw = cosf(state->attitude.yaw * DEG_TO_RAD);
//    float sinyaw = sinf(state->attitude.yaw * DEG_TO_RAD);
//    float bodyvx = my_setpoint.velocity.x;
//    float bodyvy = my_setpoint.velocity.y;

    my_setpoint.velocity.x = runPid(state->position.x, &my_this.pidX, my_setpoint.position.x, DT);
    3ec8:	e51b3030 	ldr	r3, [fp, #-48]	; 0x30
    3ecc:	e5932000 	ldr	r2, [r3]
    3ed0:	e59f337c 	ldr	r3, [pc, #892]	; 4254 <positionController+0x464>
    3ed4:	e5933000 	ldr	r3, [r3]
    3ed8:	e1a00002 	mov	r0, r2
    3edc:	e59f1374 	ldr	r1, [pc, #884]	; 4258 <positionController+0x468>
    3ee0:	e1a02003 	mov	r2, r3
    3ee4:	e59f3370 	ldr	r3, [pc, #880]	; 425c <positionController+0x46c>
    3ee8:	ebffff50 	bl	3c30 <runPid>
    3eec:	e1a02000 	mov	r2, r0
    3ef0:	e59f335c 	ldr	r3, [pc, #860]	; 4254 <positionController+0x464>
    3ef4:	e583200c 	str	r2, [r3, #12]
    my_setpoint.velocity.y = runPid(state->position.y, &my_this.pidY, my_setpoint.position.y, DT);
    3ef8:	e51b3030 	ldr	r3, [fp, #-48]	; 0x30
    3efc:	e5932004 	ldr	r2, [r3, #4]
    3f00:	e59f334c 	ldr	r3, [pc, #844]	; 4254 <positionController+0x464>
    3f04:	e5933004 	ldr	r3, [r3, #4]
    3f08:	e1a00002 	mov	r0, r2
    3f0c:	e59f134c 	ldr	r1, [pc, #844]	; 4260 <positionController+0x470>
    3f10:	e1a02003 	mov	r2, r3
    3f14:	e59f3340 	ldr	r3, [pc, #832]	; 425c <positionController+0x46c>
    3f18:	ebffff44 	bl	3c30 <runPid>
    3f1c:	e1a02000 	mov	r2, r0
    3f20:	e59f332c 	ldr	r3, [pc, #812]	; 4254 <positionController+0x464>
    3f24:	e5832010 	str	r2, [r3, #16]
//    	my_setpoint.velocity.y=500;
//    }else{
//    	my_setpoint.velocity.y=-500;
//    }
//    if(y_temp>800)y_temp=0;
    my_setpoint.velocity.z = runPid(state->position.z, &my_this.pidZ, my_setpoint.position.z, DT);
    3f28:	e51b3030 	ldr	r3, [fp, #-48]	; 0x30
    3f2c:	e5932008 	ldr	r2, [r3, #8]
    3f30:	e59f331c 	ldr	r3, [pc, #796]	; 4254 <positionController+0x464>
    3f34:	e5933008 	ldr	r3, [r3, #8]
    3f38:	e1a00002 	mov	r0, r2
    3f3c:	e59f1320 	ldr	r1, [pc, #800]	; 4264 <positionController+0x474>
    3f40:	e1a02003 	mov	r2, r3
    3f44:	e59f3310 	ldr	r3, [pc, #784]	; 425c <positionController+0x46c>
    3f48:	ebffff38 	bl	3c30 <runPid>
    3f4c:	e1a02000 	mov	r2, r0
    3f50:	e59f32fc 	ldr	r3, [pc, #764]	; 4254 <positionController+0x464>
    3f54:	e5832014 	str	r2, [r3, #20]

    my_this.pidVX.pid.outputLimit = rpLimit * rpLimitOverhead;
    3f58:	e59f3308 	ldr	r3, [pc, #776]	; 4268 <positionController+0x478>
    3f5c:	e5932000 	ldr	r2, [r3]
    3f60:	e59f3304 	ldr	r3, [pc, #772]	; 426c <positionController+0x47c>
    3f64:	e5933000 	ldr	r3, [r3]
    3f68:	e1a00002 	mov	r0, r2
    3f6c:	e1a01003 	mov	r1, r3
    3f70:	eb00185c 	bl	a0e8 <__aeabi_fmul>
    3f74:	e1a03000 	mov	r3, r0
    3f78:	e1a02003 	mov	r2, r3
    3f7c:	e59f32c4 	ldr	r3, [pc, #708]	; 4248 <positionController+0x458>
    3f80:	e58320c8 	str	r2, [r3, #200]	; 0xc8
    my_this.pidVY.pid.outputLimit = rpLimit * rpLimitOverhead;
    3f84:	e59f32dc 	ldr	r3, [pc, #732]	; 4268 <positionController+0x478>
    3f88:	e5932000 	ldr	r2, [r3]
    3f8c:	e59f32d8 	ldr	r3, [pc, #728]	; 426c <positionController+0x47c>
    3f90:	e5933000 	ldr	r3, [r3]
    3f94:	e1a00002 	mov	r0, r2
    3f98:	e1a01003 	mov	r1, r3
    3f9c:	eb001851 	bl	a0e8 <__aeabi_fmul>
    3fa0:	e1a03000 	mov	r3, r0
    3fa4:	e1a02003 	mov	r2, r3
    3fa8:	e59f3298 	ldr	r3, [pc, #664]	; 4248 <positionController+0x458>
    3fac:	e5832160 	str	r2, [r3, #352]	; 0x160
    my_this.pidVZ.pid.outputLimit =250.0f;
    3fb0:	e59f2290 	ldr	r2, [pc, #656]	; 4248 <positionController+0x458>
    3fb4:	e59f32b4 	ldr	r3, [pc, #692]	; 4270 <positionController+0x480>
    3fb8:	e5823030 	str	r3, [r2, #48]	; 0x30

    float rollRaw  = runPid(state->velocity.x, &my_this.pidVX, my_setpoint.velocity.x, DT);
    3fbc:	e51b3030 	ldr	r3, [fp, #-48]	; 0x30
    3fc0:	e593200c 	ldr	r2, [r3, #12]
    3fc4:	e59f3288 	ldr	r3, [pc, #648]	; 4254 <positionController+0x464>
    3fc8:	e593300c 	ldr	r3, [r3, #12]
    3fcc:	e1a00002 	mov	r0, r2
    3fd0:	e59f129c 	ldr	r1, [pc, #668]	; 4274 <positionController+0x484>
    3fd4:	e1a02003 	mov	r2, r3
    3fd8:	e59f327c 	ldr	r3, [pc, #636]	; 425c <positionController+0x46c>
    3fdc:	ebffff13 	bl	3c30 <runPid>
    3fe0:	e1a03000 	mov	r3, r0
    3fe4:	e50b301c 	str	r3, [fp, #-28]
      float pitchRaw = runPid(state->velocity.y, &my_this.pidVY, my_setpoint.velocity.y, DT);
    3fe8:	e51b3030 	ldr	r3, [fp, #-48]	; 0x30
    3fec:	e5932010 	ldr	r2, [r3, #16]
    3ff0:	e59f325c 	ldr	r3, [pc, #604]	; 4254 <positionController+0x464>
    3ff4:	e5933010 	ldr	r3, [r3, #16]
    3ff8:	e1a00002 	mov	r0, r2
    3ffc:	e59f1274 	ldr	r1, [pc, #628]	; 4278 <positionController+0x488>
    4000:	e1a02003 	mov	r2, r3
    4004:	e59f3250 	ldr	r3, [pc, #592]	; 425c <positionController+0x46c>
    4008:	ebffff08 	bl	3c30 <runPid>
    400c:	e1a03000 	mov	r3, r0
    4010:	e50b3018 	str	r3, [fp, #-24]

     float yawRad = state->attitude.yaw ;
    4014:	e51b3030 	ldr	r3, [fp, #-48]	; 0x30
    4018:	e5933024 	ldr	r3, [r3, #36]	; 0x24
    401c:	e50b3014 	str	r3, [fp, #-20]
     // float yawRad = 0 ;
      *pitch = -(rollRaw  * cosf(yawRad)) - (pitchRaw * sinf(yawRad));
    4020:	e51b0014 	ldr	r0, [fp, #-20]
    4024:	eb003922 	bl	124b4 <__cosf_from_arm>
    4028:	e1a03000 	mov	r3, r0
    402c:	e1a00003 	mov	r0, r3
    4030:	e51b101c 	ldr	r1, [fp, #-28]
    4034:	eb00182b 	bl	a0e8 <__aeabi_fmul>
    4038:	e1a03000 	mov	r3, r0
    403c:	e2234102 	eor	r4, r3, #-2147483648	; 0x80000000
    4040:	e51b0014 	ldr	r0, [fp, #-20]
    4044:	eb00391d 	bl	124c0 <__sinf_from_arm>
    4048:	e1a03000 	mov	r3, r0
    404c:	e1a00003 	mov	r0, r3
    4050:	e51b1018 	ldr	r1, [fp, #-24]
    4054:	eb001823 	bl	a0e8 <__aeabi_fmul>
    4058:	e1a03000 	mov	r3, r0
    405c:	e1a00004 	mov	r0, r4
    4060:	e1a01003 	mov	r1, r3
    4064:	eb001776 	bl	9e44 <__aeabi_fsub>
    4068:	e1a03000 	mov	r3, r0
    406c:	e1a02003 	mov	r2, r3
    4070:	e51b3028 	ldr	r3, [fp, #-40]	; 0x28
    4074:	e5832000 	str	r2, [r3]
      *roll  = -(pitchRaw * cosf(yawRad)) + (rollRaw  * sinf(yawRad));
    4078:	e51b0014 	ldr	r0, [fp, #-20]
    407c:	eb00390f 	bl	124c0 <__sinf_from_arm>
    4080:	e1a03000 	mov	r3, r0
    4084:	e1a00003 	mov	r0, r3
    4088:	e51b101c 	ldr	r1, [fp, #-28]
    408c:	eb001815 	bl	a0e8 <__aeabi_fmul>
    4090:	e1a03000 	mov	r3, r0
    4094:	e1a04003 	mov	r4, r3
    4098:	e51b0014 	ldr	r0, [fp, #-20]
    409c:	eb003904 	bl	124b4 <__cosf_from_arm>
    40a0:	e1a03000 	mov	r3, r0
    40a4:	e1a00003 	mov	r0, r3
    40a8:	e51b1018 	ldr	r1, [fp, #-24]
    40ac:	eb00180d 	bl	a0e8 <__aeabi_fmul>
    40b0:	e1a03000 	mov	r3, r0
    40b4:	e1a00004 	mov	r0, r4
    40b8:	e1a01003 	mov	r1, r3
    40bc:	eb001760 	bl	9e44 <__aeabi_fsub>
    40c0:	e1a03000 	mov	r3, r0
    40c4:	e1a02003 	mov	r2, r3
    40c8:	e51b302c 	ldr	r3, [fp, #-44]	; 0x2c
    40cc:	e5832000 	str	r2, [r3]

      *roll  = constrain(*roll,  -rpLimit, rpLimit);
    40d0:	e51b302c 	ldr	r3, [fp, #-44]	; 0x2c
    40d4:	e5931000 	ldr	r1, [r3]
    40d8:	e59f3188 	ldr	r3, [pc, #392]	; 4268 <positionController+0x478>
    40dc:	e5933000 	ldr	r3, [r3]
    40e0:	e2232102 	eor	r2, r3, #-2147483648	; 0x80000000
    40e4:	e59f317c 	ldr	r3, [pc, #380]	; 4268 <positionController+0x478>
    40e8:	e5933000 	ldr	r3, [r3]
    40ec:	e1a00001 	mov	r0, r1
    40f0:	e1a01002 	mov	r1, r2
    40f4:	e1a02003 	mov	r2, r3
    40f8:	ebfffc25 	bl	3194 <constrain>
    40fc:	e1a02000 	mov	r2, r0
    4100:	e51b302c 	ldr	r3, [fp, #-44]	; 0x2c
    4104:	e5832000 	str	r2, [r3]
      *pitch = constrain(*pitch, -rpLimit, rpLimit);
    4108:	e51b3028 	ldr	r3, [fp, #-40]	; 0x28
    410c:	e5931000 	ldr	r1, [r3]
    4110:	e59f3150 	ldr	r3, [pc, #336]	; 4268 <positionController+0x478>
    4114:	e5933000 	ldr	r3, [r3]
    4118:	e2232102 	eor	r2, r3, #-2147483648	; 0x80000000
    411c:	e59f3144 	ldr	r3, [pc, #324]	; 4268 <positionController+0x478>
    4120:	e5933000 	ldr	r3, [r3]
    4124:	e1a00001 	mov	r0, r1
    4128:	e1a01002 	mov	r1, r2
    412c:	e1a02003 	mov	r2, r3
    4130:	ebfffc17 	bl	3194 <constrain>
    4134:	e1a02000 	mov	r2, r0
    4138:	e51b3028 	ldr	r3, [fp, #-40]	; 0x28
    413c:	e5832000 	str	r2, [r3]

    // Thrust
    thrustRaw = runPid(state->velocity.z, &my_this.pidVZ, my_setpoint.velocity.z, DT);
    4140:	e51b3030 	ldr	r3, [fp, #-48]	; 0x30
    4144:	e5932014 	ldr	r2, [r3, #20]
    4148:	e59f3104 	ldr	r3, [pc, #260]	; 4254 <positionController+0x464>
    414c:	e5933014 	ldr	r3, [r3, #20]
    4150:	e1a00002 	mov	r0, r2
    4154:	e59f10ec 	ldr	r1, [pc, #236]	; 4248 <positionController+0x458>
    4158:	e1a02003 	mov	r2, r3
    415c:	e59f30f8 	ldr	r3, [pc, #248]	; 425c <positionController+0x46c>
    4160:	ebfffeb2 	bl	3c30 <runPid>
    4164:	e1a03000 	mov	r3, r0
    4168:	e50b3020 	str	r3, [fp, #-32]
    // Scale the thrust and add feed forward term
    *thrust = thrustRaw + my_this.thrustBase;
    416c:	e59f20d4 	ldr	r2, [pc, #212]	; 4248 <positionController+0x458>
    4170:	e3a03f72 	mov	r3, #456	; 0x1c8
    4174:	e19230b3 	ldrh	r3, [r2, r3]
    4178:	e1a00003 	mov	r0, r3
    417c:	eb0017a2 	bl	a00c <__aeabi_i2f>
    4180:	e1a03000 	mov	r3, r0
    4184:	e1a00003 	mov	r0, r3
    4188:	e51b1020 	ldr	r1, [fp, #-32]
    418c:	eb00172d 	bl	9e48 <__addsf3>
    4190:	e1a03000 	mov	r3, r0
    4194:	e1a02003 	mov	r2, r3
    4198:	e51b3024 	ldr	r3, [fp, #-36]	; 0x24
    419c:	e5832000 	str	r2, [r3]
    // Check for minimum thrust
    if (*thrust < my_this.thrustMin) {
    41a0:	e51b3024 	ldr	r3, [fp, #-36]	; 0x24
    41a4:	e5934000 	ldr	r4, [r3]
    41a8:	e59f2098 	ldr	r2, [pc, #152]	; 4248 <positionController+0x458>
    41ac:	e3a03f72 	mov	r3, #456	; 0x1c8
    41b0:	e2833002 	add	r3, r3, #2
    41b4:	e19230b3 	ldrh	r3, [r2, r3]
    41b8:	e1a00003 	mov	r0, r3
    41bc:	eb001792 	bl	a00c <__aeabi_i2f>
    41c0:	e1a03000 	mov	r3, r0
    41c4:	e1a00004 	mov	r0, r4
    41c8:	e1a01003 	mov	r1, r3
    41cc:	eb001885 	bl	a3e8 <__lesf2>
    41d0:	e1a03000 	mov	r3, r0
    41d4:	e3530000 	cmp	r3, #0
    41d8:	ba000000 	blt	41e0 <positionController+0x3f0>
    41dc:	ea000014 	b	4234 <positionController+0x444>
      *thrust = my_this.thrustMin;
    41e0:	e59f2060 	ldr	r2, [pc, #96]	; 4248 <positionController+0x458>
    41e4:	e3a03f72 	mov	r3, #456	; 0x1c8
    41e8:	e2833002 	add	r3, r3, #2
    41ec:	e19240b3 	ldrh	r4, [r2, r3]
    41f0:	e1a03804 	lsl	r3, r4, #16
    41f4:	e1a03843 	asr	r3, r3, #16
    41f8:	e1a00003 	mov	r0, r3
    41fc:	eb001782 	bl	a00c <__aeabi_i2f>
    4200:	e50b0034 	str	r0, [fp, #-52]	; 0x34
    4204:	e1a03804 	lsl	r3, r4, #16
    4208:	e1a03843 	asr	r3, r3, #16
    420c:	e3530000 	cmp	r3, #0
    4210:	aa000004 	bge	4228 <positionController+0x438>
    4214:	e51b0034 	ldr	r0, [fp, #-52]	; 0x34
    4218:	e59f105c 	ldr	r1, [pc, #92]	; 427c <positionController+0x48c>
    421c:	eb001709 	bl	9e48 <__addsf3>
    4220:	e1a03000 	mov	r3, r0
    4224:	e50b3034 	str	r3, [fp, #-52]	; 0x34
    4228:	e51b3024 	ldr	r3, [fp, #-36]	; 0x24
    422c:	e51b2034 	ldr	r2, [fp, #-52]	; 0x34
    4230:	e5832000 	str	r2, [r3]
    }
}
    4234:	e24bd010 	sub	sp, fp, #16
    4238:	e89d6810 	ldm	sp, {r4, fp, sp, lr}
    423c:	e12fff1e 	bx	lr
    4240:	40000040 	.word	0x40000040
    4244:	40000048 	.word	0x40000048
    4248:	4000004c 	.word	0x4000004c
    424c:	40000044 	.word	0x40000044
    4250:	43480000 	.word	0x43480000
    4254:	40000008 	.word	0x40000008
    4258:	40000130 	.word	0x40000130
    425c:	3c23d70a 	.word	0x3c23d70a
    4260:	400001c8 	.word	0x400001c8
    4264:	40000098 	.word	0x40000098
    4268:	40000038 	.word	0x40000038
    426c:	4000003c 	.word	0x4000003c
    4270:	437a0000 	.word	0x437a0000
    4274:	400000e4 	.word	0x400000e4
    4278:	4000017c 	.word	0x4000017c
    427c:	47800000 	.word	0x47800000

00004280 <positionControllerResetAllPID>:

void positionControllerResetAllPID()
{
    4280:	e1a0c00d 	mov	ip, sp
    4284:	e92dd800 	push	{fp, ip, lr, pc}
    4288:	e24cb004 	sub	fp, ip, #4
  pidReset(&my_this.pidZ.pid);
    428c:	e59f0014 	ldr	r0, [pc, #20]	; 42a8 <positionControllerResetAllPID+0x28>
    4290:	ebfffd0d 	bl	36cc <pidReset>
  pidReset(&my_this.pidVZ.pid);
    4294:	e59f0010 	ldr	r0, [pc, #16]	; 42ac <positionControllerResetAllPID+0x2c>
    4298:	ebfffd0b 	bl	36cc <pidReset>
}
    429c:	e24bd00c 	sub	sp, fp, #12
    42a0:	e89d6800 	ldm	sp, {fp, sp, lr}
    42a4:	e12fff1e 	bx	lr
    42a8:	40000098 	.word	0x40000098
    42ac:	4000004c 	.word	0x4000004c

000042b0 <buzzer_handler>:
#define BUZZ_INTERVAL	200 //2 s
#define BUZZ_MAG_WARNING_TIMEOUT 500 //mag warning for 5 seconds only
#define BUZZ_NR_OF_WARNINGS		9 //total number of different buzzer signals (see BU_ defines above)

void buzzer_handler(unsigned int vbat)	//needs to be triggered at 100 Hz
{
    42b0:	e1a0c00d 	mov	ip, sp
    42b4:	e92dd800 	push	{fp, ip, lr, pc}
    42b8:	e24cb004 	sub	fp, ip, #4
    42bc:	e24dd010 	sub	sp, sp, #16
    42c0:	e50b001c 	str	r0, [fp, #-28]
	unsigned int buz_active=0;
    42c4:	e3a03000 	mov	r3, #0
    42c8:	e50b3018 	str	r3, [fp, #-24]
	static unsigned short error_cnt_mag_fs;
	static unsigned short error_cnt_mag_inc;
	static unsigned short error_cnt_compass;

	unsigned int buz_priority=0;
    42cc:	e3a03000 	mov	r3, #0
    42d0:	e50b3014 	str	r3, [fp, #-20]
	static unsigned short buz_cnt=0;

	static int bat_cnt=0, bat_warning=0;
	static char bat_warning_enabled=0;

	if(++buz_cnt>=BUZZ_INTERVAL) buz_cnt=0;
    42d4:	e59f3fc4 	ldr	r3, [pc, #4036]	; 52a0 <buzzer_handler+0xff0>
    42d8:	e1d330b0 	ldrh	r3, [r3]
    42dc:	e2833001 	add	r3, r3, #1
    42e0:	e1a03803 	lsl	r3, r3, #16
    42e4:	e1a02823 	lsr	r2, r3, #16
    42e8:	e59f3fb0 	ldr	r3, [pc, #4016]	; 52a0 <buzzer_handler+0xff0>
    42ec:	e1c320b0 	strh	r2, [r3]
    42f0:	e59f3fa8 	ldr	r3, [pc, #4008]	; 52a0 <buzzer_handler+0xff0>
    42f4:	e1d330b0 	ldrh	r3, [r3]
    42f8:	e35300c7 	cmp	r3, #199	; 0xc7
    42fc:	9a000002 	bls	430c <buzzer_handler+0x5c>
    4300:	e59f3f98 	ldr	r3, [pc, #3992]	; 52a0 <buzzer_handler+0xff0>
    4304:	e3a02000 	mov	r2, #0
    4308:	e1c320b0 	strh	r2, [r3]

	//battery warning
	if(++bat_cnt==100) bat_cnt=0;
    430c:	e59f3f90 	ldr	r3, [pc, #3984]	; 52a4 <buzzer_handler+0xff4>
    4310:	e5933000 	ldr	r3, [r3]
    4314:	e2832001 	add	r2, r3, #1
    4318:	e59f3f84 	ldr	r3, [pc, #3972]	; 52a4 <buzzer_handler+0xff4>
    431c:	e5832000 	str	r2, [r3]
    4320:	e59f3f7c 	ldr	r3, [pc, #3964]	; 52a4 <buzzer_handler+0xff4>
    4324:	e5933000 	ldr	r3, [r3]
    4328:	e3530064 	cmp	r3, #100	; 0x64
    432c:	1a000002 	bne	433c <buzzer_handler+0x8c>
    4330:	e59f2f6c 	ldr	r2, [pc, #3948]	; 52a4 <buzzer_handler+0xff4>
    4334:	e3a03000 	mov	r3, #0
    4338:	e5823000 	str	r3, [r2]
	if(vbat<10001) vbat=10001;
    433c:	e51b201c 	ldr	r2, [fp, #-28]
    4340:	e3a03c27 	mov	r3, #9984	; 0x2700
    4344:	e2833010 	add	r3, r3, #16
    4348:	e1520003 	cmp	r2, r3
    434c:	8a000002 	bhi	435c <buzzer_handler+0xac>
    4350:	e3a03c27 	mov	r3, #9984	; 0x2700
    4354:	e2833011 	add	r3, r3, #17
    4358:	e50b301c 	str	r3, [fp, #-28]

	if(vbat<BATTERY_WARNING_VOLTAGE)	//decide if it's really an empty battery
    435c:	e51b201c 	ldr	r2, [fp, #-28]
    4360:	e3a03da5 	mov	r3, #10560	; 0x2940
    4364:	e2833027 	add	r3, r3, #39	; 0x27
    4368:	e1520003 	cmp	r2, r3
    436c:	8a00000d 	bhi	43a8 <buzzer_handler+0xf8>
	{
		if(bat_warning<ControllerCyclesPerSecond/5) bat_warning++;
    4370:	e59f3f30 	ldr	r3, [pc, #3888]	; 52a8 <buzzer_handler+0xff8>
    4374:	e5933000 	ldr	r3, [r3]
    4378:	e35300c7 	cmp	r3, #199	; 0xc7
    437c:	ca000005 	bgt	4398 <buzzer_handler+0xe8>
    4380:	e59f3f20 	ldr	r3, [pc, #3872]	; 52a8 <buzzer_handler+0xff8>
    4384:	e5933000 	ldr	r3, [r3]
    4388:	e2832001 	add	r2, r3, #1
    438c:	e59f3f14 	ldr	r3, [pc, #3860]	; 52a8 <buzzer_handler+0xff8>
    4390:	e5832000 	str	r2, [r3]
    4394:	ea000013 	b	43e8 <buzzer_handler+0x138>
		else bat_warning_enabled=1;
    4398:	e59f3f0c 	ldr	r3, [pc, #3852]	; 52ac <buzzer_handler+0xffc>
    439c:	e3a02001 	mov	r2, #1
    43a0:	e5c32000 	strb	r2, [r3]
    43a4:	ea00000f 	b	43e8 <buzzer_handler+0x138>
	}
	else
	{
		if(bat_warning>10) bat_warning-=2;
    43a8:	e59f3ef8 	ldr	r3, [pc, #3832]	; 52a8 <buzzer_handler+0xff8>
    43ac:	e5933000 	ldr	r3, [r3]
    43b0:	e353000a 	cmp	r3, #10
    43b4:	da000005 	ble	43d0 <buzzer_handler+0x120>
    43b8:	e59f3ee8 	ldr	r3, [pc, #3816]	; 52a8 <buzzer_handler+0xff8>
    43bc:	e5933000 	ldr	r3, [r3]
    43c0:	e2432002 	sub	r2, r3, #2
    43c4:	e59f3edc 	ldr	r3, [pc, #3804]	; 52a8 <buzzer_handler+0xff8>
    43c8:	e5832000 	str	r2, [r3]
    43cc:	ea000005 	b	43e8 <buzzer_handler+0x138>
		else
		{
			bat_warning_enabled=0;
    43d0:	e59f2ed4 	ldr	r2, [pc, #3796]	; 52ac <buzzer_handler+0xffc>
    43d4:	e3a03000 	mov	r3, #0
    43d8:	e5c23000 	strb	r3, [r2]
			buz_active&=~BU_BATTERY;
    43dc:	e51b3018 	ldr	r3, [fp, #-24]
    43e0:	e3c33010 	bic	r3, r3, #16
    43e4:	e50b3018 	str	r3, [fp, #-24]
		}
	}
	if(bat_warning_enabled)
    43e8:	e59f3ebc 	ldr	r3, [pc, #3772]	; 52ac <buzzer_handler+0xffc>
    43ec:	e5d33000 	ldrb	r3, [r3]
    43f0:	e3530000 	cmp	r3, #0
    43f4:	0a000015 	beq	4450 <buzzer_handler+0x1a0>
	{
		if(bat_cnt>((vbat-10000)/BAT_DIV)) buz_active|=BU_BATTERY; //Beeper on
    43f8:	e59f3ea4 	ldr	r3, [pc, #3748]	; 52a4 <buzzer_handler+0xff4>
    43fc:	e5933000 	ldr	r3, [r3]
    4400:	e1a01003 	mov	r1, r3
    4404:	e51b301c 	ldr	r3, [fp, #-28]
    4408:	e2433c27 	sub	r3, r3, #9984	; 0x2700
    440c:	e2433010 	sub	r3, r3, #16
    4410:	e59f2e98 	ldr	r2, [pc, #3736]	; 52b0 <buzzer_handler+0x1000>
    4414:	e0830392 	umull	r0, r3, r2, r3
    4418:	e1a03123 	lsr	r3, r3, #2
    441c:	e1510003 	cmp	r1, r3
    4420:	9a000003 	bls	4434 <buzzer_handler+0x184>
    4424:	e51b3018 	ldr	r3, [fp, #-24]
    4428:	e3833010 	orr	r3, r3, #16
    442c:	e50b3018 	str	r3, [fp, #-24]
    4430:	ea000002 	b	4440 <buzzer_handler+0x190>
		else buz_active&=~BU_BATTERY; //Beeper off
    4434:	e51b3018 	ldr	r3, [fp, #-24]
    4438:	e3c33010 	bic	r3, r3, #16
    443c:	e50b3018 	str	r3, [fp, #-24]
		buz_priority|=BU_BATTERY;
    4440:	e51b3014 	ldr	r3, [fp, #-20]
    4444:	e3833010 	orr	r3, r3, #16
    4448:	e50b3014 	str	r3, [fp, #-20]
    444c:	ea000005 	b	4468 <buzzer_handler+0x1b8>
	}
	else
	{
		buz_active&=~BU_BATTERY;
    4450:	e51b3018 	ldr	r3, [fp, #-24]
    4454:	e3c33010 	bic	r3, r3, #16
    4458:	e50b3018 	str	r3, [fp, #-24]
		buz_priority&=~BU_BATTERY;
    445c:	e51b3014 	ldr	r3, [fp, #-20]
    4460:	e3c33010 	bic	r3, r3, #16
    4464:	e50b3014 	str	r3, [fp, #-20]
	}
#endif

#ifdef ERROR_BEEP
	//gyro error
	if((LL_1khz_attitude_data.flightMode&FM_CALIBRATION_ERROR_GYROS)&&(SYSTEM_initialized))
    4468:	e59f3e44 	ldr	r3, [pc, #3652]	; 52b4 <buzzer_handler+0x1004>
    446c:	e1d335b2 	ldrh	r3, [r3, #82]	; 0x52
    4470:	e1a03803 	lsl	r3, r3, #16
    4474:	e1a03823 	lsr	r3, r3, #16
    4478:	e2033c02 	and	r3, r3, #512	; 0x200
    447c:	e3530000 	cmp	r3, #0
    4480:	0a000023 	beq	4514 <buzzer_handler+0x264>
    4484:	e59f3e2c 	ldr	r3, [pc, #3628]	; 52b8 <buzzer_handler+0x1008>
    4488:	e5d33000 	ldrb	r3, [r3]
    448c:	e20330ff 	and	r3, r3, #255	; 0xff
    4490:	e3530000 	cmp	r3, #0
    4494:	0a00001e 	beq	4514 <buzzer_handler+0x264>
	{
		buz_priority|=BU_ERROR_GYRO;
    4498:	e51b3014 	ldr	r3, [fp, #-20]
    449c:	e3833002 	orr	r3, r3, #2
    44a0:	e50b3014 	str	r3, [fp, #-20]
		if(buz_cnt<155) buz_active|=BU_ERROR_GYRO;
    44a4:	e59f3df4 	ldr	r3, [pc, #3572]	; 52a0 <buzzer_handler+0xff0>
    44a8:	e1d330b0 	ldrh	r3, [r3]
    44ac:	e353009a 	cmp	r3, #154	; 0x9a
    44b0:	8a000003 	bhi	44c4 <buzzer_handler+0x214>
    44b4:	e51b3018 	ldr	r3, [fp, #-24]
    44b8:	e3833002 	orr	r3, r3, #2
    44bc:	e50b3018 	str	r3, [fp, #-24]
    44c0:	ea000019 	b	452c <buzzer_handler+0x27c>
		else if(buz_cnt<160) buz_active&=~BU_ERROR_GYRO;
    44c4:	e59f3dd4 	ldr	r3, [pc, #3540]	; 52a0 <buzzer_handler+0xff0>
    44c8:	e1d330b0 	ldrh	r3, [r3]
    44cc:	e353009f 	cmp	r3, #159	; 0x9f
    44d0:	8a000003 	bhi	44e4 <buzzer_handler+0x234>
    44d4:	e51b3018 	ldr	r3, [fp, #-24]
    44d8:	e3c33002 	bic	r3, r3, #2
    44dc:	e50b3018 	str	r3, [fp, #-24]
    44e0:	ea000011 	b	452c <buzzer_handler+0x27c>
		else if(buz_cnt<165) buz_active|=BU_ERROR_GYRO;
    44e4:	e59f3db4 	ldr	r3, [pc, #3508]	; 52a0 <buzzer_handler+0xff0>
    44e8:	e1d330b0 	ldrh	r3, [r3]
    44ec:	e35300a4 	cmp	r3, #164	; 0xa4
    44f0:	8a000003 	bhi	4504 <buzzer_handler+0x254>
    44f4:	e51b3018 	ldr	r3, [fp, #-24]
    44f8:	e3833002 	orr	r3, r3, #2
    44fc:	e50b3018 	str	r3, [fp, #-24]
    4500:	ea000009 	b	452c <buzzer_handler+0x27c>
		else buz_active&=~BU_ERROR_GYRO;
    4504:	e51b3018 	ldr	r3, [fp, #-24]
    4508:	e3c33002 	bic	r3, r3, #2
    450c:	e50b3018 	str	r3, [fp, #-24]
	}
#endif

#ifdef ERROR_BEEP
	//gyro error
	if((LL_1khz_attitude_data.flightMode&FM_CALIBRATION_ERROR_GYROS)&&(SYSTEM_initialized))
    4510:	ea000005 	b	452c <buzzer_handler+0x27c>
		else if(buz_cnt<165) buz_active|=BU_ERROR_GYRO;
		else buz_active&=~BU_ERROR_GYRO;
	}
	else
	{
		buz_priority&=~BU_ERROR_GYRO;
    4514:	e51b3014 	ldr	r3, [fp, #-20]
    4518:	e3c33002 	bic	r3, r3, #2
    451c:	e50b3014 	str	r3, [fp, #-20]
		buz_active&=~BU_ERROR_GYRO;
    4520:	e51b3018 	ldr	r3, [fp, #-24]
    4524:	e3c33002 	bic	r3, r3, #2
    4528:	e50b3018 	str	r3, [fp, #-24]
	}

	//ACC error
	if((LL_1khz_attitude_data.flightMode&FM_CALIBRATION_ERROR_ACC)&&(SYSTEM_initialized))
    452c:	e59f3d80 	ldr	r3, [pc, #3456]	; 52b4 <buzzer_handler+0x1004>
    4530:	e1d335b2 	ldrh	r3, [r3, #82]	; 0x52
    4534:	e1a03803 	lsl	r3, r3, #16
    4538:	e1a03823 	lsr	r3, r3, #16
    453c:	e2033b01 	and	r3, r3, #1024	; 0x400
    4540:	e3530000 	cmp	r3, #0
    4544:	0a000033 	beq	4618 <buzzer_handler+0x368>
    4548:	e59f3d68 	ldr	r3, [pc, #3432]	; 52b8 <buzzer_handler+0x1008>
    454c:	e5d33000 	ldrb	r3, [r3]
    4550:	e20330ff 	and	r3, r3, #255	; 0xff
    4554:	e3530000 	cmp	r3, #0
    4558:	0a00002e 	beq	4618 <buzzer_handler+0x368>
	{
		buz_priority|=BU_ERROR_ACC;
    455c:	e51b3014 	ldr	r3, [fp, #-20]
    4560:	e3833004 	orr	r3, r3, #4
    4564:	e50b3014 	str	r3, [fp, #-20]
		if(buz_cnt<145) buz_active|=BU_ERROR_ACC;
    4568:	e59f3d30 	ldr	r3, [pc, #3376]	; 52a0 <buzzer_handler+0xff0>
    456c:	e1d330b0 	ldrh	r3, [r3]
    4570:	e3530090 	cmp	r3, #144	; 0x90
    4574:	8a000003 	bhi	4588 <buzzer_handler+0x2d8>
    4578:	e51b3018 	ldr	r3, [fp, #-24]
    457c:	e3833004 	orr	r3, r3, #4
    4580:	e50b3018 	str	r3, [fp, #-24]
    4584:	ea000029 	b	4630 <buzzer_handler+0x380>
		else if(buz_cnt<150) buz_active&=~BU_ERROR_ACC;
    4588:	e59f3d10 	ldr	r3, [pc, #3344]	; 52a0 <buzzer_handler+0xff0>
    458c:	e1d330b0 	ldrh	r3, [r3]
    4590:	e3530095 	cmp	r3, #149	; 0x95
    4594:	8a000003 	bhi	45a8 <buzzer_handler+0x2f8>
    4598:	e51b3018 	ldr	r3, [fp, #-24]
    459c:	e3c33004 	bic	r3, r3, #4
    45a0:	e50b3018 	str	r3, [fp, #-24]
    45a4:	ea000021 	b	4630 <buzzer_handler+0x380>
		else if(buz_cnt<155) buz_active|=BU_ERROR_ACC;
    45a8:	e59f3cf0 	ldr	r3, [pc, #3312]	; 52a0 <buzzer_handler+0xff0>
    45ac:	e1d330b0 	ldrh	r3, [r3]
    45b0:	e353009a 	cmp	r3, #154	; 0x9a
    45b4:	8a000003 	bhi	45c8 <buzzer_handler+0x318>
    45b8:	e51b3018 	ldr	r3, [fp, #-24]
    45bc:	e3833004 	orr	r3, r3, #4
    45c0:	e50b3018 	str	r3, [fp, #-24]
    45c4:	ea000019 	b	4630 <buzzer_handler+0x380>
		else if(buz_cnt<160) buz_active&=~BU_ERROR_ACC;
    45c8:	e59f3cd0 	ldr	r3, [pc, #3280]	; 52a0 <buzzer_handler+0xff0>
    45cc:	e1d330b0 	ldrh	r3, [r3]
    45d0:	e353009f 	cmp	r3, #159	; 0x9f
    45d4:	8a000003 	bhi	45e8 <buzzer_handler+0x338>
    45d8:	e51b3018 	ldr	r3, [fp, #-24]
    45dc:	e3c33004 	bic	r3, r3, #4
    45e0:	e50b3018 	str	r3, [fp, #-24]
    45e4:	ea000011 	b	4630 <buzzer_handler+0x380>
		else if(buz_cnt<165) buz_active|=BU_ERROR_ACC;
    45e8:	e59f3cb0 	ldr	r3, [pc, #3248]	; 52a0 <buzzer_handler+0xff0>
    45ec:	e1d330b0 	ldrh	r3, [r3]
    45f0:	e35300a4 	cmp	r3, #164	; 0xa4
    45f4:	8a000003 	bhi	4608 <buzzer_handler+0x358>
    45f8:	e51b3018 	ldr	r3, [fp, #-24]
    45fc:	e3833004 	orr	r3, r3, #4
    4600:	e50b3018 	str	r3, [fp, #-24]
    4604:	ea000009 	b	4630 <buzzer_handler+0x380>
		else buz_active&=~BU_ERROR_ACC;
    4608:	e51b3018 	ldr	r3, [fp, #-24]
    460c:	e3c33004 	bic	r3, r3, #4
    4610:	e50b3018 	str	r3, [fp, #-24]
		buz_priority&=~BU_ERROR_GYRO;
		buz_active&=~BU_ERROR_GYRO;
	}

	//ACC error
	if((LL_1khz_attitude_data.flightMode&FM_CALIBRATION_ERROR_ACC)&&(SYSTEM_initialized))
    4614:	ea000005 	b	4630 <buzzer_handler+0x380>
		else if(buz_cnt<165) buz_active|=BU_ERROR_ACC;
		else buz_active&=~BU_ERROR_ACC;
	}
	else
	{
		buz_priority&=~BU_ERROR_ACC;
    4618:	e51b3014 	ldr	r3, [fp, #-20]
    461c:	e3c33004 	bic	r3, r3, #4
    4620:	e50b3014 	str	r3, [fp, #-20]
		buz_active&=~BU_ERROR_ACC;
    4624:	e51b3018 	ldr	r3, [fp, #-24]
    4628:	e3c33004 	bic	r3, r3, #4
    462c:	e50b3018 	str	r3, [fp, #-24]
	}

	//ADC error
	if((LL_1khz_attitude_data.flightMode&FM_ADC_STARTUP_ERROR)&&(SYSTEM_initialized))
    4630:	e59f3c7c 	ldr	r3, [pc, #3196]	; 52b4 <buzzer_handler+0x1004>
    4634:	e1d335b2 	ldrh	r3, [r3, #82]	; 0x52
    4638:	e1a03803 	lsl	r3, r3, #16
    463c:	e1a03823 	lsr	r3, r3, #16
    4640:	e2033b02 	and	r3, r3, #2048	; 0x800
    4644:	e3530000 	cmp	r3, #0
    4648:	0a000043 	beq	475c <buzzer_handler+0x4ac>
    464c:	e59f3c64 	ldr	r3, [pc, #3172]	; 52b8 <buzzer_handler+0x1008>
    4650:	e5d33000 	ldrb	r3, [r3]
    4654:	e20330ff 	and	r3, r3, #255	; 0xff
    4658:	e3530000 	cmp	r3, #0
    465c:	0a00003e 	beq	475c <buzzer_handler+0x4ac>
	{
		buz_priority|=BU_ERROR_ADC;
    4660:	e51b3014 	ldr	r3, [fp, #-20]
    4664:	e3833008 	orr	r3, r3, #8
    4668:	e50b3014 	str	r3, [fp, #-20]
		if(buz_cnt<135) buz_active|=BU_ERROR_ADC;
    466c:	e59f3c2c 	ldr	r3, [pc, #3116]	; 52a0 <buzzer_handler+0xff0>
    4670:	e1d330b0 	ldrh	r3, [r3]
    4674:	e3530086 	cmp	r3, #134	; 0x86
    4678:	8a000003 	bhi	468c <buzzer_handler+0x3dc>
    467c:	e51b3018 	ldr	r3, [fp, #-24]
    4680:	e3833008 	orr	r3, r3, #8
    4684:	e50b3018 	str	r3, [fp, #-24]
    4688:	ea000039 	b	4774 <buzzer_handler+0x4c4>
		else if(buz_cnt<140) buz_active&=~BU_ERROR_ADC;
    468c:	e59f3c0c 	ldr	r3, [pc, #3084]	; 52a0 <buzzer_handler+0xff0>
    4690:	e1d330b0 	ldrh	r3, [r3]
    4694:	e353008b 	cmp	r3, #139	; 0x8b
    4698:	8a000003 	bhi	46ac <buzzer_handler+0x3fc>
    469c:	e51b3018 	ldr	r3, [fp, #-24]
    46a0:	e3c33008 	bic	r3, r3, #8
    46a4:	e50b3018 	str	r3, [fp, #-24]
    46a8:	ea000031 	b	4774 <buzzer_handler+0x4c4>
		else if(buz_cnt<145) buz_active|=BU_ERROR_ADC;
    46ac:	e59f3bec 	ldr	r3, [pc, #3052]	; 52a0 <buzzer_handler+0xff0>
    46b0:	e1d330b0 	ldrh	r3, [r3]
    46b4:	e3530090 	cmp	r3, #144	; 0x90
    46b8:	8a000003 	bhi	46cc <buzzer_handler+0x41c>
    46bc:	e51b3018 	ldr	r3, [fp, #-24]
    46c0:	e3833008 	orr	r3, r3, #8
    46c4:	e50b3018 	str	r3, [fp, #-24]
    46c8:	ea000029 	b	4774 <buzzer_handler+0x4c4>
		else if(buz_cnt<150) buz_active&=~BU_ERROR_ADC;
    46cc:	e59f3bcc 	ldr	r3, [pc, #3020]	; 52a0 <buzzer_handler+0xff0>
    46d0:	e1d330b0 	ldrh	r3, [r3]
    46d4:	e3530095 	cmp	r3, #149	; 0x95
    46d8:	8a000003 	bhi	46ec <buzzer_handler+0x43c>
    46dc:	e51b3018 	ldr	r3, [fp, #-24]
    46e0:	e3c33008 	bic	r3, r3, #8
    46e4:	e50b3018 	str	r3, [fp, #-24]
    46e8:	ea000021 	b	4774 <buzzer_handler+0x4c4>
		else if(buz_cnt<155) buz_active|=BU_ERROR_ADC;
    46ec:	e59f3bac 	ldr	r3, [pc, #2988]	; 52a0 <buzzer_handler+0xff0>
    46f0:	e1d330b0 	ldrh	r3, [r3]
    46f4:	e353009a 	cmp	r3, #154	; 0x9a
    46f8:	8a000003 	bhi	470c <buzzer_handler+0x45c>
    46fc:	e51b3018 	ldr	r3, [fp, #-24]
    4700:	e3833008 	orr	r3, r3, #8
    4704:	e50b3018 	str	r3, [fp, #-24]
    4708:	ea000019 	b	4774 <buzzer_handler+0x4c4>
		else if(buz_cnt<160) buz_active&=~BU_ERROR_ADC;
    470c:	e59f3b8c 	ldr	r3, [pc, #2956]	; 52a0 <buzzer_handler+0xff0>
    4710:	e1d330b0 	ldrh	r3, [r3]
    4714:	e353009f 	cmp	r3, #159	; 0x9f
    4718:	8a000003 	bhi	472c <buzzer_handler+0x47c>
    471c:	e51b3018 	ldr	r3, [fp, #-24]
    4720:	e3c33008 	bic	r3, r3, #8
    4724:	e50b3018 	str	r3, [fp, #-24]
    4728:	ea000011 	b	4774 <buzzer_handler+0x4c4>
		else if(buz_cnt<165) buz_active|=BU_ERROR_ADC;
    472c:	e59f3b6c 	ldr	r3, [pc, #2924]	; 52a0 <buzzer_handler+0xff0>
    4730:	e1d330b0 	ldrh	r3, [r3]
    4734:	e35300a4 	cmp	r3, #164	; 0xa4
    4738:	8a000003 	bhi	474c <buzzer_handler+0x49c>
    473c:	e51b3018 	ldr	r3, [fp, #-24]
    4740:	e3833008 	orr	r3, r3, #8
    4744:	e50b3018 	str	r3, [fp, #-24]
    4748:	ea000009 	b	4774 <buzzer_handler+0x4c4>
		else buz_active&=~BU_ERROR_ADC;
    474c:	e51b3018 	ldr	r3, [fp, #-24]
    4750:	e3c33008 	bic	r3, r3, #8
    4754:	e50b3018 	str	r3, [fp, #-24]
		buz_priority&=~BU_ERROR_ACC;
		buz_active&=~BU_ERROR_ACC;
	}

	//ADC error
	if((LL_1khz_attitude_data.flightMode&FM_ADC_STARTUP_ERROR)&&(SYSTEM_initialized))
    4758:	ea000005 	b	4774 <buzzer_handler+0x4c4>
		else if(buz_cnt<165) buz_active|=BU_ERROR_ADC;
		else buz_active&=~BU_ERROR_ADC;
	}
	else
	{
		buz_priority&=~BU_ERROR_ADC;
    475c:	e51b3014 	ldr	r3, [fp, #-20]
    4760:	e3c33008 	bic	r3, r3, #8
    4764:	e50b3014 	str	r3, [fp, #-20]
		buz_active&=~BU_ERROR_ADC;
    4768:	e51b3018 	ldr	r3, [fp, #-24]
    476c:	e3c33008 	bic	r3, r3, #8
    4770:	e50b3018 	str	r3, [fp, #-24]
	}

	//compass failure: warn 3 seconds only
	if((LL_1khz_attitude_data.flightMode&FM_COMPASS_FAILURE)&&(SYSTEM_initialized)&&(error_cnt_compass++<400))
    4774:	e59f3b38 	ldr	r3, [pc, #2872]	; 52b4 <buzzer_handler+0x1004>
    4778:	e1d335b2 	ldrh	r3, [r3, #82]	; 0x52
    477c:	e1a03803 	lsl	r3, r3, #16
    4780:	e1a03823 	lsr	r3, r3, #16
    4784:	e2033010 	and	r3, r3, #16
    4788:	e3530000 	cmp	r3, #0
    478c:	0a0000e4 	beq	4b24 <buzzer_handler+0x874>
    4790:	e59f3b20 	ldr	r3, [pc, #2848]	; 52b8 <buzzer_handler+0x1008>
    4794:	e5d33000 	ldrb	r3, [r3]
    4798:	e20330ff 	and	r3, r3, #255	; 0xff
    479c:	e3530000 	cmp	r3, #0
    47a0:	0a0000df 	beq	4b24 <buzzer_handler+0x874>
    47a4:	e59f3b10 	ldr	r3, [pc, #2832]	; 52bc <buzzer_handler+0x100c>
    47a8:	e1d320b0 	ldrh	r2, [r3]
    47ac:	e3a03f63 	mov	r3, #396	; 0x18c
    47b0:	e2833003 	add	r3, r3, #3
    47b4:	e1520003 	cmp	r2, r3
    47b8:	83a03000 	movhi	r3, #0
    47bc:	93a03001 	movls	r3, #1
    47c0:	e20310ff 	and	r1, r3, #255	; 0xff
    47c4:	e2823001 	add	r3, r2, #1
    47c8:	e1a03803 	lsl	r3, r3, #16
    47cc:	e1a02823 	lsr	r2, r3, #16
    47d0:	e59f3ae4 	ldr	r3, [pc, #2788]	; 52bc <buzzer_handler+0x100c>
    47d4:	e1c320b0 	strh	r2, [r3]
    47d8:	e2213001 	eor	r3, r1, #1
    47dc:	e20330ff 	and	r3, r3, #255	; 0xff
    47e0:	e3530000 	cmp	r3, #0
    47e4:	1a0000ce 	bne	4b24 <buzzer_handler+0x874>
	{
		buz_priority|=BU_COMPASS_FAILURE;
    47e8:	e51b3014 	ldr	r3, [fp, #-20]
    47ec:	e3833020 	orr	r3, r3, #32
    47f0:	e50b3014 	str	r3, [fp, #-20]
		if(buz_cnt%100<5) buz_active|=BU_COMPASS_FAILURE;
    47f4:	e59f3aa4 	ldr	r3, [pc, #2724]	; 52a0 <buzzer_handler+0xff0>
    47f8:	e1d310b0 	ldrh	r1, [r3]
    47fc:	e59f3abc 	ldr	r3, [pc, #2748]	; 52c0 <buzzer_handler+0x1010>
    4800:	e0832391 	umull	r2, r3, r1, r3
    4804:	e1a022a3 	lsr	r2, r3, #5
    4808:	e1a03002 	mov	r3, r2
    480c:	e1a03103 	lsl	r3, r3, #2
    4810:	e0833002 	add	r3, r3, r2
    4814:	e1a02103 	lsl	r2, r3, #2
    4818:	e0833002 	add	r3, r3, r2
    481c:	e1a03103 	lsl	r3, r3, #2
    4820:	e0633001 	rsb	r3, r3, r1
    4824:	e1a03803 	lsl	r3, r3, #16
    4828:	e1a03823 	lsr	r3, r3, #16
    482c:	e3530004 	cmp	r3, #4
    4830:	8a000003 	bhi	4844 <buzzer_handler+0x594>
    4834:	e51b3018 	ldr	r3, [fp, #-24]
    4838:	e3833020 	orr	r3, r3, #32
    483c:	e50b3018 	str	r3, [fp, #-24]
    4840:	ea0000bd 	b	4b3c <buzzer_handler+0x88c>
		else if(buz_cnt%100<10) buz_active&=~BU_COMPASS_FAILURE;
    4844:	e59f3a54 	ldr	r3, [pc, #2644]	; 52a0 <buzzer_handler+0xff0>
    4848:	e1d310b0 	ldrh	r1, [r3]
    484c:	e59f3a6c 	ldr	r3, [pc, #2668]	; 52c0 <buzzer_handler+0x1010>
    4850:	e0830391 	umull	r0, r3, r1, r3
    4854:	e1a022a3 	lsr	r2, r3, #5
    4858:	e1a03002 	mov	r3, r2
    485c:	e1a03103 	lsl	r3, r3, #2
    4860:	e0833002 	add	r3, r3, r2
    4864:	e1a02103 	lsl	r2, r3, #2
    4868:	e0833002 	add	r3, r3, r2
    486c:	e1a03103 	lsl	r3, r3, #2
    4870:	e0633001 	rsb	r3, r3, r1
    4874:	e1a03803 	lsl	r3, r3, #16
    4878:	e1a03823 	lsr	r3, r3, #16
    487c:	e3530009 	cmp	r3, #9
    4880:	8a000003 	bhi	4894 <buzzer_handler+0x5e4>
    4884:	e51b3018 	ldr	r3, [fp, #-24]
    4888:	e3c33020 	bic	r3, r3, #32
    488c:	e50b3018 	str	r3, [fp, #-24]
    4890:	ea0000a9 	b	4b3c <buzzer_handler+0x88c>
		else if(buz_cnt%100<15) buz_active|=BU_COMPASS_FAILURE;
    4894:	e59f3a04 	ldr	r3, [pc, #2564]	; 52a0 <buzzer_handler+0xff0>
    4898:	e1d310b0 	ldrh	r1, [r3]
    489c:	e59f3a1c 	ldr	r3, [pc, #2588]	; 52c0 <buzzer_handler+0x1010>
    48a0:	e0832391 	umull	r2, r3, r1, r3
    48a4:	e1a022a3 	lsr	r2, r3, #5
    48a8:	e1a03002 	mov	r3, r2
    48ac:	e1a03103 	lsl	r3, r3, #2
    48b0:	e0833002 	add	r3, r3, r2
    48b4:	e1a02103 	lsl	r2, r3, #2
    48b8:	e0833002 	add	r3, r3, r2
    48bc:	e1a03103 	lsl	r3, r3, #2
    48c0:	e0633001 	rsb	r3, r3, r1
    48c4:	e1a03803 	lsl	r3, r3, #16
    48c8:	e1a03823 	lsr	r3, r3, #16
    48cc:	e353000e 	cmp	r3, #14
    48d0:	8a000003 	bhi	48e4 <buzzer_handler+0x634>
    48d4:	e51b3018 	ldr	r3, [fp, #-24]
    48d8:	e3833020 	orr	r3, r3, #32
    48dc:	e50b3018 	str	r3, [fp, #-24]
    48e0:	ea000095 	b	4b3c <buzzer_handler+0x88c>
		else if(buz_cnt%100<20) buz_active&=~BU_COMPASS_FAILURE;
    48e4:	e59f39b4 	ldr	r3, [pc, #2484]	; 52a0 <buzzer_handler+0xff0>
    48e8:	e1d310b0 	ldrh	r1, [r3]
    48ec:	e59f39cc 	ldr	r3, [pc, #2508]	; 52c0 <buzzer_handler+0x1010>
    48f0:	e0830391 	umull	r0, r3, r1, r3
    48f4:	e1a022a3 	lsr	r2, r3, #5
    48f8:	e1a03002 	mov	r3, r2
    48fc:	e1a03103 	lsl	r3, r3, #2
    4900:	e0833002 	add	r3, r3, r2
    4904:	e1a02103 	lsl	r2, r3, #2
    4908:	e0833002 	add	r3, r3, r2
    490c:	e1a03103 	lsl	r3, r3, #2
    4910:	e0633001 	rsb	r3, r3, r1
    4914:	e1a03803 	lsl	r3, r3, #16
    4918:	e1a03823 	lsr	r3, r3, #16
    491c:	e3530013 	cmp	r3, #19
    4920:	8a000003 	bhi	4934 <buzzer_handler+0x684>
    4924:	e51b3018 	ldr	r3, [fp, #-24]
    4928:	e3c33020 	bic	r3, r3, #32
    492c:	e50b3018 	str	r3, [fp, #-24]
    4930:	ea000081 	b	4b3c <buzzer_handler+0x88c>
		else if(buz_cnt%100<25) buz_active|=BU_COMPASS_FAILURE;
    4934:	e59f3964 	ldr	r3, [pc, #2404]	; 52a0 <buzzer_handler+0xff0>
    4938:	e1d310b0 	ldrh	r1, [r3]
    493c:	e59f397c 	ldr	r3, [pc, #2428]	; 52c0 <buzzer_handler+0x1010>
    4940:	e0832391 	umull	r2, r3, r1, r3
    4944:	e1a022a3 	lsr	r2, r3, #5
    4948:	e1a03002 	mov	r3, r2
    494c:	e1a03103 	lsl	r3, r3, #2
    4950:	e0833002 	add	r3, r3, r2
    4954:	e1a02103 	lsl	r2, r3, #2
    4958:	e0833002 	add	r3, r3, r2
    495c:	e1a03103 	lsl	r3, r3, #2
    4960:	e0633001 	rsb	r3, r3, r1
    4964:	e1a03803 	lsl	r3, r3, #16
    4968:	e1a03823 	lsr	r3, r3, #16
    496c:	e3530018 	cmp	r3, #24
    4970:	8a000003 	bhi	4984 <buzzer_handler+0x6d4>
    4974:	e51b3018 	ldr	r3, [fp, #-24]
    4978:	e3833020 	orr	r3, r3, #32
    497c:	e50b3018 	str	r3, [fp, #-24]
    4980:	ea00006d 	b	4b3c <buzzer_handler+0x88c>
		else if(buz_cnt%100<30) buz_active&=~BU_COMPASS_FAILURE;
    4984:	e59f3914 	ldr	r3, [pc, #2324]	; 52a0 <buzzer_handler+0xff0>
    4988:	e1d310b0 	ldrh	r1, [r3]
    498c:	e59f392c 	ldr	r3, [pc, #2348]	; 52c0 <buzzer_handler+0x1010>
    4990:	e0830391 	umull	r0, r3, r1, r3
    4994:	e1a022a3 	lsr	r2, r3, #5
    4998:	e1a03002 	mov	r3, r2
    499c:	e1a03103 	lsl	r3, r3, #2
    49a0:	e0833002 	add	r3, r3, r2
    49a4:	e1a02103 	lsl	r2, r3, #2
    49a8:	e0833002 	add	r3, r3, r2
    49ac:	e1a03103 	lsl	r3, r3, #2
    49b0:	e0633001 	rsb	r3, r3, r1
    49b4:	e1a03803 	lsl	r3, r3, #16
    49b8:	e1a03823 	lsr	r3, r3, #16
    49bc:	e353001d 	cmp	r3, #29
    49c0:	8a000003 	bhi	49d4 <buzzer_handler+0x724>
    49c4:	e51b3018 	ldr	r3, [fp, #-24]
    49c8:	e3c33020 	bic	r3, r3, #32
    49cc:	e50b3018 	str	r3, [fp, #-24]
    49d0:	ea000059 	b	4b3c <buzzer_handler+0x88c>
		else if(buz_cnt%100<35) buz_active|=BU_COMPASS_FAILURE;
    49d4:	e59f38c4 	ldr	r3, [pc, #2244]	; 52a0 <buzzer_handler+0xff0>
    49d8:	e1d310b0 	ldrh	r1, [r3]
    49dc:	e59f38dc 	ldr	r3, [pc, #2268]	; 52c0 <buzzer_handler+0x1010>
    49e0:	e0832391 	umull	r2, r3, r1, r3
    49e4:	e1a022a3 	lsr	r2, r3, #5
    49e8:	e1a03002 	mov	r3, r2
    49ec:	e1a03103 	lsl	r3, r3, #2
    49f0:	e0833002 	add	r3, r3, r2
    49f4:	e1a02103 	lsl	r2, r3, #2
    49f8:	e0833002 	add	r3, r3, r2
    49fc:	e1a03103 	lsl	r3, r3, #2
    4a00:	e0633001 	rsb	r3, r3, r1
    4a04:	e1a03803 	lsl	r3, r3, #16
    4a08:	e1a03823 	lsr	r3, r3, #16
    4a0c:	e3530022 	cmp	r3, #34	; 0x22
    4a10:	8a000003 	bhi	4a24 <buzzer_handler+0x774>
    4a14:	e51b3018 	ldr	r3, [fp, #-24]
    4a18:	e3833020 	orr	r3, r3, #32
    4a1c:	e50b3018 	str	r3, [fp, #-24]
    4a20:	ea000045 	b	4b3c <buzzer_handler+0x88c>
		else if(buz_cnt%100<40) buz_active&=~BU_COMPASS_FAILURE;
    4a24:	e59f3874 	ldr	r3, [pc, #2164]	; 52a0 <buzzer_handler+0xff0>
    4a28:	e1d310b0 	ldrh	r1, [r3]
    4a2c:	e59f388c 	ldr	r3, [pc, #2188]	; 52c0 <buzzer_handler+0x1010>
    4a30:	e0830391 	umull	r0, r3, r1, r3
    4a34:	e1a022a3 	lsr	r2, r3, #5
    4a38:	e1a03002 	mov	r3, r2
    4a3c:	e1a03103 	lsl	r3, r3, #2
    4a40:	e0833002 	add	r3, r3, r2
    4a44:	e1a02103 	lsl	r2, r3, #2
    4a48:	e0833002 	add	r3, r3, r2
    4a4c:	e1a03103 	lsl	r3, r3, #2
    4a50:	e0633001 	rsb	r3, r3, r1
    4a54:	e1a03803 	lsl	r3, r3, #16
    4a58:	e1a03823 	lsr	r3, r3, #16
    4a5c:	e3530027 	cmp	r3, #39	; 0x27
    4a60:	8a000003 	bhi	4a74 <buzzer_handler+0x7c4>
    4a64:	e51b3018 	ldr	r3, [fp, #-24]
    4a68:	e3c33020 	bic	r3, r3, #32
    4a6c:	e50b3018 	str	r3, [fp, #-24]
    4a70:	ea000031 	b	4b3c <buzzer_handler+0x88c>
		else if(buz_cnt%100<45) buz_active|=BU_COMPASS_FAILURE;
    4a74:	e59f3824 	ldr	r3, [pc, #2084]	; 52a0 <buzzer_handler+0xff0>
    4a78:	e1d310b0 	ldrh	r1, [r3]
    4a7c:	e59f383c 	ldr	r3, [pc, #2108]	; 52c0 <buzzer_handler+0x1010>
    4a80:	e0832391 	umull	r2, r3, r1, r3
    4a84:	e1a022a3 	lsr	r2, r3, #5
    4a88:	e1a03002 	mov	r3, r2
    4a8c:	e1a03103 	lsl	r3, r3, #2
    4a90:	e0833002 	add	r3, r3, r2
    4a94:	e1a02103 	lsl	r2, r3, #2
    4a98:	e0833002 	add	r3, r3, r2
    4a9c:	e1a03103 	lsl	r3, r3, #2
    4aa0:	e0633001 	rsb	r3, r3, r1
    4aa4:	e1a03803 	lsl	r3, r3, #16
    4aa8:	e1a03823 	lsr	r3, r3, #16
    4aac:	e353002c 	cmp	r3, #44	; 0x2c
    4ab0:	8a000003 	bhi	4ac4 <buzzer_handler+0x814>
    4ab4:	e51b3018 	ldr	r3, [fp, #-24]
    4ab8:	e3833020 	orr	r3, r3, #32
    4abc:	e50b3018 	str	r3, [fp, #-24]
    4ac0:	ea00001d 	b	4b3c <buzzer_handler+0x88c>
		else if(buz_cnt%100<50) buz_active&=~BU_COMPASS_FAILURE;
    4ac4:	e59f37d4 	ldr	r3, [pc, #2004]	; 52a0 <buzzer_handler+0xff0>
    4ac8:	e1d310b0 	ldrh	r1, [r3]
    4acc:	e59f37ec 	ldr	r3, [pc, #2028]	; 52c0 <buzzer_handler+0x1010>
    4ad0:	e0830391 	umull	r0, r3, r1, r3
    4ad4:	e1a022a3 	lsr	r2, r3, #5
    4ad8:	e1a03002 	mov	r3, r2
    4adc:	e1a03103 	lsl	r3, r3, #2
    4ae0:	e0833002 	add	r3, r3, r2
    4ae4:	e1a02103 	lsl	r2, r3, #2
    4ae8:	e0833002 	add	r3, r3, r2
    4aec:	e1a03103 	lsl	r3, r3, #2
    4af0:	e0633001 	rsb	r3, r3, r1
    4af4:	e1a03803 	lsl	r3, r3, #16
    4af8:	e1a03823 	lsr	r3, r3, #16
    4afc:	e3530031 	cmp	r3, #49	; 0x31
    4b00:	8a000003 	bhi	4b14 <buzzer_handler+0x864>
    4b04:	e51b3018 	ldr	r3, [fp, #-24]
    4b08:	e3c33020 	bic	r3, r3, #32
    4b0c:	e50b3018 	str	r3, [fp, #-24]
    4b10:	ea000009 	b	4b3c <buzzer_handler+0x88c>
		else buz_active&=~BU_COMPASS_FAILURE;
    4b14:	e51b3018 	ldr	r3, [fp, #-24]
    4b18:	e3c33020 	bic	r3, r3, #32
    4b1c:	e50b3018 	str	r3, [fp, #-24]
		buz_priority&=~BU_ERROR_ADC;
		buz_active&=~BU_ERROR_ADC;
	}

	//compass failure: warn 3 seconds only
	if((LL_1khz_attitude_data.flightMode&FM_COMPASS_FAILURE)&&(SYSTEM_initialized)&&(error_cnt_compass++<400))
    4b20:	ea000005 	b	4b3c <buzzer_handler+0x88c>
		else if(buz_cnt%100<50) buz_active&=~BU_COMPASS_FAILURE;
		else buz_active&=~BU_COMPASS_FAILURE;
	}
	else
	{
		buz_priority&=~BU_COMPASS_FAILURE;
    4b24:	e51b3014 	ldr	r3, [fp, #-20]
    4b28:	e3c33020 	bic	r3, r3, #32
    4b2c:	e50b3014 	str	r3, [fp, #-20]
		buz_active&=~BU_COMPASS_FAILURE;
    4b30:	e51b3018 	ldr	r3, [fp, #-24]
    4b34:	e3c33020 	bic	r3, r3, #32
    4b38:	e50b3018 	str	r3, [fp, #-24]
	}

	//mag fieldstrength warning: warn 3 times only
	if((LL_1khz_attitude_data.flightMode&FM_MAG_FIELD_STRENGTH_ERROR)&&(SYSTEM_initialized)&&(error_cnt_mag_fs++<400))
    4b3c:	e59f3770 	ldr	r3, [pc, #1904]	; 52b4 <buzzer_handler+0x1004>
    4b40:	e1d335b2 	ldrh	r3, [r3, #82]	; 0x52
    4b44:	e1a03803 	lsl	r3, r3, #16
    4b48:	e1a03823 	lsr	r3, r3, #16
    4b4c:	e2033901 	and	r3, r3, #16384	; 0x4000
    4b50:	e3530000 	cmp	r3, #0
    4b54:	0a000094 	beq	4dac <buzzer_handler+0xafc>
    4b58:	e59f3758 	ldr	r3, [pc, #1880]	; 52b8 <buzzer_handler+0x1008>
    4b5c:	e5d33000 	ldrb	r3, [r3]
    4b60:	e20330ff 	and	r3, r3, #255	; 0xff
    4b64:	e3530000 	cmp	r3, #0
    4b68:	0a00008f 	beq	4dac <buzzer_handler+0xafc>
    4b6c:	e59f3750 	ldr	r3, [pc, #1872]	; 52c4 <buzzer_handler+0x1014>
    4b70:	e1d320b0 	ldrh	r2, [r3]
    4b74:	e3a03f63 	mov	r3, #396	; 0x18c
    4b78:	e2833003 	add	r3, r3, #3
    4b7c:	e1520003 	cmp	r2, r3
    4b80:	83a03000 	movhi	r3, #0
    4b84:	93a03001 	movls	r3, #1
    4b88:	e20310ff 	and	r1, r3, #255	; 0xff
    4b8c:	e2823001 	add	r3, r2, #1
    4b90:	e1a03803 	lsl	r3, r3, #16
    4b94:	e1a02823 	lsr	r2, r3, #16
    4b98:	e59f3724 	ldr	r3, [pc, #1828]	; 52c4 <buzzer_handler+0x1014>
    4b9c:	e1c320b0 	strh	r2, [r3]
    4ba0:	e2213001 	eor	r3, r1, #1
    4ba4:	e20330ff 	and	r3, r3, #255	; 0xff
    4ba8:	e3530000 	cmp	r3, #0
    4bac:	1a00007e 	bne	4dac <buzzer_handler+0xafc>
	{
		buz_priority|=BU_WARNING_MAG_FS;
    4bb0:	e51b3014 	ldr	r3, [fp, #-20]
    4bb4:	e3833040 	orr	r3, r3, #64	; 0x40
    4bb8:	e50b3014 	str	r3, [fp, #-20]
		if(buz_cnt%100<5) buz_active|=BU_WARNING_MAG_FS;
    4bbc:	e59f36dc 	ldr	r3, [pc, #1756]	; 52a0 <buzzer_handler+0xff0>
    4bc0:	e1d310b0 	ldrh	r1, [r3]
    4bc4:	e59f36f4 	ldr	r3, [pc, #1780]	; 52c0 <buzzer_handler+0x1010>
    4bc8:	e0832391 	umull	r2, r3, r1, r3
    4bcc:	e1a022a3 	lsr	r2, r3, #5
    4bd0:	e1a03002 	mov	r3, r2
    4bd4:	e1a03103 	lsl	r3, r3, #2
    4bd8:	e0833002 	add	r3, r3, r2
    4bdc:	e1a02103 	lsl	r2, r3, #2
    4be0:	e0833002 	add	r3, r3, r2
    4be4:	e1a03103 	lsl	r3, r3, #2
    4be8:	e0633001 	rsb	r3, r3, r1
    4bec:	e1a03803 	lsl	r3, r3, #16
    4bf0:	e1a03823 	lsr	r3, r3, #16
    4bf4:	e3530004 	cmp	r3, #4
    4bf8:	8a000003 	bhi	4c0c <buzzer_handler+0x95c>
    4bfc:	e51b3018 	ldr	r3, [fp, #-24]
    4c00:	e3833040 	orr	r3, r3, #64	; 0x40
    4c04:	e50b3018 	str	r3, [fp, #-24]
    4c08:	ea00006d 	b	4dc4 <buzzer_handler+0xb14>
		else if(buz_cnt%100<10) buz_active&=~BU_WARNING_MAG_FS;
    4c0c:	e59f368c 	ldr	r3, [pc, #1676]	; 52a0 <buzzer_handler+0xff0>
    4c10:	e1d310b0 	ldrh	r1, [r3]
    4c14:	e59f36a4 	ldr	r3, [pc, #1700]	; 52c0 <buzzer_handler+0x1010>
    4c18:	e0830391 	umull	r0, r3, r1, r3
    4c1c:	e1a022a3 	lsr	r2, r3, #5
    4c20:	e1a03002 	mov	r3, r2
    4c24:	e1a03103 	lsl	r3, r3, #2
    4c28:	e0833002 	add	r3, r3, r2
    4c2c:	e1a02103 	lsl	r2, r3, #2
    4c30:	e0833002 	add	r3, r3, r2
    4c34:	e1a03103 	lsl	r3, r3, #2
    4c38:	e0633001 	rsb	r3, r3, r1
    4c3c:	e1a03803 	lsl	r3, r3, #16
    4c40:	e1a03823 	lsr	r3, r3, #16
    4c44:	e3530009 	cmp	r3, #9
    4c48:	8a000003 	bhi	4c5c <buzzer_handler+0x9ac>
    4c4c:	e51b3018 	ldr	r3, [fp, #-24]
    4c50:	e3c33040 	bic	r3, r3, #64	; 0x40
    4c54:	e50b3018 	str	r3, [fp, #-24]
    4c58:	ea000059 	b	4dc4 <buzzer_handler+0xb14>
		else if(buz_cnt%100<15) buz_active|=BU_WARNING_MAG_FS;
    4c5c:	e59f363c 	ldr	r3, [pc, #1596]	; 52a0 <buzzer_handler+0xff0>
    4c60:	e1d310b0 	ldrh	r1, [r3]
    4c64:	e59f3654 	ldr	r3, [pc, #1620]	; 52c0 <buzzer_handler+0x1010>
    4c68:	e0832391 	umull	r2, r3, r1, r3
    4c6c:	e1a022a3 	lsr	r2, r3, #5
    4c70:	e1a03002 	mov	r3, r2
    4c74:	e1a03103 	lsl	r3, r3, #2
    4c78:	e0833002 	add	r3, r3, r2
    4c7c:	e1a02103 	lsl	r2, r3, #2
    4c80:	e0833002 	add	r3, r3, r2
    4c84:	e1a03103 	lsl	r3, r3, #2
    4c88:	e0633001 	rsb	r3, r3, r1
    4c8c:	e1a03803 	lsl	r3, r3, #16
    4c90:	e1a03823 	lsr	r3, r3, #16
    4c94:	e353000e 	cmp	r3, #14
    4c98:	8a000003 	bhi	4cac <buzzer_handler+0x9fc>
    4c9c:	e51b3018 	ldr	r3, [fp, #-24]
    4ca0:	e3833040 	orr	r3, r3, #64	; 0x40
    4ca4:	e50b3018 	str	r3, [fp, #-24]
    4ca8:	ea000045 	b	4dc4 <buzzer_handler+0xb14>
		else if(buz_cnt%100<20) buz_active&=~BU_WARNING_MAG_FS;
    4cac:	e59f35ec 	ldr	r3, [pc, #1516]	; 52a0 <buzzer_handler+0xff0>
    4cb0:	e1d310b0 	ldrh	r1, [r3]
    4cb4:	e59f3604 	ldr	r3, [pc, #1540]	; 52c0 <buzzer_handler+0x1010>
    4cb8:	e0830391 	umull	r0, r3, r1, r3
    4cbc:	e1a022a3 	lsr	r2, r3, #5
    4cc0:	e1a03002 	mov	r3, r2
    4cc4:	e1a03103 	lsl	r3, r3, #2
    4cc8:	e0833002 	add	r3, r3, r2
    4ccc:	e1a02103 	lsl	r2, r3, #2
    4cd0:	e0833002 	add	r3, r3, r2
    4cd4:	e1a03103 	lsl	r3, r3, #2
    4cd8:	e0633001 	rsb	r3, r3, r1
    4cdc:	e1a03803 	lsl	r3, r3, #16
    4ce0:	e1a03823 	lsr	r3, r3, #16
    4ce4:	e3530013 	cmp	r3, #19
    4ce8:	8a000003 	bhi	4cfc <buzzer_handler+0xa4c>
    4cec:	e51b3018 	ldr	r3, [fp, #-24]
    4cf0:	e3c33040 	bic	r3, r3, #64	; 0x40
    4cf4:	e50b3018 	str	r3, [fp, #-24]
    4cf8:	ea000031 	b	4dc4 <buzzer_handler+0xb14>
		else if(buz_cnt%100<25) buz_active|=BU_WARNING_MAG_FS;
    4cfc:	e59f359c 	ldr	r3, [pc, #1436]	; 52a0 <buzzer_handler+0xff0>
    4d00:	e1d310b0 	ldrh	r1, [r3]
    4d04:	e59f35b4 	ldr	r3, [pc, #1460]	; 52c0 <buzzer_handler+0x1010>
    4d08:	e0832391 	umull	r2, r3, r1, r3
    4d0c:	e1a022a3 	lsr	r2, r3, #5
    4d10:	e1a03002 	mov	r3, r2
    4d14:	e1a03103 	lsl	r3, r3, #2
    4d18:	e0833002 	add	r3, r3, r2
    4d1c:	e1a02103 	lsl	r2, r3, #2
    4d20:	e0833002 	add	r3, r3, r2
    4d24:	e1a03103 	lsl	r3, r3, #2
    4d28:	e0633001 	rsb	r3, r3, r1
    4d2c:	e1a03803 	lsl	r3, r3, #16
    4d30:	e1a03823 	lsr	r3, r3, #16
    4d34:	e3530018 	cmp	r3, #24
    4d38:	8a000003 	bhi	4d4c <buzzer_handler+0xa9c>
    4d3c:	e51b3018 	ldr	r3, [fp, #-24]
    4d40:	e3833040 	orr	r3, r3, #64	; 0x40
    4d44:	e50b3018 	str	r3, [fp, #-24]
    4d48:	ea00001d 	b	4dc4 <buzzer_handler+0xb14>
		else if(buz_cnt%100<30) buz_active&=~BU_WARNING_MAG_FS;
    4d4c:	e59f354c 	ldr	r3, [pc, #1356]	; 52a0 <buzzer_handler+0xff0>
    4d50:	e1d310b0 	ldrh	r1, [r3]
    4d54:	e59f3564 	ldr	r3, [pc, #1380]	; 52c0 <buzzer_handler+0x1010>
    4d58:	e0830391 	umull	r0, r3, r1, r3
    4d5c:	e1a022a3 	lsr	r2, r3, #5
    4d60:	e1a03002 	mov	r3, r2
    4d64:	e1a03103 	lsl	r3, r3, #2
    4d68:	e0833002 	add	r3, r3, r2
    4d6c:	e1a02103 	lsl	r2, r3, #2
    4d70:	e0833002 	add	r3, r3, r2
    4d74:	e1a03103 	lsl	r3, r3, #2
    4d78:	e0633001 	rsb	r3, r3, r1
    4d7c:	e1a03803 	lsl	r3, r3, #16
    4d80:	e1a03823 	lsr	r3, r3, #16
    4d84:	e353001d 	cmp	r3, #29
    4d88:	8a000003 	bhi	4d9c <buzzer_handler+0xaec>
    4d8c:	e51b3018 	ldr	r3, [fp, #-24]
    4d90:	e3c33040 	bic	r3, r3, #64	; 0x40
    4d94:	e50b3018 	str	r3, [fp, #-24]
    4d98:	ea000009 	b	4dc4 <buzzer_handler+0xb14>
		else buz_active&=~BU_WARNING_MAG_FS;
    4d9c:	e51b3018 	ldr	r3, [fp, #-24]
    4da0:	e3c33040 	bic	r3, r3, #64	; 0x40
    4da4:	e50b3018 	str	r3, [fp, #-24]
		buz_priority&=~BU_COMPASS_FAILURE;
		buz_active&=~BU_COMPASS_FAILURE;
	}

	//mag fieldstrength warning: warn 3 times only
	if((LL_1khz_attitude_data.flightMode&FM_MAG_FIELD_STRENGTH_ERROR)&&(SYSTEM_initialized)&&(error_cnt_mag_fs++<400))
    4da8:	ea000005 	b	4dc4 <buzzer_handler+0xb14>
		else if(buz_cnt%100<30) buz_active&=~BU_WARNING_MAG_FS;
		else buz_active&=~BU_WARNING_MAG_FS;
	}
	else
	{
		buz_priority&=~BU_WARNING_MAG_FS;
    4dac:	e51b3014 	ldr	r3, [fp, #-20]
    4db0:	e3c33040 	bic	r3, r3, #64	; 0x40
    4db4:	e50b3014 	str	r3, [fp, #-20]
		buz_active&=~BU_WARNING_MAG_FS;
    4db8:	e51b3018 	ldr	r3, [fp, #-24]
    4dbc:	e3c33040 	bic	r3, r3, #64	; 0x40
    4dc0:	e50b3018 	str	r3, [fp, #-24]
	}

	//mag inclination warning: warn 3 times only
	if((LL_1khz_attitude_data.flightMode&FM_MAG_INCLINATION_ERROR)&&(SYSTEM_initialized)&&(error_cnt_mag_inc++<400))
    4dc4:	e59f34e8 	ldr	r3, [pc, #1256]	; 52b4 <buzzer_handler+0x1004>
    4dc8:	e1d335b2 	ldrh	r3, [r3, #82]	; 0x52
    4dcc:	e1a03803 	lsl	r3, r3, #16
    4dd0:	e1a03843 	asr	r3, r3, #16
    4dd4:	e3530000 	cmp	r3, #0
    4dd8:	aa0000bc 	bge	50d0 <buzzer_handler+0xe20>
    4ddc:	e59f34d4 	ldr	r3, [pc, #1236]	; 52b8 <buzzer_handler+0x1008>
    4de0:	e5d33000 	ldrb	r3, [r3]
    4de4:	e20330ff 	and	r3, r3, #255	; 0xff
    4de8:	e3530000 	cmp	r3, #0
    4dec:	0a0000b7 	beq	50d0 <buzzer_handler+0xe20>
    4df0:	e59f34d0 	ldr	r3, [pc, #1232]	; 52c8 <buzzer_handler+0x1018>
    4df4:	e1d320b0 	ldrh	r2, [r3]
    4df8:	e3a03f63 	mov	r3, #396	; 0x18c
    4dfc:	e2833003 	add	r3, r3, #3
    4e00:	e1520003 	cmp	r2, r3
    4e04:	83a03000 	movhi	r3, #0
    4e08:	93a03001 	movls	r3, #1
    4e0c:	e20310ff 	and	r1, r3, #255	; 0xff
    4e10:	e2823001 	add	r3, r2, #1
    4e14:	e1a03803 	lsl	r3, r3, #16
    4e18:	e1a02823 	lsr	r2, r3, #16
    4e1c:	e59f34a4 	ldr	r3, [pc, #1188]	; 52c8 <buzzer_handler+0x1018>
    4e20:	e1c320b0 	strh	r2, [r3]
    4e24:	e2213001 	eor	r3, r1, #1
    4e28:	e20330ff 	and	r3, r3, #255	; 0xff
    4e2c:	e3530000 	cmp	r3, #0
    4e30:	1a0000a6 	bne	50d0 <buzzer_handler+0xe20>
	{
		buz_priority|=BU_WARNING_MAG_INC;
    4e34:	e51b3014 	ldr	r3, [fp, #-20]
    4e38:	e3833080 	orr	r3, r3, #128	; 0x80
    4e3c:	e50b3014 	str	r3, [fp, #-20]
		if(buz_cnt%100<5) buz_active|=BU_WARNING_MAG_INC;
    4e40:	e59f3458 	ldr	r3, [pc, #1112]	; 52a0 <buzzer_handler+0xff0>
    4e44:	e1d310b0 	ldrh	r1, [r3]
    4e48:	e59f3470 	ldr	r3, [pc, #1136]	; 52c0 <buzzer_handler+0x1010>
    4e4c:	e0832391 	umull	r2, r3, r1, r3
    4e50:	e1a022a3 	lsr	r2, r3, #5
    4e54:	e1a03002 	mov	r3, r2
    4e58:	e1a03103 	lsl	r3, r3, #2
    4e5c:	e0833002 	add	r3, r3, r2
    4e60:	e1a02103 	lsl	r2, r3, #2
    4e64:	e0833002 	add	r3, r3, r2
    4e68:	e1a03103 	lsl	r3, r3, #2
    4e6c:	e0633001 	rsb	r3, r3, r1
    4e70:	e1a03803 	lsl	r3, r3, #16
    4e74:	e1a03823 	lsr	r3, r3, #16
    4e78:	e3530004 	cmp	r3, #4
    4e7c:	8a000003 	bhi	4e90 <buzzer_handler+0xbe0>
    4e80:	e51b3018 	ldr	r3, [fp, #-24]
    4e84:	e3833080 	orr	r3, r3, #128	; 0x80
    4e88:	e50b3018 	str	r3, [fp, #-24]
    4e8c:	ea000095 	b	50e8 <buzzer_handler+0xe38>
		else if(buz_cnt%100<10) buz_active&=~BU_WARNING_MAG_INC;
    4e90:	e59f3408 	ldr	r3, [pc, #1032]	; 52a0 <buzzer_handler+0xff0>
    4e94:	e1d310b0 	ldrh	r1, [r3]
    4e98:	e59f3420 	ldr	r3, [pc, #1056]	; 52c0 <buzzer_handler+0x1010>
    4e9c:	e0830391 	umull	r0, r3, r1, r3
    4ea0:	e1a022a3 	lsr	r2, r3, #5
    4ea4:	e1a03002 	mov	r3, r2
    4ea8:	e1a03103 	lsl	r3, r3, #2
    4eac:	e0833002 	add	r3, r3, r2
    4eb0:	e1a02103 	lsl	r2, r3, #2
    4eb4:	e0833002 	add	r3, r3, r2
    4eb8:	e1a03103 	lsl	r3, r3, #2
    4ebc:	e0633001 	rsb	r3, r3, r1
    4ec0:	e1a03803 	lsl	r3, r3, #16
    4ec4:	e1a03823 	lsr	r3, r3, #16
    4ec8:	e3530009 	cmp	r3, #9
    4ecc:	8a000003 	bhi	4ee0 <buzzer_handler+0xc30>
    4ed0:	e51b3018 	ldr	r3, [fp, #-24]
    4ed4:	e3c33080 	bic	r3, r3, #128	; 0x80
    4ed8:	e50b3018 	str	r3, [fp, #-24]
    4edc:	ea000081 	b	50e8 <buzzer_handler+0xe38>
		else if(buz_cnt%100<15) buz_active|=BU_WARNING_MAG_INC;
    4ee0:	e59f33b8 	ldr	r3, [pc, #952]	; 52a0 <buzzer_handler+0xff0>
    4ee4:	e1d310b0 	ldrh	r1, [r3]
    4ee8:	e59f33d0 	ldr	r3, [pc, #976]	; 52c0 <buzzer_handler+0x1010>
    4eec:	e0832391 	umull	r2, r3, r1, r3
    4ef0:	e1a022a3 	lsr	r2, r3, #5
    4ef4:	e1a03002 	mov	r3, r2
    4ef8:	e1a03103 	lsl	r3, r3, #2
    4efc:	e0833002 	add	r3, r3, r2
    4f00:	e1a02103 	lsl	r2, r3, #2
    4f04:	e0833002 	add	r3, r3, r2
    4f08:	e1a03103 	lsl	r3, r3, #2
    4f0c:	e0633001 	rsb	r3, r3, r1
    4f10:	e1a03803 	lsl	r3, r3, #16
    4f14:	e1a03823 	lsr	r3, r3, #16
    4f18:	e353000e 	cmp	r3, #14
    4f1c:	8a000003 	bhi	4f30 <buzzer_handler+0xc80>
    4f20:	e51b3018 	ldr	r3, [fp, #-24]
    4f24:	e3833080 	orr	r3, r3, #128	; 0x80
    4f28:	e50b3018 	str	r3, [fp, #-24]
    4f2c:	ea00006d 	b	50e8 <buzzer_handler+0xe38>
		else if(buz_cnt%100<20) buz_active&=~BU_WARNING_MAG_INC;
    4f30:	e59f3368 	ldr	r3, [pc, #872]	; 52a0 <buzzer_handler+0xff0>
    4f34:	e1d310b0 	ldrh	r1, [r3]
    4f38:	e59f3380 	ldr	r3, [pc, #896]	; 52c0 <buzzer_handler+0x1010>
    4f3c:	e0830391 	umull	r0, r3, r1, r3
    4f40:	e1a022a3 	lsr	r2, r3, #5
    4f44:	e1a03002 	mov	r3, r2
    4f48:	e1a03103 	lsl	r3, r3, #2
    4f4c:	e0833002 	add	r3, r3, r2
    4f50:	e1a02103 	lsl	r2, r3, #2
    4f54:	e0833002 	add	r3, r3, r2
    4f58:	e1a03103 	lsl	r3, r3, #2
    4f5c:	e0633001 	rsb	r3, r3, r1
    4f60:	e1a03803 	lsl	r3, r3, #16
    4f64:	e1a03823 	lsr	r3, r3, #16
    4f68:	e3530013 	cmp	r3, #19
    4f6c:	8a000003 	bhi	4f80 <buzzer_handler+0xcd0>
    4f70:	e51b3018 	ldr	r3, [fp, #-24]
    4f74:	e3c33080 	bic	r3, r3, #128	; 0x80
    4f78:	e50b3018 	str	r3, [fp, #-24]
    4f7c:	ea000059 	b	50e8 <buzzer_handler+0xe38>
		else if(buz_cnt%100<25) buz_active|=BU_WARNING_MAG_INC;
    4f80:	e59f3318 	ldr	r3, [pc, #792]	; 52a0 <buzzer_handler+0xff0>
    4f84:	e1d310b0 	ldrh	r1, [r3]
    4f88:	e59f3330 	ldr	r3, [pc, #816]	; 52c0 <buzzer_handler+0x1010>
    4f8c:	e0832391 	umull	r2, r3, r1, r3
    4f90:	e1a022a3 	lsr	r2, r3, #5
    4f94:	e1a03002 	mov	r3, r2
    4f98:	e1a03103 	lsl	r3, r3, #2
    4f9c:	e0833002 	add	r3, r3, r2
    4fa0:	e1a02103 	lsl	r2, r3, #2
    4fa4:	e0833002 	add	r3, r3, r2
    4fa8:	e1a03103 	lsl	r3, r3, #2
    4fac:	e0633001 	rsb	r3, r3, r1
    4fb0:	e1a03803 	lsl	r3, r3, #16
    4fb4:	e1a03823 	lsr	r3, r3, #16
    4fb8:	e3530018 	cmp	r3, #24
    4fbc:	8a000003 	bhi	4fd0 <buzzer_handler+0xd20>
    4fc0:	e51b3018 	ldr	r3, [fp, #-24]
    4fc4:	e3833080 	orr	r3, r3, #128	; 0x80
    4fc8:	e50b3018 	str	r3, [fp, #-24]
    4fcc:	ea000045 	b	50e8 <buzzer_handler+0xe38>
		else if(buz_cnt%100<30) buz_active&=~BU_WARNING_MAG_INC;
    4fd0:	e59f32c8 	ldr	r3, [pc, #712]	; 52a0 <buzzer_handler+0xff0>
    4fd4:	e1d310b0 	ldrh	r1, [r3]
    4fd8:	e59f32e0 	ldr	r3, [pc, #736]	; 52c0 <buzzer_handler+0x1010>
    4fdc:	e0830391 	umull	r0, r3, r1, r3
    4fe0:	e1a022a3 	lsr	r2, r3, #5
    4fe4:	e1a03002 	mov	r3, r2
    4fe8:	e1a03103 	lsl	r3, r3, #2
    4fec:	e0833002 	add	r3, r3, r2
    4ff0:	e1a02103 	lsl	r2, r3, #2
    4ff4:	e0833002 	add	r3, r3, r2
    4ff8:	e1a03103 	lsl	r3, r3, #2
    4ffc:	e0633001 	rsb	r3, r3, r1
    5000:	e1a03803 	lsl	r3, r3, #16
    5004:	e1a03823 	lsr	r3, r3, #16
    5008:	e353001d 	cmp	r3, #29
    500c:	8a000003 	bhi	5020 <buzzer_handler+0xd70>
    5010:	e51b3018 	ldr	r3, [fp, #-24]
    5014:	e3c33080 	bic	r3, r3, #128	; 0x80
    5018:	e50b3018 	str	r3, [fp, #-24]
    501c:	ea000031 	b	50e8 <buzzer_handler+0xe38>
		else if(buz_cnt%100<35) buz_active|=BU_WARNING_MAG_INC;
    5020:	e59f3278 	ldr	r3, [pc, #632]	; 52a0 <buzzer_handler+0xff0>
    5024:	e1d310b0 	ldrh	r1, [r3]
    5028:	e59f3290 	ldr	r3, [pc, #656]	; 52c0 <buzzer_handler+0x1010>
    502c:	e0832391 	umull	r2, r3, r1, r3
    5030:	e1a022a3 	lsr	r2, r3, #5
    5034:	e1a03002 	mov	r3, r2
    5038:	e1a03103 	lsl	r3, r3, #2
    503c:	e0833002 	add	r3, r3, r2
    5040:	e1a02103 	lsl	r2, r3, #2
    5044:	e0833002 	add	r3, r3, r2
    5048:	e1a03103 	lsl	r3, r3, #2
    504c:	e0633001 	rsb	r3, r3, r1
    5050:	e1a03803 	lsl	r3, r3, #16
    5054:	e1a03823 	lsr	r3, r3, #16
    5058:	e3530022 	cmp	r3, #34	; 0x22
    505c:	8a000003 	bhi	5070 <buzzer_handler+0xdc0>
    5060:	e51b3018 	ldr	r3, [fp, #-24]
    5064:	e3833080 	orr	r3, r3, #128	; 0x80
    5068:	e50b3018 	str	r3, [fp, #-24]
    506c:	ea00001d 	b	50e8 <buzzer_handler+0xe38>
		else if(buz_cnt%100<40) buz_active&=~BU_WARNING_MAG_INC;
    5070:	e59f3228 	ldr	r3, [pc, #552]	; 52a0 <buzzer_handler+0xff0>
    5074:	e1d310b0 	ldrh	r1, [r3]
    5078:	e59f3240 	ldr	r3, [pc, #576]	; 52c0 <buzzer_handler+0x1010>
    507c:	e0830391 	umull	r0, r3, r1, r3
    5080:	e1a022a3 	lsr	r2, r3, #5
    5084:	e1a03002 	mov	r3, r2
    5088:	e1a03103 	lsl	r3, r3, #2
    508c:	e0833002 	add	r3, r3, r2
    5090:	e1a02103 	lsl	r2, r3, #2
    5094:	e0833002 	add	r3, r3, r2
    5098:	e1a03103 	lsl	r3, r3, #2
    509c:	e0633001 	rsb	r3, r3, r1
    50a0:	e1a03803 	lsl	r3, r3, #16
    50a4:	e1a03823 	lsr	r3, r3, #16
    50a8:	e3530027 	cmp	r3, #39	; 0x27
    50ac:	8a000003 	bhi	50c0 <buzzer_handler+0xe10>
    50b0:	e51b3018 	ldr	r3, [fp, #-24]
    50b4:	e3c33080 	bic	r3, r3, #128	; 0x80
    50b8:	e50b3018 	str	r3, [fp, #-24]
    50bc:	ea000009 	b	50e8 <buzzer_handler+0xe38>
		else buz_active&=~BU_WARNING_MAG_INC;
    50c0:	e51b3018 	ldr	r3, [fp, #-24]
    50c4:	e3c33080 	bic	r3, r3, #128	; 0x80
    50c8:	e50b3018 	str	r3, [fp, #-24]
		buz_priority&=~BU_WARNING_MAG_FS;
		buz_active&=~BU_WARNING_MAG_FS;
	}

	//mag inclination warning: warn 3 times only
	if((LL_1khz_attitude_data.flightMode&FM_MAG_INCLINATION_ERROR)&&(SYSTEM_initialized)&&(error_cnt_mag_inc++<400))
    50cc:	ea000005 	b	50e8 <buzzer_handler+0xe38>
		else if(buz_cnt%100<40) buz_active&=~BU_WARNING_MAG_INC;
		else buz_active&=~BU_WARNING_MAG_INC;
	}
	else
	{
		buz_priority&=~BU_WARNING_MAG_INC;
    50d0:	e51b3014 	ldr	r3, [fp, #-20]
    50d4:	e3c33080 	bic	r3, r3, #128	; 0x80
    50d8:	e50b3014 	str	r3, [fp, #-20]
		buz_active&=~BU_WARNING_MAG_INC;
    50dc:	e51b3018 	ldr	r3, [fp, #-24]
    50e0:	e3c33080 	bic	r3, r3, #128	; 0x80
    50e4:	e50b3018 	str	r3, [fp, #-24]

#endif

#ifdef INIT_BEEP

		if(!SYSTEM_initialized)
    50e8:	e59f31c8 	ldr	r3, [pc, #456]	; 52b8 <buzzer_handler+0x1008>
    50ec:	e5d33000 	ldrb	r3, [r3]
    50f0:	e20330ff 	and	r3, r3, #255	; 0xff
    50f4:	e3530000 	cmp	r3, #0
    50f8:	1a000042 	bne	5208 <buzzer_handler+0xf58>
		{
			buz_priority|=BU_INIT;
    50fc:	e51b3014 	ldr	r3, [fp, #-20]
    5100:	e3833001 	orr	r3, r3, #1
    5104:	e50b3014 	str	r3, [fp, #-20]
			if(buz_cnt%100<5) buz_active|=BU_INIT;
    5108:	e59f3190 	ldr	r3, [pc, #400]	; 52a0 <buzzer_handler+0xff0>
    510c:	e1d310b0 	ldrh	r1, [r3]
    5110:	e59f31a8 	ldr	r3, [pc, #424]	; 52c0 <buzzer_handler+0x1010>
    5114:	e0832391 	umull	r2, r3, r1, r3
    5118:	e1a022a3 	lsr	r2, r3, #5
    511c:	e1a03002 	mov	r3, r2
    5120:	e1a03103 	lsl	r3, r3, #2
    5124:	e0833002 	add	r3, r3, r2
    5128:	e1a02103 	lsl	r2, r3, #2
    512c:	e0833002 	add	r3, r3, r2
    5130:	e1a03103 	lsl	r3, r3, #2
    5134:	e0633001 	rsb	r3, r3, r1
    5138:	e1a03803 	lsl	r3, r3, #16
    513c:	e1a03823 	lsr	r3, r3, #16
    5140:	e3530004 	cmp	r3, #4
    5144:	8a000003 	bhi	5158 <buzzer_handler+0xea8>
    5148:	e51b3018 	ldr	r3, [fp, #-24]
    514c:	e3833001 	orr	r3, r3, #1
    5150:	e50b3018 	str	r3, [fp, #-24]
    5154:	ea000031 	b	5220 <buzzer_handler+0xf70>
			else if(buz_cnt%100<10) buz_active&=~BU_INIT;
    5158:	e59f3140 	ldr	r3, [pc, #320]	; 52a0 <buzzer_handler+0xff0>
    515c:	e1d310b0 	ldrh	r1, [r3]
    5160:	e59f3158 	ldr	r3, [pc, #344]	; 52c0 <buzzer_handler+0x1010>
    5164:	e0830391 	umull	r0, r3, r1, r3
    5168:	e1a022a3 	lsr	r2, r3, #5
    516c:	e1a03002 	mov	r3, r2
    5170:	e1a03103 	lsl	r3, r3, #2
    5174:	e0833002 	add	r3, r3, r2
    5178:	e1a02103 	lsl	r2, r3, #2
    517c:	e0833002 	add	r3, r3, r2
    5180:	e1a03103 	lsl	r3, r3, #2
    5184:	e0633001 	rsb	r3, r3, r1
    5188:	e1a03803 	lsl	r3, r3, #16
    518c:	e1a03823 	lsr	r3, r3, #16
    5190:	e3530009 	cmp	r3, #9
    5194:	8a000003 	bhi	51a8 <buzzer_handler+0xef8>
    5198:	e51b3018 	ldr	r3, [fp, #-24]
    519c:	e3c33001 	bic	r3, r3, #1
    51a0:	e50b3018 	str	r3, [fp, #-24]
    51a4:	ea00001d 	b	5220 <buzzer_handler+0xf70>
			else if(buz_cnt%100<15) buz_active|=BU_INIT;
    51a8:	e59f30f0 	ldr	r3, [pc, #240]	; 52a0 <buzzer_handler+0xff0>
    51ac:	e1d310b0 	ldrh	r1, [r3]
    51b0:	e59f3108 	ldr	r3, [pc, #264]	; 52c0 <buzzer_handler+0x1010>
    51b4:	e0832391 	umull	r2, r3, r1, r3
    51b8:	e1a022a3 	lsr	r2, r3, #5
    51bc:	e1a03002 	mov	r3, r2
    51c0:	e1a03103 	lsl	r3, r3, #2
    51c4:	e0833002 	add	r3, r3, r2
    51c8:	e1a02103 	lsl	r2, r3, #2
    51cc:	e0833002 	add	r3, r3, r2
    51d0:	e1a03103 	lsl	r3, r3, #2
    51d4:	e0633001 	rsb	r3, r3, r1
    51d8:	e1a03803 	lsl	r3, r3, #16
    51dc:	e1a03823 	lsr	r3, r3, #16
    51e0:	e353000e 	cmp	r3, #14
    51e4:	8a000003 	bhi	51f8 <buzzer_handler+0xf48>
    51e8:	e51b3018 	ldr	r3, [fp, #-24]
    51ec:	e3833001 	orr	r3, r3, #1
    51f0:	e50b3018 	str	r3, [fp, #-24]
    51f4:	ea000009 	b	5220 <buzzer_handler+0xf70>
			else buz_active&=~BU_INIT;
    51f8:	e51b3018 	ldr	r3, [fp, #-24]
    51fc:	e3c33001 	bic	r3, r3, #1
    5200:	e50b3018 	str	r3, [fp, #-24]
    5204:	ea000005 	b	5220 <buzzer_handler+0xf70>
		}
		else
		{
			buz_active&=~BU_INIT;
    5208:	e51b3018 	ldr	r3, [fp, #-24]
    520c:	e3c33001 	bic	r3, r3, #1
    5210:	e50b3018 	str	r3, [fp, #-24]
			buz_priority&=~BU_INIT;
    5214:	e51b3014 	ldr	r3, [fp, #-20]
    5218:	e3c33001 	bic	r3, r3, #1
    521c:	e50b3014 	str	r3, [fp, #-20]
		}
#endif

	//buzzer control
	for(unsigned char i=0;i<BUZZ_NR_OF_WARNINGS; i++)
    5220:	e3a03000 	mov	r3, #0
    5224:	e54b300d 	strb	r3, [fp, #-13]
    5228:	ea000013 	b	527c <buzzer_handler+0xfcc>
	{
		if(buz_priority&(1<<i))
    522c:	e55b200d 	ldrb	r2, [fp, #-13]
    5230:	e3a03001 	mov	r3, #1
    5234:	e1a03213 	lsl	r3, r3, r2
    5238:	e1a02003 	mov	r2, r3
    523c:	e51b3014 	ldr	r3, [fp, #-20]
    5240:	e0023003 	and	r3, r2, r3
    5244:	e3530000 	cmp	r3, #0
    5248:	0a000008 	beq	5270 <buzzer_handler+0xfc0>
		{
			buz_active&=(1<<i);
    524c:	e55b200d 	ldrb	r2, [fp, #-13]
    5250:	e3a03001 	mov	r3, #1
    5254:	e1a03213 	lsl	r3, r3, r2
    5258:	e1a02003 	mov	r2, r3
    525c:	e51b3018 	ldr	r3, [fp, #-24]
    5260:	e0033002 	and	r3, r3, r2
    5264:	e50b3018 	str	r3, [fp, #-24]
			i=BUZZ_NR_OF_WARNINGS;
    5268:	e3a03009 	mov	r3, #9
    526c:	e54b300d 	strb	r3, [fp, #-13]
			buz_priority&=~BU_INIT;
		}
#endif

	//buzzer control
	for(unsigned char i=0;i<BUZZ_NR_OF_WARNINGS; i++)
    5270:	e55b300d 	ldrb	r3, [fp, #-13]
    5274:	e2833001 	add	r3, r3, #1
    5278:	e54b300d 	strb	r3, [fp, #-13]
    527c:	e55b300d 	ldrb	r3, [fp, #-13]
    5280:	e3530008 	cmp	r3, #8
    5284:	9affffe8 	bls	522c <buzzer_handler+0xf7c>
			buz_active&=(1<<i);
			i=BUZZ_NR_OF_WARNINGS;
		}
	}

	if(buz_active) buzzer(ON);
    5288:	e51b3018 	ldr	r3, [fp, #-24]
    528c:	e3530000 	cmp	r3, #0
    5290:	0a00000d 	beq	52cc <buzzer_handler+0x101c>
    5294:	e3a00001 	mov	r0, #1
    5298:	eb000010 	bl	52e0 <buzzer>
    529c:	ea00000c 	b	52d4 <buzzer_handler+0x1024>
    52a0:	40000e18 	.word	0x40000e18
    52a4:	40000e14 	.word	0x40000e14
    52a8:	40000e10 	.word	0x40000e10
    52ac:	40000e0c 	.word	0x40000e0c
    52b0:	aaaaaaab 	.word	0xaaaaaaab
    52b4:	40001e88 	.word	0x40001e88
    52b8:	40000e38 	.word	0x40000e38
    52bc:	40000e1a 	.word	0x40000e1a
    52c0:	51eb851f 	.word	0x51eb851f
    52c4:	40000e1e 	.word	0x40000e1e
    52c8:	40000e1c 	.word	0x40000e1c
	else buzzer(OFF);
    52cc:	e3a00000 	mov	r0, #0
    52d0:	eb000002 	bl	52e0 <buzzer>
}
    52d4:	e24bd00c 	sub	sp, fp, #12
    52d8:	e89d6800 	ldm	sp, {fp, sp, lr}
    52dc:	e12fff1e 	bx	lr

000052e0 <buzzer>:


void buzzer(unsigned char offon)
{
    52e0:	e1a0c00d 	mov	ip, sp
    52e4:	e92dd800 	push	{fp, ip, lr, pc}
    52e8:	e24cb004 	sub	fp, ip, #4
    52ec:	e24dd004 	sub	sp, sp, #4
    52f0:	e1a03000 	mov	r3, r0
    52f4:	e54b3010 	strb	r3, [fp, #-16]

	if(offon)	//beeper on
    52f8:	e55b3010 	ldrb	r3, [fp, #-16]
    52fc:	e3530000 	cmp	r3, #0
    5300:	0a000005 	beq	531c <buzzer+0x3c>
	{
		IOSET1 = (1<<17);
    5304:	e3a0320e 	mov	r3, #-536870912	; 0xe0000000
    5308:	e283390a 	add	r3, r3, #163840	; 0x28000
    530c:	e2833014 	add	r3, r3, #20
    5310:	e3a02802 	mov	r2, #131072	; 0x20000
    5314:	e5832000 	str	r2, [r3]
    5318:	ea000004 	b	5330 <buzzer+0x50>
	}
	else
	{
		IOCLR1 = (1<<17);
    531c:	e3a0320e 	mov	r3, #-536870912	; 0xe0000000
    5320:	e283390a 	add	r3, r3, #163840	; 0x28000
    5324:	e283301c 	add	r3, r3, #28
    5328:	e3a02802 	mov	r2, #131072	; 0x20000
    532c:	e5832000 	str	r2, [r3]
	}
}
    5330:	e24bd00c 	sub	sp, fp, #12
    5334:	e89d6800 	ldm	sp, {fp, sp, lr}
    5338:	e12fff1e 	bx	lr

0000533c <timer0ISR>:
extern int vicon_tp;
extern float calc_pitch;
extern float calc_roll;

void timer0ISR(void) __irq
{
    533c:	e1a0c00d 	mov	ip, sp
    5340:	e92dd800 	push	{fp, ip, lr, pc}
    5344:	e24cb004 	sub	fp, ip, #4
  T0IR = 0x01;      //Clear the timer 0 interrupt
    5348:	e3a0320e 	mov	r3, #-536870912	; 0xe0000000
    534c:	e2833901 	add	r3, r3, #16384	; 0x4000
    5350:	e3a02001 	mov	r2, #1
    5354:	e5832000 	str	r2, [r3]
  IENABLE;
  trigger_cnt++;
    5358:	e59f30b4 	ldr	r3, [pc, #180]	; 5414 <timer0ISR+0xd8>
    535c:	e5933000 	ldr	r3, [r3]
    5360:	e2832001 	add	r2, r3, #1
    5364:	e59f30a8 	ldr	r3, [pc, #168]	; 5414 <timer0ISR+0xd8>
    5368:	e5832000 	str	r2, [r3]
  if(trigger_cnt==ControllerCyclesPerSecond)
    536c:	e59f30a0 	ldr	r3, [pc, #160]	; 5414 <timer0ISR+0xd8>
    5370:	e5933000 	ldr	r3, [r3]
    5374:	e3530ffa 	cmp	r3, #1000	; 0x3e8
    5378:	1a000012 	bne	53c8 <timer0ISR+0x8c>
  {
  	trigger_cnt=0;
    537c:	e59f2090 	ldr	r2, [pc, #144]	; 5414 <timer0ISR+0xd8>
    5380:	e3a03000 	mov	r3, #0
    5384:	e5823000 	str	r3, [r2]
  	HL_Status.up_time++;
    5388:	e59f3088 	ldr	r3, [pc, #136]	; 5418 <timer0ISR+0xdc>
    538c:	e1d330b4 	ldrh	r3, [r3, #4]
    5390:	e2833001 	add	r3, r3, #1
    5394:	e1a03803 	lsl	r3, r3, #16
    5398:	e1a02823 	lsr	r2, r3, #16
    539c:	e59f3074 	ldr	r3, [pc, #116]	; 5418 <timer0ISR+0xdc>
    53a0:	e1c320b4 	strh	r2, [r3, #4]
  	HL_Status.cpu_load=mainloop_cnt;
    53a4:	e59f3070 	ldr	r3, [pc, #112]	; 541c <timer0ISR+0xe0>
    53a8:	e5933000 	ldr	r3, [r3]
    53ac:	e1a03803 	lsl	r3, r3, #16
    53b0:	e1a02823 	lsr	r2, r3, #16
    53b4:	e59f305c 	ldr	r3, [pc, #92]	; 5418 <timer0ISR+0xdc>
    53b8:	e1c321b2 	strh	r2, [r3, #18]

  	mainloop_cnt=0;
    53bc:	e59f2058 	ldr	r2, [pc, #88]	; 541c <timer0ISR+0xe0>
    53c0:	e3a03000 	mov	r3, #0
    53c4:	e5823000 	str	r3, [r2]
  }

  if(mainloop_trigger<10) mainloop_trigger++;
    53c8:	e59f3050 	ldr	r3, [pc, #80]	; 5420 <timer0ISR+0xe4>
    53cc:	e5d33000 	ldrb	r3, [r3]
    53d0:	e20330ff 	and	r3, r3, #255	; 0xff
    53d4:	e3530009 	cmp	r3, #9
    53d8:	8a000006 	bhi	53f8 <timer0ISR+0xbc>
    53dc:	e59f303c 	ldr	r3, [pc, #60]	; 5420 <timer0ISR+0xe4>
    53e0:	e5d33000 	ldrb	r3, [r3]
    53e4:	e20330ff 	and	r3, r3, #255	; 0xff
    53e8:	e2833001 	add	r3, r3, #1
    53ec:	e20330ff 	and	r3, r3, #255	; 0xff
    53f0:	e59f2028 	ldr	r2, [pc, #40]	; 5420 <timer0ISR+0xe4>
    53f4:	e5c23000 	strb	r3, [r2]

  IDISABLE;
  VICVectAddr = 0;		// Acknowledge Interrupt
    53f8:	e3a03000 	mov	r3, #0
    53fc:	e2433efd 	sub	r3, r3, #4048	; 0xfd0
    5400:	e3a02000 	mov	r2, #0
    5404:	e5832000 	str	r2, [r3]
}
    5408:	e24bd00c 	sub	sp, fp, #12
    540c:	e89d6800 	ldm	sp, {fp, sp, lr}
    5410:	e12fff1e 	bx	lr
    5414:	40000e34 	.word	0x40000e34
    5418:	400020b8 	.word	0x400020b8
    541c:	40000e28 	.word	0x40000e28
    5420:	40000e2c 	.word	0x40000e2c

00005424 <main>:

/**********************************************************
                       MAIN
**********************************************************/
int	main (void) {
    5424:	e1a0c00d 	mov	ip, sp
    5428:	e92dd800 	push	{fp, ip, lr, pc}
    542c:	e24cb004 	sub	fp, ip, #4
    5430:	e24dd004 	sub	sp, sp, #4

  static int vbat1; //battery_voltage (lowpass-filtered)

  init();
    5434:	eb00039f 	bl	62b8 <init>
  buzzer(OFF);
    5438:	e3a00000 	mov	r0, #0
    543c:	ebffffa7 	bl	52e0 <buzzer>
  LL_write_init();
    5440:	eb000db2 	bl	8b10 <LL_write_init>
  PTU_init();
    5444:	eb000e43 	bl	8d58 <PTU_init>
  ADC0triggerSampling(1<<VOLTAGE_1); //activate ADC sampling
    5448:	e3a00004 	mov	r0, #4
    544c:	eb000cf1 	bl	8818 <ADC0triggerSampling>

  HL_Status.up_time=0;
    5450:	e59f31d8 	ldr	r3, [pc, #472]	; 5630 <main+0x20c>
    5454:	e3a02000 	mov	r2, #0
    5458:	e1c320b4 	strh	r2, [r3, #4]

  LED(1,ON);
    545c:	e3a00001 	mov	r0, #1
    5460:	e3a01001 	mov	r1, #1
    5464:	eb0001eb 	bl	5c18 <LED>
    5468:	eaffffff 	b	546c <main+0x48>
//  read_callback=my_read_callback;
//  write_callback=my_write_callback;

  while(1)
  {
      if(mainloop_trigger)
    546c:	e59f31c0 	ldr	r3, [pc, #448]	; 5634 <main+0x210>
    5470:	e5d33000 	ldrb	r3, [r3]
    5474:	e20330ff 	and	r3, r3, #255	; 0xff
    5478:	e3530000 	cmp	r3, #0
    547c:	0afffffa 	beq	546c <main+0x48>
      {
     	if(GPS_timeout<ControllerCyclesPerSecond) GPS_timeout++;
    5480:	e59f31b0 	ldr	r3, [pc, #432]	; 5638 <main+0x214>
    5484:	e5932000 	ldr	r2, [r3]
    5488:	e3a03ff9 	mov	r3, #996	; 0x3e4
    548c:	e2833003 	add	r3, r3, #3
    5490:	e1520003 	cmp	r2, r3
    5494:	8a000005 	bhi	54b0 <main+0x8c>
    5498:	e59f3198 	ldr	r3, [pc, #408]	; 5638 <main+0x214>
    549c:	e5933000 	ldr	r3, [r3]
    54a0:	e2832001 	add	r2, r3, #1
    54a4:	e59f318c 	ldr	r3, [pc, #396]	; 5638 <main+0x214>
    54a8:	e5832000 	str	r2, [r3]
    54ac:	ea00000d 	b	54e8 <main+0xc4>
	  	else if(GPS_timeout==ControllerCyclesPerSecond)
    54b0:	e59f3180 	ldr	r3, [pc, #384]	; 5638 <main+0x214>
    54b4:	e5933000 	ldr	r3, [r3]
    54b8:	e3530ffa 	cmp	r3, #1000	; 0x3e8
    54bc:	1a000009 	bne	54e8 <main+0xc4>
	  	{
  	 		GPS_timeout=ControllerCyclesPerSecond+1;
    54c0:	e59f2170 	ldr	r2, [pc, #368]	; 5638 <main+0x214>
    54c4:	e3a03ffa 	mov	r3, #1000	; 0x3e8
    54c8:	e2833001 	add	r3, r3, #1
    54cc:	e5823000 	str	r3, [r2]
	  		GPS_Data.status=0;
    54d0:	e59f2164 	ldr	r2, [pc, #356]	; 563c <main+0x218>
    54d4:	e3a03000 	mov	r3, #0
    54d8:	e5823028 	str	r3, [r2, #40]	; 0x28
	  		GPS_Data.numSV=0;
    54dc:	e59f2158 	ldr	r2, [pc, #344]	; 563c <main+0x218>
    54e0:	e3a03000 	mov	r3, #0
    54e4:	e5823024 	str	r3, [r2, #36]	; 0x24
	  	}

        //battery monitoring
        ADC0getSamplingResults(0xFF,adcChannelValues);
    54e8:	e3a000ff 	mov	r0, #255	; 0xff
    54ec:	e59f114c 	ldr	r1, [pc, #332]	; 5640 <main+0x21c>
    54f0:	eb000cd9 	bl	885c <ADC0getSamplingResults>
        vbat1=(vbat1*14+(adcChannelValues[VOLTAGE_1]*9872/579))/15;	//voltage in mV
    54f4:	e59f3148 	ldr	r3, [pc, #328]	; 5644 <main+0x220>
    54f8:	e5932000 	ldr	r2, [r3]
    54fc:	e1a03002 	mov	r3, r2
    5500:	e1a03183 	lsl	r3, r3, #3
    5504:	e0623003 	rsb	r3, r2, r3
    5508:	e1a03083 	lsl	r3, r3, #1
    550c:	e1a00003 	mov	r0, r3
    5510:	e59f3128 	ldr	r3, [pc, #296]	; 5640 <main+0x21c>
    5514:	e5931008 	ldr	r1, [r3, #8]
    5518:	e1a02001 	mov	r2, r1
    551c:	e1a02102 	lsl	r2, r2, #2
    5520:	e0822001 	add	r2, r2, r1
    5524:	e1a02082 	lsl	r2, r2, #1
    5528:	e0822001 	add	r2, r2, r1
    552c:	e1a03182 	lsl	r3, r2, #3
    5530:	e0623003 	rsb	r3, r2, r3
    5534:	e1a03183 	lsl	r3, r3, #3
    5538:	e0833001 	add	r3, r3, r1
    553c:	e1a03203 	lsl	r3, r3, #4
    5540:	e1a02003 	mov	r2, r3
    5544:	e3a032be 	mov	r3, #-536870901	; 0xe000000b
    5548:	e2833626 	add	r3, r3, #39845888	; 0x2600000
    554c:	e2833c63 	add	r3, r3, #25344	; 0x6300
    5550:	e0831392 	umull	r1, r3, r2, r3
    5554:	e1a034a3 	lsr	r3, r3, #9
    5558:	e0802003 	add	r2, r0, r3
    555c:	e59f30e4 	ldr	r3, [pc, #228]	; 5648 <main+0x224>
    5560:	e0831392 	umull	r1, r3, r2, r3
    5564:	e1a031a3 	lsr	r3, r3, #3
    5568:	e1a02003 	mov	r2, r3
    556c:	e59f30d0 	ldr	r3, [pc, #208]	; 5644 <main+0x220>
    5570:	e5832000 	str	r2, [r3]

		HL_Status.battery_voltage_1=vbat1;
    5574:	e59f30c8 	ldr	r3, [pc, #200]	; 5644 <main+0x220>
    5578:	e5933000 	ldr	r3, [r3]
    557c:	e1a03803 	lsl	r3, r3, #16
    5580:	e1a02823 	lsr	r2, r3, #16
    5584:	e59f30a4 	ldr	r3, [pc, #164]	; 5630 <main+0x20c>
    5588:	e1c320b0 	strh	r2, [r3]
        mainloop_cnt++;
    558c:	e59f30b8 	ldr	r3, [pc, #184]	; 564c <main+0x228>
    5590:	e5933000 	ldr	r3, [r3]
    5594:	e2832001 	add	r2, r3, #1
    5598:	e59f30ac 	ldr	r3, [pc, #172]	; 564c <main+0x228>
    559c:	e5832000 	str	r2, [r3]
		if(!(mainloop_cnt%10)) buzzer_handler(HL_Status.battery_voltage_1);
    55a0:	e59f30a4 	ldr	r3, [pc, #164]	; 564c <main+0x228>
    55a4:	e5932000 	ldr	r2, [r3]
    55a8:	e59f30a0 	ldr	r3, [pc, #160]	; 5650 <main+0x22c>
    55ac:	e0831392 	umull	r1, r3, r2, r3
    55b0:	e1a031a3 	lsr	r3, r3, #3
    55b4:	e50b3010 	str	r3, [fp, #-16]
    55b8:	e51b3010 	ldr	r3, [fp, #-16]
    55bc:	e1a03103 	lsl	r3, r3, #2
    55c0:	e51b1010 	ldr	r1, [fp, #-16]
    55c4:	e0833001 	add	r3, r3, r1
    55c8:	e1a03083 	lsl	r3, r3, #1
    55cc:	e0632002 	rsb	r2, r3, r2
    55d0:	e50b2010 	str	r2, [fp, #-16]
    55d4:	e51b3010 	ldr	r3, [fp, #-16]
    55d8:	e3530000 	cmp	r3, #0
    55dc:	1a000005 	bne	55f8 <main+0x1d4>
    55e0:	e59f3048 	ldr	r3, [pc, #72]	; 5630 <main+0x20c>
    55e4:	e1d330b0 	ldrh	r3, [r3]
    55e8:	e1a03803 	lsl	r3, r3, #16
    55ec:	e1a03843 	asr	r3, r3, #16
    55f0:	e1a00003 	mov	r0, r3
    55f4:	ebfffb2d 	bl	42b0 <buzzer_handler>

	    if(mainloop_trigger) mainloop_trigger--;
    55f8:	e59f3034 	ldr	r3, [pc, #52]	; 5634 <main+0x210>
    55fc:	e5d33000 	ldrb	r3, [r3]
    5600:	e20330ff 	and	r3, r3, #255	; 0xff
    5604:	e3530000 	cmp	r3, #0
    5608:	0a000006 	beq	5628 <main+0x204>
    560c:	e59f3020 	ldr	r3, [pc, #32]	; 5634 <main+0x210>
    5610:	e5d33000 	ldrb	r3, [r3]
    5614:	e20330ff 	and	r3, r3, #255	; 0xff
    5618:	e2433001 	sub	r3, r3, #1
    561c:	e20330ff 	and	r3, r3, #255	; 0xff
    5620:	e59f200c 	ldr	r2, [pc, #12]	; 5634 <main+0x210>
    5624:	e5c23000 	strb	r3, [r2]
        mainloop();
    5628:	eb000009 	bl	5654 <mainloop>
      }
  }
    562c:	eaffff8e 	b	546c <main+0x48>
    5630:	400020b8 	.word	0x400020b8
    5634:	40000e2c 	.word	0x40000e2c
    5638:	40000e30 	.word	0x40000e30
    563c:	40001f38 	.word	0x40001f38
    5640:	400022e4 	.word	0x400022e4
    5644:	40000e3c 	.word	0x40000e3c
    5648:	88888889 	.word	0x88888889
    564c:	40000e28 	.word	0x40000e28
    5650:	cccccccd 	.word	0xcccccccd

00005654 <mainloop>:
  return 0;
}


void mainloop(void) //mainloop is triggered at 1 kHz
{
    5654:	e1a0c00d 	mov	ip, sp
    5658:	e92dd810 	push	{r4, fp, ip, lr, pc}
    565c:	e24cb004 	sub	fp, ip, #4
    5660:	e24dd00c 	sub	sp, sp, #12
    static unsigned char led_cnt=0, led_state=1;
	unsigned char t;

	//blink red led if no GPS lock available
	led_cnt++;
    5664:	e59f354c 	ldr	r3, [pc, #1356]	; 5bb8 <mainloop+0x564>
    5668:	e5d33000 	ldrb	r3, [r3]
    566c:	e2833001 	add	r3, r3, #1
    5670:	e20330ff 	and	r3, r3, #255	; 0xff
    5674:	e59f253c 	ldr	r2, [pc, #1340]	; 5bb8 <mainloop+0x564>
    5678:	e5c23000 	strb	r3, [r2]
	if((GPS_Data.status&0xFF)==0x03)
    567c:	e59f3538 	ldr	r3, [pc, #1336]	; 5bbc <mainloop+0x568>
    5680:	e5933028 	ldr	r3, [r3, #40]	; 0x28
    5684:	e20330ff 	and	r3, r3, #255	; 0xff
    5688:	e3530003 	cmp	r3, #3
    568c:	1a000003 	bne	56a0 <mainloop+0x4c>
	{
		LED(0,OFF);
    5690:	e3a00000 	mov	r0, #0
    5694:	e3a01000 	mov	r1, #0
    5698:	eb00015e 	bl	5c18 <LED>
    569c:	ea000011 	b	56e8 <mainloop+0x94>
	}
	else
	{
	    if(led_cnt==150)
    56a0:	e59f3510 	ldr	r3, [pc, #1296]	; 5bb8 <mainloop+0x564>
    56a4:	e5d33000 	ldrb	r3, [r3]
    56a8:	e3530096 	cmp	r3, #150	; 0x96
    56ac:	1a000003 	bne	56c0 <mainloop+0x6c>
	    {
	      LED(0,ON);
    56b0:	e3a00000 	mov	r0, #0
    56b4:	e3a01001 	mov	r1, #1
    56b8:	eb000156 	bl	5c18 <LED>
    56bc:	ea000009 	b	56e8 <mainloop+0x94>
	    }
	    else if(led_cnt==200)
    56c0:	e59f34f0 	ldr	r3, [pc, #1264]	; 5bb8 <mainloop+0x564>
    56c4:	e5d33000 	ldrb	r3, [r3]
    56c8:	e35300c8 	cmp	r3, #200	; 0xc8
    56cc:	1a000005 	bne	56e8 <mainloop+0x94>
	    {
	      led_cnt=0;
    56d0:	e59f34e0 	ldr	r3, [pc, #1248]	; 5bb8 <mainloop+0x564>
    56d4:	e3a02000 	mov	r2, #0
    56d8:	e5c32000 	strb	r2, [r3]
	      LED(0,OFF);
    56dc:	e3a00000 	mov	r0, #0
    56e0:	e3a01000 	mov	r1, #0
    56e4:	eb00014b 	bl	5c18 <LED>
	    }
	}

	//after first lock, determine magnetic inclination and declination
	if (SYSTEM_initialized)
    56e8:	e59f34d0 	ldr	r3, [pc, #1232]	; 5bc0 <mainloop+0x56c>
    56ec:	e5d33000 	ldrb	r3, [r3]
    56f0:	e20330ff 	and	r3, r3, #255	; 0xff
    56f4:	e3530000 	cmp	r3, #0
    56f8:	0a000035 	beq	57d4 <mainloop+0x180>
	{
		if ((!declinationAvailable) && (GPS_Data.horizontal_accuracy<10000) && ((GPS_Data.status&0x03)==0x03)) //make sure GPS lock is valid
    56fc:	e59f34c0 	ldr	r3, [pc, #1216]	; 5bc4 <mainloop+0x570>
    5700:	e5d33000 	ldrb	r3, [r3]
    5704:	e20330ff 	and	r3, r3, #255	; 0xff
    5708:	e3530000 	cmp	r3, #0
    570c:	1a000030 	bne	57d4 <mainloop+0x180>
    5710:	e59f34a4 	ldr	r3, [pc, #1188]	; 5bbc <mainloop+0x568>
    5714:	e5932018 	ldr	r2, [r3, #24]
    5718:	e3a03c27 	mov	r3, #9984	; 0x2700
    571c:	e283300f 	add	r3, r3, #15
    5720:	e1520003 	cmp	r2, r3
    5724:	8a00002a 	bhi	57d4 <mainloop+0x180>
    5728:	e59f348c 	ldr	r3, [pc, #1164]	; 5bbc <mainloop+0x568>
    572c:	e5933028 	ldr	r3, [r3, #40]	; 0x28
    5730:	e2033003 	and	r3, r3, #3
    5734:	e3530003 	cmp	r3, #3
    5738:	1a000025 	bne	57d4 <mainloop+0x180>
		{
			int status;
			estimatedDeclination=getDeclination(GPS_Data.latitude,GPS_Data.longitude,GPS_Data.height/1000,2012,&status);
    573c:	e59f3478 	ldr	r3, [pc, #1144]	; 5bbc <mainloop+0x568>
    5740:	e5930000 	ldr	r0, [r3]
    5744:	e59f3470 	ldr	r3, [pc, #1136]	; 5bbc <mainloop+0x568>
    5748:	e593c004 	ldr	ip, [r3, #4]
    574c:	e59f3468 	ldr	r3, [pc, #1128]	; 5bbc <mainloop+0x568>
    5750:	e5931008 	ldr	r1, [r3, #8]
    5754:	e59f346c 	ldr	r3, [pc, #1132]	; 5bc8 <mainloop+0x574>
    5758:	e0c32391 	smull	r2, r3, r1, r3
    575c:	e1a02343 	asr	r2, r3, #6
    5760:	e1a03fc1 	asr	r3, r1, #31
    5764:	e0632002 	rsb	r2, r3, r2
    5768:	e24b3018 	sub	r3, fp, #24
    576c:	e58d3000 	str	r3, [sp]
    5770:	e1a0100c 	mov	r1, ip
    5774:	e3a03e7d 	mov	r3, #2000	; 0x7d0
    5778:	e283300c 	add	r3, r3, #12
    577c:	eb001e39 	bl	d068 <getDeclination>
    5780:	e1a02000 	mov	r2, r0
    5784:	e59f3440 	ldr	r3, [pc, #1088]	; 5bcc <mainloop+0x578>
    5788:	e5832000 	str	r2, [r3]
			if (estimatedDeclination<-32000) estimatedDeclination=-32000;
    578c:	e59f3438 	ldr	r3, [pc, #1080]	; 5bcc <mainloop+0x578>
    5790:	e5933000 	ldr	r3, [r3]
    5794:	e3730c7d 	cmn	r3, #32000	; 0x7d00
    5798:	aa000003 	bge	57ac <mainloop+0x158>
    579c:	e59f2428 	ldr	r2, [pc, #1064]	; 5bcc <mainloop+0x578>
    57a0:	e3a03483 	mov	r3, #-2097152000	; 0x83000000
    57a4:	e1a03843 	asr	r3, r3, #16
    57a8:	e5823000 	str	r3, [r2]
			if (estimatedDeclination>32000) estimatedDeclination=32000;
    57ac:	e59f3418 	ldr	r3, [pc, #1048]	; 5bcc <mainloop+0x578>
    57b0:	e5933000 	ldr	r3, [r3]
    57b4:	e3530c7d 	cmp	r3, #32000	; 0x7d00
    57b8:	da000002 	ble	57c8 <mainloop+0x174>
    57bc:	e59f2408 	ldr	r2, [pc, #1032]	; 5bcc <mainloop+0x578>
    57c0:	e3a03c7d 	mov	r3, #32000	; 0x7d00
    57c4:	e5823000 	str	r3, [r2]
			declinationAvailable=1;
    57c8:	e59f33f4 	ldr	r3, [pc, #1012]	; 5bc4 <mainloop+0x570>
    57cc:	e3a02001 	mov	r2, #1
    57d0:	e5c32000 	strb	r2, [r3]
		}
	}

	//toggle green LED and update SDK input struct when GPS data packet is received
    if (gpsLEDTrigger)
    57d4:	e59f33f4 	ldr	r3, [pc, #1012]	; 5bd0 <mainloop+0x57c>
    57d8:	e5d33000 	ldrb	r3, [r3]
    57dc:	e3530000 	cmp	r3, #0
    57e0:	0a000047 	beq	5904 <mainloop+0x2b0>
    {
		if(led_state)
    57e4:	e59f33e8 	ldr	r3, [pc, #1000]	; 5bd4 <mainloop+0x580>
    57e8:	e5d33000 	ldrb	r3, [r3]
    57ec:	e3530000 	cmp	r3, #0
    57f0:	0a000006 	beq	5810 <mainloop+0x1bc>
		{
			led_state=0;
    57f4:	e59f33d8 	ldr	r3, [pc, #984]	; 5bd4 <mainloop+0x580>
    57f8:	e3a02000 	mov	r2, #0
    57fc:	e5c32000 	strb	r2, [r3]
			LED(1,OFF);
    5800:	e3a00001 	mov	r0, #1
    5804:	e3a01000 	mov	r1, #0
    5808:	eb000102 	bl	5c18 <LED>
    580c:	ea000005 	b	5828 <mainloop+0x1d4>
		}
		else
		{
			LED(1,ON);
    5810:	e3a00001 	mov	r0, #1
    5814:	e3a01001 	mov	r1, #1
    5818:	eb0000fe 	bl	5c18 <LED>
			led_state=1;
    581c:	e59f33b0 	ldr	r3, [pc, #944]	; 5bd4 <mainloop+0x580>
    5820:	e3a02001 	mov	r2, #1
    5824:	e5c32000 	strb	r2, [r3]
		}

		RO_ALL_Data.GPS_height=GPS_Data.height;
    5828:	e59f338c 	ldr	r3, [pc, #908]	; 5bbc <mainloop+0x568>
    582c:	e5932008 	ldr	r2, [r3, #8]
    5830:	e59f33a0 	ldr	r3, [pc, #928]	; 5bd8 <mainloop+0x584>
    5834:	e583204c 	str	r2, [r3, #76]	; 0x4c
		RO_ALL_Data.GPS_latitude=GPS_Data.latitude;
    5838:	e59f337c 	ldr	r3, [pc, #892]	; 5bbc <mainloop+0x568>
    583c:	e5932000 	ldr	r2, [r3]
    5840:	e59f3390 	ldr	r3, [pc, #912]	; 5bd8 <mainloop+0x584>
    5844:	e5832044 	str	r2, [r3, #68]	; 0x44
		RO_ALL_Data.GPS_longitude=GPS_Data.longitude;
    5848:	e59f336c 	ldr	r3, [pc, #876]	; 5bbc <mainloop+0x568>
    584c:	e5932004 	ldr	r2, [r3, #4]
    5850:	e59f3380 	ldr	r3, [pc, #896]	; 5bd8 <mainloop+0x584>
    5854:	e5832048 	str	r2, [r3, #72]	; 0x48
		RO_ALL_Data.GPS_speed_x=GPS_Data.speed_x;
    5858:	e59f335c 	ldr	r3, [pc, #860]	; 5bbc <mainloop+0x568>
    585c:	e593200c 	ldr	r2, [r3, #12]
    5860:	e59f3370 	ldr	r3, [pc, #880]	; 5bd8 <mainloop+0x584>
    5864:	e5832050 	str	r2, [r3, #80]	; 0x50
		RO_ALL_Data.GPS_speed_y=GPS_Data.speed_y;
    5868:	e59f334c 	ldr	r3, [pc, #844]	; 5bbc <mainloop+0x568>
    586c:	e5932010 	ldr	r2, [r3, #16]
    5870:	e59f3360 	ldr	r3, [pc, #864]	; 5bd8 <mainloop+0x584>
    5874:	e5832054 	str	r2, [r3, #84]	; 0x54
		RO_ALL_Data.GPS_status=GPS_Data.status;
    5878:	e59f333c 	ldr	r3, [pc, #828]	; 5bbc <mainloop+0x568>
    587c:	e5932028 	ldr	r2, [r3, #40]	; 0x28
    5880:	e59f3350 	ldr	r3, [pc, #848]	; 5bd8 <mainloop+0x584>
    5884:	e583206c 	str	r2, [r3, #108]	; 0x6c
		RO_ALL_Data.GPS_sat_num=GPS_Data.numSV;
    5888:	e59f332c 	ldr	r3, [pc, #812]	; 5bbc <mainloop+0x568>
    588c:	e5932024 	ldr	r2, [r3, #36]	; 0x24
    5890:	e59f3340 	ldr	r3, [pc, #832]	; 5bd8 <mainloop+0x584>
    5894:	e5832068 	str	r2, [r3, #104]	; 0x68
		RO_ALL_Data.GPS_week=GPS_Time.week;
    5898:	e59f333c 	ldr	r3, [pc, #828]	; 5bdc <mainloop+0x588>
    589c:	e1d320b4 	ldrh	r2, [r3, #4]
    58a0:	e59f3330 	ldr	r3, [pc, #816]	; 5bd8 <mainloop+0x584>
    58a4:	e1c327b4 	strh	r2, [r3, #116]	; 0x74
		RO_ALL_Data.GPS_time_of_week=GPS_Time.time_of_week;
    58a8:	e59f332c 	ldr	r3, [pc, #812]	; 5bdc <mainloop+0x588>
    58ac:	e5932000 	ldr	r2, [r3]
    58b0:	e59f3320 	ldr	r3, [pc, #800]	; 5bd8 <mainloop+0x584>
    58b4:	e5832070 	str	r2, [r3, #112]	; 0x70
		RO_ALL_Data.GPS_heading=GPS_Data.heading;
    58b8:	e59f32fc 	ldr	r3, [pc, #764]	; 5bbc <mainloop+0x568>
    58bc:	e5932014 	ldr	r2, [r3, #20]
    58c0:	e59f3310 	ldr	r3, [pc, #784]	; 5bd8 <mainloop+0x584>
    58c4:	e5832058 	str	r2, [r3, #88]	; 0x58
		RO_ALL_Data.GPS_position_accuracy=GPS_Data.horizontal_accuracy;
    58c8:	e59f32ec 	ldr	r3, [pc, #748]	; 5bbc <mainloop+0x568>
    58cc:	e5932018 	ldr	r2, [r3, #24]
    58d0:	e59f3300 	ldr	r3, [pc, #768]	; 5bd8 <mainloop+0x584>
    58d4:	e583205c 	str	r2, [r3, #92]	; 0x5c
		RO_ALL_Data.GPS_speed_accuracy=GPS_Data.speed_accuracy;
    58d8:	e59f32dc 	ldr	r3, [pc, #732]	; 5bbc <mainloop+0x568>
    58dc:	e5932020 	ldr	r2, [r3, #32]
    58e0:	e59f32f0 	ldr	r3, [pc, #752]	; 5bd8 <mainloop+0x584>
    58e4:	e5832064 	str	r2, [r3, #100]	; 0x64
		RO_ALL_Data.GPS_height_accuracy=GPS_Data.vertical_accuracy;
    58e8:	e59f32cc 	ldr	r3, [pc, #716]	; 5bbc <mainloop+0x568>
    58ec:	e593201c 	ldr	r2, [r3, #28]
    58f0:	e59f32e0 	ldr	r3, [pc, #736]	; 5bd8 <mainloop+0x584>
    58f4:	e5832060 	str	r2, [r3, #96]	; 0x60

		gpsLEDTrigger=0;
    58f8:	e59f22d0 	ldr	r2, [pc, #720]	; 5bd0 <mainloop+0x57c>
    58fc:	e3a03000 	mov	r3, #0
    5900:	e5c23000 	strb	r3, [r2]
//
//	//send attitude data packet as an example how to use HL_serial_0 (please refer to uart.c for details)

//
//
	if(uart_cnt++==ControllerCyclesPerSecond/DataOutputsPerSecond)
    5904:	e59f32d4 	ldr	r3, [pc, #724]	; 5be0 <mainloop+0x58c>
    5908:	e5934000 	ldr	r4, [r3]
    590c:	e59f32d0 	ldr	r3, [pc, #720]	; 5be4 <mainloop+0x590>
    5910:	e5d33000 	ldrb	r3, [r3]
    5914:	e3a00ffa 	mov	r0, #1000	; 0x3e8
    5918:	e1a01003 	mov	r1, r3
    591c:	eb0032ea 	bl	124cc <____divsi3_from_arm>
    5920:	e1a03000 	mov	r3, r0
    5924:	e1540003 	cmp	r4, r3
    5928:	13a03000 	movne	r3, #0
    592c:	03a03001 	moveq	r3, #1
    5930:	e20310ff 	and	r1, r3, #255	; 0xff
    5934:	e2842001 	add	r2, r4, #1
    5938:	e59f32a0 	ldr	r3, [pc, #672]	; 5be0 <mainloop+0x58c>
    593c:	e5832000 	str	r2, [r3]
    5940:	e3510000 	cmp	r1, #0
    5944:	0a000094 	beq	5b9c <mainloop+0x548>
	{
		uart_cnt=0;
    5948:	e59f2290 	ldr	r2, [pc, #656]	; 5be0 <mainloop+0x58c>
    594c:	e3a03000 	mov	r3, #0
    5950:	e5823000 	str	r3, [r2]
		if(receiveCmdData.cmd==PACKAGE_DEFINE_DEBUG){
    5954:	e59f328c 	ldr	r3, [pc, #652]	; 5be8 <mainloop+0x594>
    5958:	e5933000 	ldr	r3, [r3]
    595c:	e3530005 	cmp	r3, #5
    5960:	1a000058 	bne	5ac8 <mainloop+0x474>
			sendDebugData.timestamp=vicon_tp;
    5964:	e59f3280 	ldr	r3, [pc, #640]	; 5bec <mainloop+0x598>
    5968:	e5932000 	ldr	r2, [r3]
    596c:	e59f327c 	ldr	r3, [pc, #636]	; 5bf0 <mainloop+0x59c>
    5970:	e5832000 	str	r2, [r3]
			sendDebugData.x=my_state.position.x;
    5974:	e59f3278 	ldr	r3, [pc, #632]	; 5bf4 <mainloop+0x5a0>
    5978:	e5932000 	ldr	r2, [r3]
    597c:	e59f326c 	ldr	r3, [pc, #620]	; 5bf0 <mainloop+0x59c>
    5980:	e5832004 	str	r2, [r3, #4]
			sendDebugData.y=my_state.position.y;
    5984:	e59f3268 	ldr	r3, [pc, #616]	; 5bf4 <mainloop+0x5a0>
    5988:	e5932004 	ldr	r2, [r3, #4]
    598c:	e59f325c 	ldr	r3, [pc, #604]	; 5bf0 <mainloop+0x59c>
    5990:	e5832008 	str	r2, [r3, #8]
			sendDebugData.z=my_state.position.z;
    5994:	e59f3258 	ldr	r3, [pc, #600]	; 5bf4 <mainloop+0x5a0>
    5998:	e5932008 	ldr	r2, [r3, #8]
    599c:	e59f324c 	ldr	r3, [pc, #588]	; 5bf0 <mainloop+0x59c>
    59a0:	e583200c 	str	r2, [r3, #12]
			sendDebugData.vx=receiveDebugData.vx;
    59a4:	e59f324c 	ldr	r3, [pc, #588]	; 5bf8 <mainloop+0x5a4>
    59a8:	e5932010 	ldr	r2, [r3, #16]
    59ac:	e59f323c 	ldr	r3, [pc, #572]	; 5bf0 <mainloop+0x59c>
    59b0:	e5832010 	str	r2, [r3, #16]
			sendDebugData.vy=receiveDebugData.vy;
    59b4:	e59f323c 	ldr	r3, [pc, #572]	; 5bf8 <mainloop+0x5a4>
    59b8:	e5932014 	ldr	r2, [r3, #20]
    59bc:	e59f322c 	ldr	r3, [pc, #556]	; 5bf0 <mainloop+0x59c>
    59c0:	e5832014 	str	r2, [r3, #20]
			sendDebugData.vz=my_setpoint.velocity.y;
    59c4:	e59f3230 	ldr	r3, [pc, #560]	; 5bfc <mainloop+0x5a8>
    59c8:	e5932010 	ldr	r2, [r3, #16]
    59cc:	e59f321c 	ldr	r3, [pc, #540]	; 5bf0 <mainloop+0x59c>
    59d0:	e5832018 	str	r2, [r3, #24]
//			sendDebugData.pitch=my_state.attitude.pitch;
//			sendDebugData.roll=my_state.attitude.roll;
//			sendDebugData.yaw=my_state.attitude.yaw;
			sendDebugData.pitch=RO_ALL_Data.angle_pitch;
    59d4:	e59f31fc 	ldr	r3, [pc, #508]	; 5bd8 <mainloop+0x584>
    59d8:	e5933010 	ldr	r3, [r3, #16]
    59dc:	e1a00003 	mov	r0, r3
    59e0:	eb001189 	bl	a00c <__aeabi_i2f>
    59e4:	e1a02000 	mov	r2, r0
    59e8:	e59f3200 	ldr	r3, [pc, #512]	; 5bf0 <mainloop+0x59c>
    59ec:	e583201c 	str	r2, [r3, #28]
			sendDebugData.roll=RO_ALL_Data.angle_roll;
    59f0:	e59f31e0 	ldr	r3, [pc, #480]	; 5bd8 <mainloop+0x584>
    59f4:	e5933014 	ldr	r3, [r3, #20]
    59f8:	e1a00003 	mov	r0, r3
    59fc:	eb001182 	bl	a00c <__aeabi_i2f>
    5a00:	e1a02000 	mov	r2, r0
    5a04:	e59f31e4 	ldr	r3, [pc, #484]	; 5bf0 <mainloop+0x59c>
    5a08:	e5832020 	str	r2, [r3, #32]
			sendDebugData.yaw=RO_ALL_Data.angle_yaw;
    5a0c:	e59f31c4 	ldr	r3, [pc, #452]	; 5bd8 <mainloop+0x584>
    5a10:	e5933018 	ldr	r3, [r3, #24]
    5a14:	e1a00003 	mov	r0, r3
    5a18:	eb00117b 	bl	a00c <__aeabi_i2f>
    5a1c:	e1a02000 	mov	r2, r0
    5a20:	e59f31c8 	ldr	r3, [pc, #456]	; 5bf0 <mainloop+0x59c>
    5a24:	e5832024 	str	r2, [r3, #36]	; 0x24
			sendDebugData.battery=RO_ALL_Data.fusion_height;
    5a28:	e59f31a8 	ldr	r3, [pc, #424]	; 5bd8 <mainloop+0x584>
    5a2c:	e5932078 	ldr	r2, [r3, #120]	; 0x78
    5a30:	e59f31b8 	ldr	r3, [pc, #440]	; 5bf0 <mainloop+0x59c>
    5a34:	e5832028 	str	r2, [r3, #40]	; 0x28
			sendDebugData.cpu_load=RO_ALL_Data.fusion_dheight;
    5a38:	e59f3198 	ldr	r3, [pc, #408]	; 5bd8 <mainloop+0x584>
    5a3c:	e593207c 	ldr	r2, [r3, #124]	; 0x7c
    5a40:	e59f31a8 	ldr	r3, [pc, #424]	; 5bf0 <mainloop+0x59c>
    5a44:	e583202c 	str	r2, [r3, #44]	; 0x2c
			sendDebugData.set_position=my_this.pidVY.setpoint;
    5a48:	e59f31b0 	ldr	r3, [pc, #432]	; 5c00 <mainloop+0x5ac>
    5a4c:	e5932174 	ldr	r2, [r3, #372]	; 0x174
    5a50:	e59f3198 	ldr	r3, [pc, #408]	; 5bf0 <mainloop+0x59c>
    5a54:	e5832034 	str	r2, [r3, #52]	; 0x34
			sendDebugData.set_velocity=WO_CTRL_Input.roll;
    5a58:	e59f31a4 	ldr	r3, [pc, #420]	; 5c04 <mainloop+0x5b0>
    5a5c:	e1d330b2 	ldrh	r3, [r3, #2]
    5a60:	e1a03803 	lsl	r3, r3, #16
    5a64:	e1a03843 	asr	r3, r3, #16
    5a68:	e1a00003 	mov	r0, r3
    5a6c:	eb001166 	bl	a00c <__aeabi_i2f>
    5a70:	e1a02000 	mov	r2, r0
    5a74:	e59f3174 	ldr	r3, [pc, #372]	; 5bf0 <mainloop+0x59c>
    5a78:	e5832038 	str	r2, [r3, #56]	; 0x38
			sendDebugData.vicon_count=vicon_count;
    5a7c:	e59f3184 	ldr	r3, [pc, #388]	; 5c08 <mainloop+0x5b4>
    5a80:	e5932000 	ldr	r2, [r3]
    5a84:	e59f3164 	ldr	r3, [pc, #356]	; 5bf0 <mainloop+0x59c>
    5a88:	e5832030 	str	r2, [r3, #48]	; 0x30
			sendDebugData.calc_thrust=calc_thrust;
    5a8c:	e59f3178 	ldr	r3, [pc, #376]	; 5c0c <mainloop+0x5b8>
    5a90:	e5932000 	ldr	r2, [r3]
    5a94:	e59f3154 	ldr	r3, [pc, #340]	; 5bf0 <mainloop+0x59c>
    5a98:	e583203c 	str	r2, [r3, #60]	; 0x3c
			my_send(1,PACKAGE_DEFINE_DEBUG,
    5a9c:	e3a00005 	mov	r0, #5
    5aa0:	ebfff58e 	bl	30e0 <getPackageLength>
    5aa4:	e1a03000 	mov	r3, r0
    5aa8:	e1a02003 	mov	r2, r3
    5aac:	e3a03001 	mov	r3, #1
    5ab0:	e58d3000 	str	r3, [sp]
    5ab4:	e3a00001 	mov	r0, #1
    5ab8:	e3a01005 	mov	r1, #5
    5abc:	e59f312c 	ldr	r3, [pc, #300]	; 5bf0 <mainloop+0x59c>
    5ac0:	ebfff42e 	bl	2b80 <my_send>
    5ac4:	ea000034 	b	5b9c <mainloop+0x548>
					getPackageLength(PACKAGE_DEFINE_DEBUG),
					&sendDebugData,1);
		}else if(receiveCmdData.cmd==PACKAGE_DEFINE_PARAM){
    5ac8:	e59f3118 	ldr	r3, [pc, #280]	; 5be8 <mainloop+0x594>
    5acc:	e5933000 	ldr	r3, [r3]
    5ad0:	e3530006 	cmp	r3, #6
    5ad4:	1a000030 	bne	5b9c <mainloop+0x548>
			sendParamDebug.calc_thrust=calc_thrust;
    5ad8:	e59f312c 	ldr	r3, [pc, #300]	; 5c0c <mainloop+0x5b8>
    5adc:	e5932000 	ldr	r2, [r3]
    5ae0:	e59f3128 	ldr	r3, [pc, #296]	; 5c10 <mainloop+0x5bc>
    5ae4:	e5832020 	str	r2, [r3, #32]
			sendParamDebug.ki_p=my_this.pidZ.pid.ki;
    5ae8:	e59f3110 	ldr	r3, [pc, #272]	; 5c00 <mainloop+0x5ac>
    5aec:	e5932064 	ldr	r2, [r3, #100]	; 0x64
    5af0:	e59f3118 	ldr	r3, [pc, #280]	; 5c10 <mainloop+0x5bc>
    5af4:	e5832010 	str	r2, [r3, #16]
			sendParamDebug.kp_p=my_this.pidZ.pid.kp;
    5af8:	e59f3100 	ldr	r3, [pc, #256]	; 5c00 <mainloop+0x5ac>
    5afc:	e5932060 	ldr	r2, [r3, #96]	; 0x60
    5b00:	e59f3108 	ldr	r3, [pc, #264]	; 5c10 <mainloop+0x5bc>
    5b04:	e583200c 	str	r2, [r3, #12]
			sendParamDebug.ki_v=my_this.pidVZ.pid.ki;
    5b08:	e59f30f0 	ldr	r3, [pc, #240]	; 5c00 <mainloop+0x5ac>
    5b0c:	e5932018 	ldr	r2, [r3, #24]
    5b10:	e59f30f8 	ldr	r3, [pc, #248]	; 5c10 <mainloop+0x5bc>
    5b14:	e5832008 	str	r2, [r3, #8]
			sendParamDebug.kp_v=my_this.pidVZ.pid.kp;
    5b18:	e59f30e0 	ldr	r3, [pc, #224]	; 5c00 <mainloop+0x5ac>
    5b1c:	e5932014 	ldr	r2, [r3, #20]
    5b20:	e59f30e8 	ldr	r3, [pc, #232]	; 5c10 <mainloop+0x5bc>
    5b24:	e5832004 	str	r2, [r3, #4]
			sendParamDebug.set_velocity=my_setpoint.velocity.z;
    5b28:	e59f30cc 	ldr	r3, [pc, #204]	; 5bfc <mainloop+0x5a8>
    5b2c:	e5932014 	ldr	r2, [r3, #20]
    5b30:	e59f30d8 	ldr	r3, [pc, #216]	; 5c10 <mainloop+0x5bc>
    5b34:	e583201c 	str	r2, [r3, #28]
			sendParamDebug.vz=my_state.velocity.z;
    5b38:	e59f30b4 	ldr	r3, [pc, #180]	; 5bf4 <mainloop+0x5a0>
    5b3c:	e5932014 	ldr	r2, [r3, #20]
    5b40:	e59f30c8 	ldr	r3, [pc, #200]	; 5c10 <mainloop+0x5bc>
    5b44:	e5832018 	str	r2, [r3, #24]
			sendParamDebug.z=my_state.position.z;
    5b48:	e59f30a4 	ldr	r3, [pc, #164]	; 5bf4 <mainloop+0x5a0>
    5b4c:	e5932008 	ldr	r2, [r3, #8]
    5b50:	e59f30b8 	ldr	r3, [pc, #184]	; 5c10 <mainloop+0x5bc>
    5b54:	e5832014 	str	r2, [r3, #20]
			sendParamDebug.thrust=output_thrust;
    5b58:	e59f30b4 	ldr	r3, [pc, #180]	; 5c14 <mainloop+0x5c0>
    5b5c:	e5932000 	ldr	r2, [r3]
    5b60:	e59f30a8 	ldr	r3, [pc, #168]	; 5c10 <mainloop+0x5bc>
    5b64:	e5832000 	str	r2, [r3]
			my_send(1,PACKAGE_DEFINE_PARAM,
    5b68:	e3a00006 	mov	r0, #6
    5b6c:	ebfff55b 	bl	30e0 <getPackageLength>
    5b70:	e1a03000 	mov	r3, r0
    5b74:	e1a02003 	mov	r2, r3
    5b78:	e3a03001 	mov	r3, #1
    5b7c:	e58d3000 	str	r3, [sp]
    5b80:	e3a00001 	mov	r0, #1
    5b84:	e3a01006 	mov	r1, #6
    5b88:	e59f3080 	ldr	r3, [pc, #128]	; 5c10 <mainloop+0x5bc>
    5b8c:	ebfff3fb 	bl	2b80 <my_send>
					getPackageLength(PACKAGE_DEFINE_PARAM),
					&sendParamDebug,1);
			receiveCmdData.cmd=PACKAGE_DEFINE_DEBUG;
    5b90:	e59f2050 	ldr	r2, [pc, #80]	; 5be8 <mainloop+0x594>
    5b94:	e3a03005 	mov	r3, #5
    5b98:	e5823000 	str	r3, [r2]
		}
	}
	//handle gps data reception
    uBloxReceiveEngine();
    5b9c:	eb002379 	bl	e988 <uBloxReceiveEngine>

	//run SDK mainloop. Please put all your data handling / controller code in sdk.c
	SDK_mainloop();
    5ba0:	ebffef9e 	bl	1a20 <SDK_mainloop>

    //write data to transmit buffer for immediate transfer to LL processor
    HL2LL_write_cycle();
    5ba4:	ebffeb58 	bl	90c <HL2LL_write_cycle>

    //control pan-tilt-unit ("cam option 4" @ AscTec Pelican)
    PTU_update();
    5ba8:	eb000c9d 	bl	8e24 <PTU_update>


}
    5bac:	e24bd010 	sub	sp, fp, #16
    5bb0:	e89d6810 	ldm	sp, {r4, fp, sp, lr}
    5bb4:	e12fff1e 	bx	lr
    5bb8:	40000e40 	.word	0x40000e40
    5bbc:	40001f38 	.word	0x40001f38
    5bc0:	40000e38 	.word	0x40000e38
    5bc4:	400011a4 	.word	0x400011a4
    5bc8:	10624dd3 	.word	0x10624dd3
    5bcc:	4000119c 	.word	0x4000119c
    5bd0:	40000774 	.word	0x40000774
    5bd4:	4000021d 	.word	0x4000021d
    5bd8:	40001fc8 	.word	0x40001fc8
    5bdc:	40002054 	.word	0x40002054
    5be0:	400020d0 	.word	0x400020d0
    5be4:	4000021c 	.word	0x4000021c
    5be8:	40000000 	.word	0x40000000
    5bec:	40000d94 	.word	0x40000d94
    5bf0:	40000cc4 	.word	0x40000cc4
    5bf4:	40000d9c 	.word	0x40000d9c
    5bf8:	40000d04 	.word	0x40000d04
    5bfc:	40000008 	.word	0x40000008
    5c00:	4000004c 	.word	0x4000004c
    5c04:	40001f90 	.word	0x40001f90
    5c08:	40000d90 	.word	0x40000d90
    5c0c:	40001fa0 	.word	0x40001fa0
    5c10:	40000d44 	.word	0x40000d44
    5c14:	40000004 	.word	0x40000004

00005c18 <LED>:
#include "hardware.h"
#include "irq.h"


void LED(unsigned char nr, unsigned char onoff) //set or reset LED 0..3
{
    5c18:	e1a0c00d 	mov	ip, sp
    5c1c:	e92dd800 	push	{fp, ip, lr, pc}
    5c20:	e24cb004 	sub	fp, ip, #4
    5c24:	e24dd008 	sub	sp, sp, #8
    5c28:	e1a03000 	mov	r3, r0
    5c2c:	e1a02001 	mov	r2, r1
    5c30:	e54b3010 	strb	r3, [fp, #-16]
    5c34:	e1a03002 	mov	r3, r2
    5c38:	e54b3014 	strb	r3, [fp, #-20]
  if (nr>=2)
    5c3c:	e55b3010 	ldrb	r3, [fp, #-16]
    5c40:	e3530001 	cmp	r3, #1
    5c44:	8a000013 	bhi	5c98 <LED+0x80>
  	return;
  if(onoff == OFF)
    5c48:	e55b3014 	ldrb	r3, [fp, #-20]
    5c4c:	e3530000 	cmp	r3, #0
    5c50:	1a000008 	bne	5c78 <LED+0x60>
  {
    IOSET1 = (1<<(24+nr));
    5c54:	e3a0220e 	mov	r2, #-536870912	; 0xe0000000
    5c58:	e282290a 	add	r2, r2, #163840	; 0x28000
    5c5c:	e2822014 	add	r2, r2, #20
    5c60:	e55b3010 	ldrb	r3, [fp, #-16]
    5c64:	e2831018 	add	r1, r3, #24
    5c68:	e3a03001 	mov	r3, #1
    5c6c:	e1a03113 	lsl	r3, r3, r1
    5c70:	e5823000 	str	r3, [r2]
    5c74:	ea000007 	b	5c98 <LED+0x80>
  }
  else
  {
    IOCLR1 = (1<<(24+nr));
    5c78:	e3a0220e 	mov	r2, #-536870912	; 0xe0000000
    5c7c:	e282290a 	add	r2, r2, #163840	; 0x28000
    5c80:	e282201c 	add	r2, r2, #28
    5c84:	e55b3010 	ldrb	r3, [fp, #-16]
    5c88:	e2831018 	add	r1, r3, #24
    5c8c:	e3a03001 	mov	r3, #1
    5c90:	e1a03113 	lsl	r3, r3, r1
    5c94:	e5823000 	str	r3, [r2]
  }
}
    5c98:	e24bd00c 	sub	sp, fp, #12
    5c9c:	e89d6800 	ldm	sp, {fp, sp, lr}
    5ca0:	e12fff1e 	bx	lr

00005ca4 <ee_erase>:
/*                                                                     	*/
/* revision history:                                                   	*/
/* - Rev. 1.1 adds interrupt disable feature.							*/
/*                                                                     	*/
/************************************************************************/
void ee_erase(unsigned int command_ee,unsigned int result_ee[]){
    5ca4:	e1a0c00d 	mov	ip, sp
    5ca8:	e92dd800 	push	{fp, ip, lr, pc}
    5cac:	e24cb004 	sub	fp, ip, #4
    5cb0:	e24dd02c 	sub	sp, sp, #44	; 0x2c
    5cb4:	e50b0034 	str	r0, [fp, #-52]	; 0x34
    5cb8:	e50b1038 	str	r1, [fp, #-56]	; 0x38
	unsigned int command_iap[5];
	unsigned int result_iap[3];
	unsigned long int enabled_interrupts;

	enabled_interrupts = VICIntEnable;  //disable all interrupts
    5cbc:	e3a03000 	mov	r3, #0
    5cc0:	e2433eff 	sub	r3, r3, #4080	; 0xff0
    5cc4:	e5933000 	ldr	r3, [r3]
    5cc8:	e50b3010 	str	r3, [fp, #-16]
	VICIntEnClr        = enabled_interrupts;
    5ccc:	e3e03efe 	mvn	r3, #4064	; 0xfe0
    5cd0:	e243300b 	sub	r3, r3, #11
    5cd4:	e51b2010 	ldr	r2, [fp, #-16]
    5cd8:	e5832000 	str	r2, [r3]

	command_iap[0]=50;					//prepare sectors from EE_SEC_L to EE_SEC_H for erase
    5cdc:	e3a03032 	mov	r3, #50	; 0x32
    5ce0:	e50b3024 	str	r3, [fp, #-36]	; 0x24
	command_iap[1]=EE_SEC_L;
    5ce4:	e3a0300e 	mov	r3, #14
    5ce8:	e50b3020 	str	r3, [fp, #-32]
	command_iap[2]=EE_SEC_H;
    5cec:	e3a0300e 	mov	r3, #14
    5cf0:	e50b301c 	str	r3, [fp, #-28]
	iap_entry=(IAP) IAP_LOCATION;
    5cf4:	e59f20e0 	ldr	r2, [pc, #224]	; 5ddc <ee_erase+0x138>
    5cf8:	e3e0313a 	mvn	r3, #-2147483634	; 0x8000000e
    5cfc:	e5823000 	str	r3, [r2]
	iap_entry(command_iap,result_iap);
    5d00:	e59f30d4 	ldr	r3, [pc, #212]	; 5ddc <ee_erase+0x138>
    5d04:	e593c000 	ldr	ip, [r3]
    5d08:	e24b3024 	sub	r3, fp, #36	; 0x24
    5d0c:	e24b2030 	sub	r2, fp, #48	; 0x30
    5d10:	e1a00003 	mov	r0, r3
    5d14:	e1a01002 	mov	r1, r2
    5d18:	e1a0e00f 	mov	lr, pc
    5d1c:	e12fff1c 	bx	ip

	command_iap[0]=52;					//erase sectors from EE_SEC_L to EE_SEC_H
    5d20:	e3a03034 	mov	r3, #52	; 0x34
    5d24:	e50b3024 	str	r3, [fp, #-36]	; 0x24
	command_iap[1]=EE_SEC_L;
    5d28:	e3a0300e 	mov	r3, #14
    5d2c:	e50b3020 	str	r3, [fp, #-32]
	command_iap[2]=EE_SEC_H;
    5d30:	e3a0300e 	mov	r3, #14
    5d34:	e50b301c 	str	r3, [fp, #-28]
	command_iap[3]=EE_CCLK;
    5d38:	e3a03cea 	mov	r3, #59904	; 0xea00
    5d3c:	e2833060 	add	r3, r3, #96	; 0x60
    5d40:	e50b3018 	str	r3, [fp, #-24]
	iap_entry=(IAP) IAP_LOCATION;
    5d44:	e59f2090 	ldr	r2, [pc, #144]	; 5ddc <ee_erase+0x138>
    5d48:	e3e0313a 	mvn	r3, #-2147483634	; 0x8000000e
    5d4c:	e5823000 	str	r3, [r2]
	iap_entry(command_iap,result_iap);
    5d50:	e59f3084 	ldr	r3, [pc, #132]	; 5ddc <ee_erase+0x138>
    5d54:	e593c000 	ldr	ip, [r3]
    5d58:	e24b3024 	sub	r3, fp, #36	; 0x24
    5d5c:	e24b2030 	sub	r2, fp, #48	; 0x30
    5d60:	e1a00003 	mov	r0, r3
    5d64:	e1a01002 	mov	r1, r2
    5d68:	e1a0e00f 	mov	lr, pc
    5d6c:	e12fff1c 	bx	ip

	command_iap[0]=53;					//blankcheck sectors from EE_SEC_L to EE_SEC_H
    5d70:	e3a03035 	mov	r3, #53	; 0x35
    5d74:	e50b3024 	str	r3, [fp, #-36]	; 0x24
	command_iap[1]=EE_SEC_L;
    5d78:	e3a0300e 	mov	r3, #14
    5d7c:	e50b3020 	str	r3, [fp, #-32]
	command_iap[2]=EE_SEC_H;
    5d80:	e3a0300e 	mov	r3, #14
    5d84:	e50b301c 	str	r3, [fp, #-28]
	iap_entry=(IAP) IAP_LOCATION;
    5d88:	e59f204c 	ldr	r2, [pc, #76]	; 5ddc <ee_erase+0x138>
    5d8c:	e3e0313a 	mvn	r3, #-2147483634	; 0x8000000e
    5d90:	e5823000 	str	r3, [r2]
	iap_entry(command_iap,result_iap);
    5d94:	e59f3040 	ldr	r3, [pc, #64]	; 5ddc <ee_erase+0x138>
    5d98:	e593c000 	ldr	ip, [r3]
    5d9c:	e24b3024 	sub	r3, fp, #36	; 0x24
    5da0:	e24b2030 	sub	r2, fp, #48	; 0x30
    5da4:	e1a00003 	mov	r0, r3
    5da8:	e1a01002 	mov	r1, r2
    5dac:	e1a0e00f 	mov	lr, pc
    5db0:	e12fff1c 	bx	ip

	VICIntEnable = enabled_interrupts;  //restore interrupt enable register
    5db4:	e3a03000 	mov	r3, #0
    5db8:	e2433eff 	sub	r3, r3, #4080	; 0xff0
    5dbc:	e51b2010 	ldr	r2, [fp, #-16]
    5dc0:	e5832000 	str	r2, [r3]

	result_ee[0]=result_iap[0];
    5dc4:	e51b2030 	ldr	r2, [fp, #-48]	; 0x30
    5dc8:	e51b3038 	ldr	r3, [fp, #-56]	; 0x38
    5dcc:	e5832000 	str	r2, [r3]
	return;
}
    5dd0:	e24bd00c 	sub	sp, fp, #12
    5dd4:	e89d6800 	ldm	sp, {fp, sp, lr}
    5dd8:	e12fff1e 	bx	lr
    5ddc:	40002130 	.word	0x40002130

00005de0 <ee_write>:
/*   the EEPROM. 1.0 was reporting missmatch even when there were no	*/
/*   problems at all.													*/
/*   Rev. 1.1 adds interrupt disable feature.							*/
/*                                                                     	*/
/************************************************************************/
void ee_write(unsigned int command_ee,unsigned int result_ee[]){
    5de0:	e1a0c00d 	mov	ip, sp
    5de4:	e92dd800 	push	{fp, ip, lr, pc}
    5de8:	e24cb004 	sub	fp, ip, #4
    5dec:	e24ddf4f 	sub	sp, sp, #316	; 0x13c
    5df0:	e50b0144 	str	r0, [fp, #-324]	; 0x144
    5df4:	e50b1148 	str	r1, [fp, #-328]	; 0x148
	unsigned int *source, *destination, i;
	unsigned char ee_buffer[EE_BUFFER_SIZE];
	unsigned int command_iap[5], result_iap[3];
	unsigned long int enabled_interrupts;

	location = ee_locate();
    5df8:	eb0000dc 	bl	6170 <ee_locate>
    5dfc:	e1a03000 	mov	r3, r0
    5e00:	e50b3020 	str	r3, [fp, #-32]
	if (location == -1){
    5e04:	e51b3020 	ldr	r3, [fp, #-32]
    5e08:	e3730001 	cmn	r3, #1
    5e0c:	1a000004 	bne	5e24 <ee_write+0x44>
		result_ee[0]=NO_SPACE_IN_EEPROM;
    5e10:	e51b2148 	ldr	r2, [fp, #-328]	; 0x148
    5e14:	e3a03f7d 	mov	r3, #500	; 0x1f4
    5e18:	e2833001 	add	r3, r3, #1
    5e1c:	e5823000 	str	r3, [r2]
    5e20:	ea000073 	b	5ff4 <ee_write+0x214>
	}
	else{
		for (i=0;i<EE_BUFFER_SIZE;i++) ee_buffer[i]=0xFF;
    5e24:	e3a03000 	mov	r3, #0
    5e28:	e50b3014 	str	r3, [fp, #-20]
    5e2c:	ea00000a 	b	5e5c <ee_write+0x7c>
    5e30:	e51b2014 	ldr	r2, [fp, #-20]
    5e34:	e3a034bb 	mov	r3, #-1157627904	; 0xbb000000
    5e38:	e1a03b43 	asr	r3, r3, #22
    5e3c:	e24b100c 	sub	r1, fp, #12
    5e40:	e0812002 	add	r2, r1, r2
    5e44:	e0822003 	add	r2, r2, r3
    5e48:	e3e03000 	mvn	r3, #0
    5e4c:	e5c23000 	strb	r3, [r2]
    5e50:	e51b3014 	ldr	r3, [fp, #-20]
    5e54:	e2833001 	add	r3, r3, #1
    5e58:	e50b3014 	str	r3, [fp, #-20]
    5e5c:	e51b3014 	ldr	r3, [fp, #-20]
    5e60:	e35300ff 	cmp	r3, #255	; 0xff
    5e64:	9afffff1 	bls	5e30 <ee_write+0x50>

		destination = (unsigned int *) ((&ee_buffer[0])+((unsigned int)location & EE_BUFFER_MASK));
    5e68:	e24b3e12 	sub	r3, fp, #288	; 0x120
    5e6c:	e50b3018 	str	r3, [fp, #-24]
		source = (unsigned int *) command_ee;
    5e70:	e51b3144 	ldr	r3, [fp, #-324]	; 0x144
    5e74:	e50b301c 	str	r3, [fp, #-28]
		for(i=0;i!=EE_REC_SIZE/4;i++) *(destination+i) = *(source+i);
    5e78:	e3a03000 	mov	r3, #0
    5e7c:	e50b3014 	str	r3, [fp, #-20]
    5e80:	ea00000e 	b	5ec0 <ee_write+0xe0>
    5e84:	e51b3014 	ldr	r3, [fp, #-20]
    5e88:	e1a03103 	lsl	r3, r3, #2
    5e8c:	e1a02003 	mov	r2, r3
    5e90:	e51b3018 	ldr	r3, [fp, #-24]
    5e94:	e0821003 	add	r1, r2, r3
    5e98:	e51b3014 	ldr	r3, [fp, #-20]
    5e9c:	e1a03103 	lsl	r3, r3, #2
    5ea0:	e1a02003 	mov	r2, r3
    5ea4:	e51b301c 	ldr	r3, [fp, #-28]
    5ea8:	e0823003 	add	r3, r2, r3
    5eac:	e5933000 	ldr	r3, [r3]
    5eb0:	e5813000 	str	r3, [r1]
    5eb4:	e51b3014 	ldr	r3, [fp, #-20]
    5eb8:	e2833001 	add	r3, r3, #1
    5ebc:	e50b3014 	str	r3, [fp, #-20]
    5ec0:	e51b3014 	ldr	r3, [fp, #-20]
    5ec4:	e3530040 	cmp	r3, #64	; 0x40
    5ec8:	1affffed 	bne	5e84 <ee_write+0xa4>

		enabled_interrupts = VICIntEnable;  //disable all interrupts
    5ecc:	e3a03000 	mov	r3, #0
    5ed0:	e2433eff 	sub	r3, r3, #4080	; 0xff0
    5ed4:	e5933000 	ldr	r3, [r3]
    5ed8:	e50b3010 	str	r3, [fp, #-16]
		VICIntEnClr        = enabled_interrupts;
    5edc:	e3e03efe 	mvn	r3, #4064	; 0xfe0
    5ee0:	e243300b 	sub	r3, r3, #11
    5ee4:	e51b2010 	ldr	r2, [fp, #-16]
    5ee8:	e5832000 	str	r2, [r3]

		command_iap[0]=50;					//prepare sectors from EE_SEC_L to EE_SEC_H for erase
    5eec:	e3a03032 	mov	r3, #50	; 0x32
    5ef0:	e50b3134 	str	r3, [fp, #-308]	; 0x134
		command_iap[1]=EE_SEC_L;
    5ef4:	e3a0300e 	mov	r3, #14
    5ef8:	e50b3130 	str	r3, [fp, #-304]	; 0x130
		command_iap[2]=EE_SEC_H;
    5efc:	e3a0300e 	mov	r3, #14
    5f00:	e50b312c 	str	r3, [fp, #-300]	; 0x12c
		iap_entry=(IAP) IAP_LOCATION;
    5f04:	e59f20f4 	ldr	r2, [pc, #244]	; 6000 <ee_write+0x220>
    5f08:	e3e0313a 	mvn	r3, #-2147483634	; 0x8000000e
    5f0c:	e5823000 	str	r3, [r2]
		iap_entry(command_iap,result_iap);
    5f10:	e59f30e8 	ldr	r3, [pc, #232]	; 6000 <ee_write+0x220>
    5f14:	e593c000 	ldr	ip, [r3]
    5f18:	e24b3f4d 	sub	r3, fp, #308	; 0x134
    5f1c:	e24b2d05 	sub	r2, fp, #320	; 0x140
    5f20:	e1a00003 	mov	r0, r3
    5f24:	e1a01002 	mov	r1, r2
    5f28:	e1a0e00f 	mov	lr, pc
    5f2c:	e12fff1c 	bx	ip

		command_iap[0]=51;					//copy RAM to flash/eeprom
    5f30:	e3a03033 	mov	r3, #51	; 0x33
    5f34:	e50b3134 	str	r3, [fp, #-308]	; 0x134
		command_iap[1]=(unsigned int) (location & EE_START_MASK);
    5f38:	e51b3020 	ldr	r3, [fp, #-32]
    5f3c:	e3c330ff 	bic	r3, r3, #255	; 0xff
    5f40:	e50b3130 	str	r3, [fp, #-304]	; 0x130
		command_iap[2]=(unsigned int) (&ee_buffer[0]);
    5f44:	e24b3e12 	sub	r3, fp, #288	; 0x120
    5f48:	e50b312c 	str	r3, [fp, #-300]	; 0x12c
		command_iap[3]=EE_BUFFER_SIZE;
    5f4c:	e3a03c01 	mov	r3, #256	; 0x100
    5f50:	e50b3128 	str	r3, [fp, #-296]	; 0x128
		command_iap[4]=EE_CCLK;
    5f54:	e3a03cea 	mov	r3, #59904	; 0xea00
    5f58:	e2833060 	add	r3, r3, #96	; 0x60
    5f5c:	e50b3124 	str	r3, [fp, #-292]	; 0x124
		iap_entry=(IAP) IAP_LOCATION;
    5f60:	e59f2098 	ldr	r2, [pc, #152]	; 6000 <ee_write+0x220>
    5f64:	e3e0313a 	mvn	r3, #-2147483634	; 0x8000000e
    5f68:	e5823000 	str	r3, [r2]
		iap_entry(command_iap,result_iap);
    5f6c:	e59f308c 	ldr	r3, [pc, #140]	; 6000 <ee_write+0x220>
    5f70:	e593c000 	ldr	ip, [r3]
    5f74:	e24b3f4d 	sub	r3, fp, #308	; 0x134
    5f78:	e24b2d05 	sub	r2, fp, #320	; 0x140
    5f7c:	e1a00003 	mov	r0, r3
    5f80:	e1a01002 	mov	r1, r2
    5f84:	e1a0e00f 	mov	lr, pc
    5f88:	e12fff1c 	bx	ip

		command_iap[0]=56;					//compare RAM and flash/eeprom
    5f8c:	e3a03038 	mov	r3, #56	; 0x38
    5f90:	e50b3134 	str	r3, [fp, #-308]	; 0x134
		command_iap[1]=(unsigned int) source;
    5f94:	e51b301c 	ldr	r3, [fp, #-28]
    5f98:	e50b3130 	str	r3, [fp, #-304]	; 0x130
		command_iap[2]=(unsigned int) location;
    5f9c:	e51b3020 	ldr	r3, [fp, #-32]
    5fa0:	e50b312c 	str	r3, [fp, #-300]	; 0x12c
		command_iap[3]=EE_REC_SIZE;
    5fa4:	e3a03c01 	mov	r3, #256	; 0x100
    5fa8:	e50b3128 	str	r3, [fp, #-296]	; 0x128
		iap_entry=(IAP) IAP_LOCATION;
    5fac:	e59f204c 	ldr	r2, [pc, #76]	; 6000 <ee_write+0x220>
    5fb0:	e3e0313a 	mvn	r3, #-2147483634	; 0x8000000e
    5fb4:	e5823000 	str	r3, [r2]
		iap_entry(command_iap,result_iap);
    5fb8:	e59f3040 	ldr	r3, [pc, #64]	; 6000 <ee_write+0x220>
    5fbc:	e593c000 	ldr	ip, [r3]
    5fc0:	e24b3f4d 	sub	r3, fp, #308	; 0x134
    5fc4:	e24b2d05 	sub	r2, fp, #320	; 0x140
    5fc8:	e1a00003 	mov	r0, r3
    5fcc:	e1a01002 	mov	r1, r2
    5fd0:	e1a0e00f 	mov	lr, pc
    5fd4:	e12fff1c 	bx	ip

		VICIntEnable = enabled_interrupts;  //restore interrupt enable register
    5fd8:	e3a03000 	mov	r3, #0
    5fdc:	e2433eff 	sub	r3, r3, #4080	; 0xff0
    5fe0:	e51b2010 	ldr	r2, [fp, #-16]
    5fe4:	e5832000 	str	r2, [r3]

		result_ee[0]=result_iap[0];
    5fe8:	e51b2140 	ldr	r2, [fp, #-320]	; 0x140
    5fec:	e51b3148 	ldr	r3, [fp, #-328]	; 0x148
    5ff0:	e5832000 	str	r2, [r3]
	}
	return;
}
    5ff4:	e24bd00c 	sub	sp, fp, #12
    5ff8:	e89d6800 	ldm	sp, {fp, sp, lr}
    5ffc:	e12fff1e 	bx	lr
    6000:	40002130 	.word	0x40002130

00006004 <ee_read>:
/* revision history:                                                   	*/
/* - Rev. 1.0 had problems with accessing the last record in a fully	*/
/*   occupied EEPROM. Rev. 1.1 fixes this.								*/
/*                                                                     	*/
/************************************************************************/
void ee_read(unsigned int command_ee,unsigned int result_ee[]){
    6004:	e1a0c00d 	mov	ip, sp
    6008:	e92dd800 	push	{fp, ip, lr, pc}
    600c:	e24cb004 	sub	fp, ip, #4
    6010:	e24dd00c 	sub	sp, sp, #12
    6014:	e50b0014 	str	r0, [fp, #-20]
    6018:	e50b1018 	str	r1, [fp, #-24]
	int location;

	location = ee_locate();
    601c:	eb000053 	bl	6170 <ee_locate>
    6020:	e1a03000 	mov	r3, r0
    6024:	e50b3010 	str	r3, [fp, #-16]
	if (location == EE_ADDR_L){
    6028:	e51b3010 	ldr	r3, [fp, #-16]
    602c:	e353090e 	cmp	r3, #229376	; 0x38000
    6030:	1a000003 	bne	6044 <ee_read+0x40>
		result_ee[0]=NO_RECORDS_AVAILABLE;
    6034:	e51b2018 	ldr	r2, [fp, #-24]
    6038:	e3a03f7d 	mov	r3, #500	; 0x1f4
    603c:	e5823000 	str	r3, [r2]
    6040:	ea000010 	b	6088 <ee_read+0x84>
	}
	else{
		result_ee[0]=0;
    6044:	e51b3018 	ldr	r3, [fp, #-24]
    6048:	e3a02000 	mov	r2, #0
    604c:	e5832000 	str	r2, [r3]
		if (location == -1)
    6050:	e51b3010 	ldr	r3, [fp, #-16]
    6054:	e3730001 	cmn	r3, #1
    6058:	1a000005 	bne	6074 <ee_read+0x70>
			result_ee[1]=(unsigned int)(EE_ADDR_H+1 - EE_REC_SIZE);
    605c:	e51b3018 	ldr	r3, [fp, #-24]
    6060:	e2832004 	add	r2, r3, #4
    6064:	e3a03bff 	mov	r3, #261120	; 0x3fc00
    6068:	e2833c03 	add	r3, r3, #768	; 0x300
    606c:	e5823000 	str	r3, [r2]
    6070:	ea000004 	b	6088 <ee_read+0x84>
		else
			result_ee[1]=(unsigned int)(location - EE_REC_SIZE);
    6074:	e51b3018 	ldr	r3, [fp, #-24]
    6078:	e2832004 	add	r2, r3, #4
    607c:	e51b3010 	ldr	r3, [fp, #-16]
    6080:	e2433c01 	sub	r3, r3, #256	; 0x100
    6084:	e5823000 	str	r3, [r2]
	}
	return;
}
    6088:	e24bd00c 	sub	sp, fp, #12
    608c:	e89d6800 	ldm	sp, {fp, sp, lr}
    6090:	e12fff1e 	bx	lr

00006094 <ee_readn>:
/* description:															*/
/*  This function returns in result_ee[1] an address of an EEPROM 		*/
/*  record index specified in command_ee. Index can not be less than 0.	*/
/*                                                                     	*/
/************************************************************************/
void ee_readn(unsigned int command_ee,unsigned int result_ee[]){
    6094:	e1a0c00d 	mov	ip, sp
    6098:	e92dd800 	push	{fp, ip, lr, pc}
    609c:	e24cb004 	sub	fp, ip, #4
    60a0:	e24dd008 	sub	sp, sp, #8
    60a4:	e50b0010 	str	r0, [fp, #-16]
    60a8:	e50b1014 	str	r1, [fp, #-20]
	if(command_ee>((EE_ADDR_H+1-EE_ADDR_L)/EE_REC_SIZE)){
    60ac:	e51b3010 	ldr	r3, [fp, #-16]
    60b0:	e3530080 	cmp	r3, #128	; 0x80
    60b4:	9a000004 	bls	60cc <ee_readn+0x38>
		result_ee[0]=INDEX_OUT_OF_RANGE;}
    60b8:	e51b2014 	ldr	r2, [fp, #-20]
    60bc:	e3a03f7d 	mov	r3, #500	; 0x1f4
    60c0:	e2833002 	add	r3, r3, #2
    60c4:	e5823000 	str	r3, [r2]
    60c8:	ea000008 	b	60f0 <ee_readn+0x5c>
	else{
		result_ee[0]=0;
    60cc:	e51b2014 	ldr	r2, [fp, #-20]
    60d0:	e3a03000 	mov	r3, #0
    60d4:	e5823000 	str	r3, [r2]
		result_ee[1]=(unsigned int)(EE_ADDR_L+EE_REC_SIZE*command_ee);
    60d8:	e51b3014 	ldr	r3, [fp, #-20]
    60dc:	e2832004 	add	r2, r3, #4
    60e0:	e51b3010 	ldr	r3, [fp, #-16]
    60e4:	e1a03403 	lsl	r3, r3, #8
    60e8:	e283390e 	add	r3, r3, #229376	; 0x38000
    60ec:	e5823000 	str	r3, [r2]
	}
	return;
}
    60f0:	e24bd00c 	sub	sp, fp, #12
    60f4:	e89d6800 	ldm	sp, {fp, sp, lr}
    60f8:	e12fff1e 	bx	lr

000060fc <ee_count>:
/* revision history:                                                   	*/
/* - Initial release (1.0) was not supplying the right feedback in case */
/*   of counting records in a full EEPROM. Rev. 1.1 fixes this.         */
/*                                                                     	*/
/************************************************************************/
void ee_count(unsigned int command_ee,unsigned int result_ee[]){
    60fc:	e1a0c00d 	mov	ip, sp
    6100:	e92dd800 	push	{fp, ip, lr, pc}
    6104:	e24cb004 	sub	fp, ip, #4
    6108:	e24dd00c 	sub	sp, sp, #12
    610c:	e50b0014 	str	r0, [fp, #-20]
    6110:	e50b1018 	str	r1, [fp, #-24]
	int location;
	result_ee[0]=0;
    6114:	e51b2018 	ldr	r2, [fp, #-24]
    6118:	e3a03000 	mov	r3, #0
    611c:	e5823000 	str	r3, [r2]
	location = ee_locate();
    6120:	eb000012 	bl	6170 <ee_locate>
    6124:	e1a03000 	mov	r3, r0
    6128:	e50b3010 	str	r3, [fp, #-16]
	if (location == -1) location = EE_ADDR_H+1;
    612c:	e51b3010 	ldr	r3, [fp, #-16]
    6130:	e3730001 	cmn	r3, #1
    6134:	1a000001 	bne	6140 <ee_count+0x44>
    6138:	e3a03701 	mov	r3, #262144	; 0x40000
    613c:	e50b3010 	str	r3, [fp, #-16]
	result_ee[1]=(unsigned int)((location-EE_ADDR_L)/EE_REC_SIZE);
    6140:	e51b3018 	ldr	r3, [fp, #-24]
    6144:	e2831004 	add	r1, r3, #4
    6148:	e51b3010 	ldr	r3, [fp, #-16]
    614c:	e243390e 	sub	r3, r3, #229376	; 0x38000
    6150:	e28320ff 	add	r2, r3, #255	; 0xff
    6154:	e3530000 	cmp	r3, #0
    6158:	b1a03002 	movlt	r3, r2
    615c:	e1a03443 	asr	r3, r3, #8
    6160:	e5813000 	str	r3, [r1]
	return;
}
    6164:	e24bd00c 	sub	sp, fp, #12
    6168:	e89d6800 	ldm	sp, {fp, sp, lr}
    616c:	e12fff1e 	bx	lr

00006170 <ee_locate>:
/* revision history:                                                   	*/
/* - Rev. 1.1 fixes a bug related to identifying an unused byte of 		*/
/*   EEPROM in an EEPROM with size not equal to EE_REC_SIZE * 2^k (k>=0)*/
/*                                                                     	*/
/************************************************************************/
int ee_locate(void){
    6170:	e1a0c00d 	mov	ip, sp
    6174:	e92dd800 	push	{fp, ip, lr, pc}
    6178:	e24cb004 	sub	fp, ip, #4
    617c:	e24dd018 	sub	sp, sp, #24
	unsigned int addr_l, addr_m, addr_r, size, slice_limit;
	addr_l = EE_ADDR_L;
    6180:	e3a0390e 	mov	r3, #229376	; 0x38000
    6184:	e50b3020 	str	r3, [fp, #-32]
	if ((*((unsigned char *)addr_l))==0xFF) return(addr_l);
    6188:	e51b3020 	ldr	r3, [fp, #-32]
    618c:	e5d33000 	ldrb	r3, [r3]
    6190:	e35300ff 	cmp	r3, #255	; 0xff
    6194:	1a000002 	bne	61a4 <ee_locate+0x34>
    6198:	e51b3020 	ldr	r3, [fp, #-32]
    619c:	e50b3024 	str	r3, [fp, #-36]	; 0x24
    61a0:	ea00003f 	b	62a4 <ee_locate+0x134>
	addr_r = EE_ADDR_H+1;
    61a4:	e3a03701 	mov	r3, #262144	; 0x40000
    61a8:	e50b3018 	str	r3, [fp, #-24]
	if ((*((unsigned char *)(addr_r-EE_REC_SIZE)))==EE_REC_ID) return(-1);
    61ac:	e51b3018 	ldr	r3, [fp, #-24]
    61b0:	e2433c01 	sub	r3, r3, #256	; 0x100
    61b4:	e5d33000 	ldrb	r3, [r3]
    61b8:	e35300aa 	cmp	r3, #170	; 0xaa
    61bc:	1a000002 	bne	61cc <ee_locate+0x5c>
    61c0:	e3e03000 	mvn	r3, #0
    61c4:	e50b3024 	str	r3, [fp, #-36]	; 0x24
    61c8:	ea000035 	b	62a4 <ee_locate+0x134>
	size = addr_r - addr_l;
    61cc:	e51b2018 	ldr	r2, [fp, #-24]
    61d0:	e51b3020 	ldr	r3, [fp, #-32]
    61d4:	e0633002 	rsb	r3, r3, r2
    61d8:	e50b3014 	str	r3, [fp, #-20]
	slice_limit = EE_REC_SIZE - 1;
    61dc:	e3a030ff 	mov	r3, #255	; 0xff
    61e0:	e50b3010 	str	r3, [fp, #-16]
	while(size != EE_REC_SIZE){
    61e4:	ea000029 	b	6290 <ee_locate+0x120>
		addr_m = (addr_r+addr_l)/2;
    61e8:	e51b2018 	ldr	r2, [fp, #-24]
    61ec:	e51b3020 	ldr	r3, [fp, #-32]
    61f0:	e0823003 	add	r3, r2, r3
    61f4:	e1a030a3 	lsr	r3, r3, #1
    61f8:	e50b301c 	str	r3, [fp, #-28]
		if ((addr_m & slice_limit)!=0x00000000){
    61fc:	e51b201c 	ldr	r2, [fp, #-28]
    6200:	e51b3010 	ldr	r3, [fp, #-16]
    6204:	e0023003 	and	r3, r2, r3
    6208:	e3530000 	cmp	r3, #0
    620c:	0a000013 	beq	6260 <ee_locate+0xf0>
			if ((*((unsigned char *)(addr_r - EE_REC_SIZE)))==0xFF) 
    6210:	e51b3018 	ldr	r3, [fp, #-24]
    6214:	e2433c01 	sub	r3, r3, #256	; 0x100
    6218:	e5d33000 	ldrb	r3, [r3]
    621c:	e35300ff 	cmp	r3, #255	; 0xff
    6220:	1a000003 	bne	6234 <ee_locate+0xc4>
				addr_r = addr_r - EE_REC_SIZE;
    6224:	e51b3018 	ldr	r3, [fp, #-24]
    6228:	e2433c01 	sub	r3, r3, #256	; 0x100
    622c:	e50b3018 	str	r3, [fp, #-24]
    6230:	ea000002 	b	6240 <ee_locate+0xd0>
			else
				addr_l = addr_l + EE_REC_SIZE;
    6234:	e51b3020 	ldr	r3, [fp, #-32]
    6238:	e2833c01 	add	r3, r3, #256	; 0x100
    623c:	e50b3020 	str	r3, [fp, #-32]
			addr_m = (addr_r+addr_l)/2;
    6240:	e51b2018 	ldr	r2, [fp, #-24]
    6244:	e51b3020 	ldr	r3, [fp, #-32]
    6248:	e0823003 	add	r3, r2, r3
    624c:	e1a030a3 	lsr	r3, r3, #1
    6250:	e50b301c 	str	r3, [fp, #-28]
			size = size - EE_REC_SIZE;
    6254:	e51b3014 	ldr	r3, [fp, #-20]
    6258:	e2433c01 	sub	r3, r3, #256	; 0x100
    625c:	e50b3014 	str	r3, [fp, #-20]
		}
		if ((*((unsigned char *)addr_m))==0xFF)
    6260:	e51b301c 	ldr	r3, [fp, #-28]
    6264:	e5d33000 	ldrb	r3, [r3]
    6268:	e35300ff 	cmp	r3, #255	; 0xff
    626c:	1a000002 	bne	627c <ee_locate+0x10c>
			addr_r = addr_m;
    6270:	e51b301c 	ldr	r3, [fp, #-28]
    6274:	e50b3018 	str	r3, [fp, #-24]
    6278:	ea000001 	b	6284 <ee_locate+0x114>
		else
			addr_l = addr_m;
    627c:	e51b301c 	ldr	r3, [fp, #-28]
    6280:	e50b3020 	str	r3, [fp, #-32]
		size = size/2;
    6284:	e51b3014 	ldr	r3, [fp, #-20]
    6288:	e1a030a3 	lsr	r3, r3, #1
    628c:	e50b3014 	str	r3, [fp, #-20]
	if ((*((unsigned char *)addr_l))==0xFF) return(addr_l);
	addr_r = EE_ADDR_H+1;
	if ((*((unsigned char *)(addr_r-EE_REC_SIZE)))==EE_REC_ID) return(-1);
	size = addr_r - addr_l;
	slice_limit = EE_REC_SIZE - 1;
	while(size != EE_REC_SIZE){
    6290:	e51b3014 	ldr	r3, [fp, #-20]
    6294:	e3530c01 	cmp	r3, #256	; 0x100
    6298:	1affffd2 	bne	61e8 <ee_locate+0x78>
			addr_r = addr_m;
		else
			addr_l = addr_m;
		size = size/2;
	}
	return(addr_r);
    629c:	e51b3018 	ldr	r3, [fp, #-24]
    62a0:	e50b3024 	str	r3, [fp, #-36]	; 0x24
    62a4:	e51b3024 	ldr	r3, [fp, #-36]	; 0x24
}
    62a8:	e1a00003 	mov	r0, r3
    62ac:	e24bd00c 	sub	sp, fp, #12
    62b0:	e89d6800 	ldm	sp, {fp, sp, lr}
    62b4:	e12fff1e 	bx	lr

000062b8 <init>:
#include "i2c.h"
#include "ssp.h"
#include "adc.h"

void init(void)
{
    62b8:	e1a0c00d 	mov	ip, sp
    62bc:	e92dd800 	push	{fp, ip, lr, pc}
    62c0:	e24cb004 	sub	fp, ip, #4
  MAMCR = 0x02;  //Memory Acceleration enabled
    62c4:	e3a0320e 	mov	r3, #-536870912	; 0xe0000000
    62c8:	e283397f 	add	r3, r3, #2080768	; 0x1fc000
    62cc:	e3a02002 	mov	r2, #2
    62d0:	e5832000 	str	r2, [r3]
  MAMTIM = 0x04;
    62d4:	e3a0324e 	mov	r3, #-536870908	; 0xe0000004
    62d8:	e283397f 	add	r3, r3, #2080768	; 0x1fc000
    62dc:	e3a02004 	mov	r2, #4
    62e0:	e5832000 	str	r2, [r3]
  VPBDIV = 0x01;  //0x01: peripheral frequency == cpu frequency, 0x00: per. freq. = crystal freq.
    62e4:	e3a0320e 	mov	r3, #-536870912	; 0xe0000000
    62e8:	e283397f 	add	r3, r3, #2080768	; 0x1fc000
    62ec:	e2833c01 	add	r3, r3, #256	; 0x100
    62f0:	e3a02001 	mov	r2, #1
    62f4:	e5832000 	str	r2, [r3]
  pll_init();
    62f8:	eb0000f1 	bl	66c4 <pll_init>
  pll_feed();
    62fc:	eb000100 	bl	6704 <pll_feed>
  init_ports();
    6300:	eb000039 	bl	63ec <init_ports>
  UARTInitialize(57600);	//debug / command
    6304:	e3a00ce1 	mov	r0, #57600	; 0xe100
    6308:	eb00028a 	bl	6d38 <UARTInitialize>
  UART1Initialize(57600);	//57600 Servo / GPS, 38400 "indoor GPS"
    630c:	e3a00ce1 	mov	r0, #57600	; 0xe100
    6310:	eb0002b3 	bl	6de4 <UART1Initialize>
  init_spi();
    6314:	eb0000b5 	bl	65f0 <init_spi>
  init_spi1();
    6318:	eb0000c2 	bl	6628 <init_spi1>
  init_timer0();
    631c:	eb00005c 	bl	6494 <init_timer0>
//  I2CInit(I2CMASTER);
  PWM_Init();
    6320:	eb000085 	bl	653c <PWM_Init>
  ADCInit(ADC_CLK);
    6324:	e3a0093d 	mov	r0, #999424	; 0xf4000
    6328:	e2800d09 	add	r0, r0, #576	; 0x240
    632c:	eb000886 	bl	854c <ADCInit>
  init_interrupts();
    6330:	eb000002 	bl	6340 <init_interrupts>
 }
    6334:	e24bd00c 	sub	sp, fp, #12
    6338:	e89d6800 	ldm	sp, {fp, sp, lr}
    633c:	e12fff1e 	bx	lr

00006340 <init_interrupts>:

void init_interrupts(void)
{
    6340:	e1a0c00d 	mov	ip, sp
    6344:	e92dd800 	push	{fp, ip, lr, pc}
    6348:	e24cb004 	sub	fp, ip, #4
  init_VIC();
    634c:	eb0007d2 	bl	829c <init_VIC>

  //Timer0 interrupt
  install_irq( TIMER0_INT, (void *) timer0ISR );
    6350:	e3a00004 	mov	r0, #4
    6354:	e59f1080 	ldr	r1, [pc, #128]	; 63dc <init_interrupts+0x9c>
    6358:	eb000800 	bl	8360 <install_irq>

  //UART1 interrupt
  install_irq( UART1_INT, (void *) uart1ISR );
    635c:	e3a00007 	mov	r0, #7
    6360:	e59f1078 	ldr	r1, [pc, #120]	; 63e0 <init_interrupts+0xa0>
    6364:	eb0007fd 	bl	8360 <install_irq>
  U1IER = 3; //=3; enable THRE and RX interrupt
    6368:	e3a0324e 	mov	r3, #-536870908	; 0xe0000004
    636c:	e2833801 	add	r3, r3, #65536	; 0x10000
    6370:	e3a02003 	mov	r2, #3
    6374:	e5832000 	str	r2, [r3]

  //UART0 interrupt
  install_irq( UART0_INT, (void *) uart0ISR );
    6378:	e3a00006 	mov	r0, #6
    637c:	e59f1060 	ldr	r1, [pc, #96]	; 63e4 <init_interrupts+0xa4>
    6380:	eb0007f6 	bl	8360 <install_irq>
  U0IER = 3; //=3; enable THRE and RX interrupt
    6384:	e3a03903 	mov	r3, #49152	; 0xc000
    6388:	e283324e 	add	r3, r3, #-536870908	; 0xe0000004
    638c:	e3a02003 	mov	r2, #3
    6390:	e5832000 	str	r2, [r3]
  //I2C0 interrupt
//  install_irq( I2C0_INT, (void *) I2C0MasterHandler );
//  I20CONSET = I2CONSET_I2EN;

  //SSP interrupt
  install_irq( SPI1_INT, (void *) SSPHandler );
    6394:	e3a0000b 	mov	r0, #11
    6398:	e59f1048 	ldr	r1, [pc, #72]	; 63e8 <init_interrupts+0xa8>
    639c:	eb0007ef 	bl	8360 <install_irq>
  /* Set SSPINMS registers to enable interrupts */
  /* enable all interrupts, Rx overrun, Rx timeout, RX FIFO half full int,
  TX FIFO half empty int */
  SSPIMSC = SSPIMSC_TXIM | SSPIMSC_RXIM | SSPIMSC_RORIM;// | SSPIMSC_RTIM;
    63a0:	e3a0320e 	mov	r3, #-536870912	; 0xe0000000
    63a4:	e283391a 	add	r3, r3, #425984	; 0x68000
    63a8:	e2833014 	add	r3, r3, #20
    63ac:	e3a0200d 	mov	r2, #13
    63b0:	e5832000 	str	r2, [r3]
  /* SSP Enabled */
  SSPCR1 |= SSPCR1_SSE;
    63b4:	e3a0224e 	mov	r2, #-536870908	; 0xe0000004
    63b8:	e282291a 	add	r2, r2, #425984	; 0x68000
    63bc:	e3a0324e 	mov	r3, #-536870908	; 0xe0000004
    63c0:	e283391a 	add	r3, r3, #425984	; 0x68000
    63c4:	e5933000 	ldr	r3, [r3]
    63c8:	e3833002 	orr	r3, r3, #2
    63cc:	e5823000 	str	r3, [r2]
}
    63d0:	e24bd00c 	sub	sp, fp, #12
    63d4:	e89d6800 	ldm	sp, {fp, sp, lr}
    63d8:	e12fff1e 	bx	lr
    63dc:	0000533c 	.word	0x0000533c
    63e0:	00006844 	.word	0x00006844
    63e4:	00006914 	.word	0x00006914
    63e8:	00008938 	.word	0x00008938

000063ec <init_ports>:


void init_ports(void)
{
    63ec:	e1a0c00d 	mov	ip, sp
    63f0:	e92dd800 	push	{fp, ip, lr, pc}
    63f4:	e24cb004 	sub	fp, ip, #4
 * Byte3_sel = 0b00110000 = 0x30
 * Byte1_io_dir = 0x00
 * or SD_Logging => Byte1_io_dir=0x40
 */

 	PINSEL0=0x30C51555;
    63f8:	e3a0320e 	mov	r3, #-536870912	; 0xe0000000
    63fc:	e283390b 	add	r3, r3, #180224	; 0x2c000
    6400:	e59f2084 	ldr	r2, [pc, #132]	; 648c <init_ports+0xa0>
    6404:	e5832000 	str	r2, [r3]
  * P0.30: CURRENT_1: -> 01
  * P0.31: IO_in -> 00
  * Byte3: 0b00010101 = 0x15
  * Byte3_io_dir=0x00
  */
 PINSEL1 = 0x150406A8;
    6408:	e3a0324e 	mov	r3, #-536870908	; 0xe0000004
    640c:	e283390b 	add	r3, r3, #180224	; 0x2c000
    6410:	e59f2078 	ldr	r2, [pc, #120]	; 6490 <init_ports+0xa4>
    6414:	e5832000 	str	r2, [r3]

 PINSEL2 = 0x00000004;
    6418:	e3a0320e 	mov	r3, #-536870912	; 0xe0000000
    641c:	e283390b 	add	r3, r3, #180224	; 0x2c000
    6420:	e2833014 	add	r3, r3, #20
    6424:	e3a02004 	mov	r2, #4
    6428:	e5832000 	str	r2, [r3]

 IODIR0 = 0x0030B480;
    642c:	e3a0228e 	mov	r2, #-536870904	; 0xe0000008
    6430:	e282290a 	add	r2, r2, #163840	; 0x28000
    6434:	e3a039c2 	mov	r3, #3178496	; 0x308000
    6438:	e2833dd2 	add	r3, r3, #13440	; 0x3480
    643c:	e5823000 	str	r3, [r2]

 IOSET0 = (1<<EXT_NCS)|(1<<11); //all nCS high
    6440:	e3a0324e 	mov	r3, #-536870908	; 0xe0000004
    6444:	e283390a 	add	r3, r3, #163840	; 0x28000
    6448:	e3a02d22 	mov	r2, #2176	; 0x880
    644c:	e5832000 	str	r2, [r3]
 * P1.24: LED1/IO_out
 * P1.25: LED2/IO_out
 *
 */

 IODIR1 = 0x03030000;
    6450:	e3a0220e 	mov	r2, #-536870912	; 0xe0000000
    6454:	e282290a 	add	r2, r2, #163840	; 0x28000
    6458:	e2822018 	add	r2, r2, #24
    645c:	e3a03403 	mov	r3, #50331648	; 0x3000000
    6460:	e2833803 	add	r3, r3, #196608	; 0x30000
    6464:	e5823000 	str	r3, [r2]
 IOSET1 = ((1<<24)|(1<<16)); //turn off LED1, turn beeper off
    6468:	e3a0220e 	mov	r2, #-536870912	; 0xe0000000
    646c:	e282290a 	add	r2, r2, #163840	; 0x28000
    6470:	e2822014 	add	r2, r2, #20
    6474:	e3a03401 	mov	r3, #16777216	; 0x1000000
    6478:	e2833801 	add	r3, r3, #65536	; 0x10000
    647c:	e5823000 	str	r3, [r2]

}
    6480:	e24bd00c 	sub	sp, fp, #12
    6484:	e89d6800 	ldm	sp, {fp, sp, lr}
    6488:	e12fff1e 	bx	lr
    648c:	30c51555 	.word	0x30c51555
    6490:	150406a8 	.word	0x150406a8

00006494 <init_timer0>:

void init_timer0(void)
{
    6494:	e1a0c00d 	mov	ip, sp
    6498:	e92dd810 	push	{r4, fp, ip, lr, pc}
    649c:	e24cb004 	sub	fp, ip, #4
  T0TC=0;
    64a0:	e3a03901 	mov	r3, #16384	; 0x4000
    64a4:	e283328e 	add	r3, r3, #-536870904	; 0xe0000008
    64a8:	e3a02000 	mov	r2, #0
    64ac:	e5832000 	str	r2, [r3]
  T0TCR=0x0;    //Reset timer0
    64b0:	e3a03901 	mov	r3, #16384	; 0x4000
    64b4:	e283324e 	add	r3, r3, #-536870908	; 0xe0000004
    64b8:	e3a02000 	mov	r2, #0
    64bc:	e5832000 	str	r2, [r3]
  T0MCR=0x3;    //Interrupt on match MR0 and reset counter
    64c0:	e3a0320e 	mov	r3, #-536870912	; 0xe0000000
    64c4:	e2833901 	add	r3, r3, #16384	; 0x4000
    64c8:	e2833014 	add	r3, r3, #20
    64cc:	e3a02003 	mov	r2, #3
    64d0:	e5832000 	str	r2, [r3]
  T0PR=0;
    64d4:	e3a03901 	mov	r3, #16384	; 0x4000
    64d8:	e28332ce 	add	r3, r3, #-536870900	; 0xe000000c
    64dc:	e3a02000 	mov	r2, #0
    64e0:	e5832000 	str	r2, [r3]
  T0PC=0;     //Prescale Counter = 0
    64e4:	e3a0320e 	mov	r3, #-536870912	; 0xe0000000
    64e8:	e2833901 	add	r3, r3, #16384	; 0x4000
    64ec:	e2833010 	add	r3, r3, #16
    64f0:	e3a02000 	mov	r2, #0
    64f4:	e5832000 	str	r2, [r3]
  T0MR0=peripheralClockFrequency()/ControllerCyclesPerSecond; // /200 => 200 Hz Period
    64f8:	e3a0420e 	mov	r4, #-536870912	; 0xe0000000
    64fc:	e2844901 	add	r4, r4, #16384	; 0x4000
    6500:	e2844018 	add	r4, r4, #24
    6504:	eb000096 	bl	6764 <peripheralClockFrequency>
    6508:	e1a02000 	mov	r2, r0
    650c:	e59f3024 	ldr	r3, [pc, #36]	; 6538 <init_timer0+0xa4>
    6510:	e0831392 	umull	r1, r3, r2, r3
    6514:	e1a03323 	lsr	r3, r3, #6
    6518:	e5843000 	str	r3, [r4]
  T0TCR=0x1;   //Set timer0
    651c:	e3a03901 	mov	r3, #16384	; 0x4000
    6520:	e283324e 	add	r3, r3, #-536870908	; 0xe0000004
    6524:	e3a02001 	mov	r2, #1
    6528:	e5832000 	str	r2, [r3]
}
    652c:	e24bd010 	sub	sp, fp, #16
    6530:	e89d6810 	ldm	sp, {r4, fp, sp, lr}
    6534:	e12fff1e 	bx	lr
    6538:	10624dd3 	.word	0x10624dd3

0000653c <PWM_Init>:

void PWM_Init( void )
{
    653c:	e1a0c00d 	mov	ip, sp
    6540:	e92dd800 	push	{fp, ip, lr, pc}
    6544:	e24cb004 	sub	fp, ip, #4
  //  match_counter = 0;
  //  PINSEL0 = 0x000A800A;	/* set GPIOs for all PWMs */
  //  PINSEL1 = 0x00000400;
    PWMTCR = TCR_RESET;		/* Counter Reset */
    6548:	e3a0324e 	mov	r3, #-536870908	; 0xe0000004
    654c:	e2833905 	add	r3, r3, #81920	; 0x14000
    6550:	e3a02002 	mov	r2, #2
    6554:	e5832000 	str	r2, [r3]

    PWMPR = 0x00;		/* count frequency:Fpclk */
    6558:	e3a032ce 	mov	r3, #-536870900	; 0xe000000c
    655c:	e2833905 	add	r3, r3, #81920	; 0x14000
    6560:	e3a02000 	mov	r2, #0
    6564:	e5832000 	str	r2, [r3]
    PWMMCR = PWMMR0R;	/* interrupt on PWMMR0, reset on PWMMR0, reset
    6568:	e3a0320e 	mov	r3, #-536870912	; 0xe0000000
    656c:	e2833905 	add	r3, r3, #81920	; 0x14000
    6570:	e2833014 	add	r3, r3, #20
    6574:	e3a02002 	mov	r2, #2
    6578:	e5832000 	str	r2, [r3]
				TC if PWM0 matches */
    PWMMR0 = 1179648 ;
    657c:	e3a0320e 	mov	r3, #-536870912	; 0xe0000000
    6580:	e2833905 	add	r3, r3, #81920	; 0x14000
    6584:	e2833018 	add	r3, r3, #24
    6588:	e3a02812 	mov	r2, #1179648	; 0x120000
    658c:	e5832000 	str	r2, [r3]
    PWMMR5 = 88470;
    6590:	e3a0220e 	mov	r2, #-536870912	; 0xe0000000
    6594:	e2822905 	add	r2, r2, #81920	; 0x14000
    6598:	e2822044 	add	r2, r2, #68	; 0x44
    659c:	e3a03b56 	mov	r3, #88064	; 0x15800
    65a0:	e2833f65 	add	r3, r3, #404	; 0x194
    65a4:	e2833002 	add	r3, r3, #2
    65a8:	e5823000 	str	r3, [r2]

    /* all PWM latch enabled */
    PWMLER = LER5_EN;
    65ac:	e3a0320e 	mov	r3, #-536870912	; 0xe0000000
    65b0:	e2833905 	add	r3, r3, #81920	; 0x14000
    65b4:	e2833050 	add	r3, r3, #80	; 0x50
    65b8:	e3a02020 	mov	r2, #32
    65bc:	e5832000 	str	r2, [r3]

        /* All single edge, all enable */
    PWMPCR = PWMENA1 | PWMENA2 | PWMENA3 | PWMENA4 | PWMENA5 | PWMENA6;
    65c0:	e3a0320e 	mov	r3, #-536870912	; 0xe0000000
    65c4:	e2833905 	add	r3, r3, #81920	; 0x14000
    65c8:	e283304c 	add	r3, r3, #76	; 0x4c
    65cc:	e3a02c7e 	mov	r2, #32256	; 0x7e00
    65d0:	e5832000 	str	r2, [r3]
    PWMTCR = TCR_CNT_EN | TCR_PWM_EN;	/* counter enable, PWM enable */
    65d4:	e3a0324e 	mov	r3, #-536870908	; 0xe0000004
    65d8:	e2833905 	add	r3, r3, #81920	; 0x14000
    65dc:	e3a02009 	mov	r2, #9
    65e0:	e5832000 	str	r2, [r3]
}
    65e4:	e24bd00c 	sub	sp, fp, #12
    65e8:	e89d6800 	ldm	sp, {fp, sp, lr}
    65ec:	e12fff1e 	bx	lr

000065f0 <init_spi>:


void init_spi(void)
{
    65f0:	e1a0c00d 	mov	ip, sp
    65f4:	e92dd800 	push	{fp, ip, lr, pc}
    65f8:	e24cb004 	sub	fp, ip, #4
  S0SPCCR=0x04; //30 clock-cycles (~60MHz) = 1 SPI cycle => SPI @ 2MHz
    65fc:	e3a032ce 	mov	r3, #-536870900	; 0xe000000c
    6600:	e2833802 	add	r3, r3, #131072	; 0x20000
    6604:	e3a02004 	mov	r2, #4
    6608:	e5832000 	str	r2, [r3]
  S0SPCR=0x20;  //LPC is Master
    660c:	e3a0320e 	mov	r3, #-536870912	; 0xe0000000
    6610:	e2833802 	add	r3, r3, #131072	; 0x20000
    6614:	e3a02020 	mov	r2, #32
    6618:	e5832000 	str	r2, [r3]
}
    661c:	e24bd00c 	sub	sp, fp, #12
    6620:	e89d6800 	ldm	sp, {fp, sp, lr}
    6624:	e12fff1e 	bx	lr

00006628 <init_spi1>:

void init_spi1(void)
{
    6628:	e1a0c00d 	mov	ip, sp
    662c:	e92dd800 	push	{fp, ip, lr, pc}
    6630:	e24cb004 	sub	fp, ip, #4
    6634:	e24dd004 	sub	sp, sp, #4
	unsigned char i, Dummy;

    /* Set DSS data to 8-bit, Frame format SPI, CPOL = 0, CPHA = 0, and SCR is 3 */
    SSPCR0 = 0x040F;
    6638:	e3a0220e 	mov	r2, #-536870912	; 0xe0000000
    663c:	e282291a 	add	r2, r2, #425984	; 0x68000
    6640:	e3a03b01 	mov	r3, #1024	; 0x400
    6644:	e283300f 	add	r3, r3, #15
    6648:	e5823000 	str	r3, [r2]

    /* SSPCPSR clock prescale register, master mode, minimum divisor is 0x02 */
    SSPCPSR = 0x1B;
    664c:	e3a0320e 	mov	r3, #-536870912	; 0xe0000000
    6650:	e283391a 	add	r3, r3, #425984	; 0x68000
    6654:	e2833010 	add	r3, r3, #16
    6658:	e3a0201b 	mov	r2, #27
    665c:	e5832000 	str	r2, [r3]

    for ( i = 0; i < FIFOSIZE; i++ )
    6660:	e3a03000 	mov	r3, #0
    6664:	e54b300e 	strb	r3, [fp, #-14]
    6668:	ea000006 	b	6688 <init_spi1+0x60>
    {
	Dummy = SSPDR;		/* clear the RxFIFO */
    666c:	e3a0328e 	mov	r3, #-536870904	; 0xe0000008
    6670:	e283391a 	add	r3, r3, #425984	; 0x68000
    6674:	e5933000 	ldr	r3, [r3]
    6678:	e54b300d 	strb	r3, [fp, #-13]
    SSPCR0 = 0x040F;

    /* SSPCPSR clock prescale register, master mode, minimum divisor is 0x02 */
    SSPCPSR = 0x1B;

    for ( i = 0; i < FIFOSIZE; i++ )
    667c:	e55b300e 	ldrb	r3, [fp, #-14]
    6680:	e2833001 	add	r3, r3, #1
    6684:	e54b300e 	strb	r3, [fp, #-14]
    6688:	e55b300e 	ldrb	r3, [fp, #-14]
    668c:	e3530007 	cmp	r3, #7
    6690:	9afffff5 	bls	666c <init_spi1+0x44>
    {
	Dummy = SSPDR;		/* clear the RxFIFO */
    }

    /*all ints deactivated*/
	SSPIMSC = 0;
    6694:	e3a0320e 	mov	r3, #-536870912	; 0xe0000000
    6698:	e283391a 	add	r3, r3, #425984	; 0x68000
    669c:	e2833014 	add	r3, r3, #20
    66a0:	e3a02000 	mov	r2, #0
    66a4:	e5832000 	str	r2, [r3]

    /* Device select as master, SSP Enabled */
    SSPCR1 = 0x00;// | SSPCR1_SSE;
    66a8:	e3a0324e 	mov	r3, #-536870908	; 0xe0000004
    66ac:	e283391a 	add	r3, r3, #425984	; 0x68000
    66b0:	e3a02000 	mov	r2, #0
    66b4:	e5832000 	str	r2, [r3]

    return;


}
    66b8:	e24bd00c 	sub	sp, fp, #12
    66bc:	e89d6800 	ldm	sp, {fp, sp, lr}
    66c0:	e12fff1e 	bx	lr

000066c4 <pll_init>:

void pll_init(void)
{
    66c4:	e1a0c00d 	mov	ip, sp
    66c8:	e92dd800 	push	{fp, ip, lr, pc}
    66cc:	e24cb004 	sub	fp, ip, #4
  PLLCFG=0x23;    //0b00100011; => M=4,0690; P=2;
    66d0:	e3a0320e 	mov	r3, #-536870912	; 0xe0000000
    66d4:	e283397f 	add	r3, r3, #2080768	; 0x1fc000
    66d8:	e2833084 	add	r3, r3, #132	; 0x84
    66dc:	e3a02023 	mov	r2, #35	; 0x23
    66e0:	e5832000 	str	r2, [r3]
  PLLCON=0x03;    //PLLE=1, PLLC=1 => PLL enabled as system clock
    66e4:	e3a0320e 	mov	r3, #-536870912	; 0xe0000000
    66e8:	e283397f 	add	r3, r3, #2080768	; 0x1fc000
    66ec:	e2833080 	add	r3, r3, #128	; 0x80
    66f0:	e3a02003 	mov	r2, #3
    66f4:	e5832000 	str	r2, [r3]
}
    66f8:	e24bd00c 	sub	sp, fp, #12
    66fc:	e89d6800 	ldm	sp, {fp, sp, lr}
    6700:	e12fff1e 	bx	lr

00006704 <pll_feed>:

void pll_feed(void)
{
    6704:	e1a0c00d 	mov	ip, sp
    6708:	e92dd800 	push	{fp, ip, lr, pc}
    670c:	e24cb004 	sub	fp, ip, #4
  PLLFEED=0xAA;
    6710:	e3a0320e 	mov	r3, #-536870912	; 0xe0000000
    6714:	e283397f 	add	r3, r3, #2080768	; 0x1fc000
    6718:	e283308c 	add	r3, r3, #140	; 0x8c
    671c:	e3a020aa 	mov	r2, #170	; 0xaa
    6720:	e5832000 	str	r2, [r3]
  PLLFEED=0x55;
    6724:	e3a0320e 	mov	r3, #-536870912	; 0xe0000000
    6728:	e283397f 	add	r3, r3, #2080768	; 0x1fc000
    672c:	e283308c 	add	r3, r3, #140	; 0x8c
    6730:	e3a02055 	mov	r2, #85	; 0x55
    6734:	e5832000 	str	r2, [r3]
}
    6738:	e24bd00c 	sub	sp, fp, #12
    673c:	e89d6800 	ldm	sp, {fp, sp, lr}
    6740:	e12fff1e 	bx	lr

00006744 <processorClockFrequency>:

unsigned int processorClockFrequency(void)
{
    6744:	e1a0c00d 	mov	ip, sp
    6748:	e92dd800 	push	{fp, ip, lr, pc}
    674c:	e24cb004 	sub	fp, ip, #4
  return 58982400;
    6750:	e3a037e1 	mov	r3, #58982400	; 0x3840000
}
    6754:	e1a00003 	mov	r0, r3
    6758:	e24bd00c 	sub	sp, fp, #12
    675c:	e89d6800 	ldm	sp, {fp, sp, lr}
    6760:	e12fff1e 	bx	lr

00006764 <peripheralClockFrequency>:

unsigned int peripheralClockFrequency(void)
{
    6764:	e1a0c00d 	mov	ip, sp
    6768:	e92dd800 	push	{fp, ip, lr, pc}
    676c:	e24cb004 	sub	fp, ip, #4
    6770:	e24dd008 	sub	sp, sp, #8
  unsigned int divider;
  switch (VPBDIV & 3)
    6774:	e3a0320e 	mov	r3, #-536870912	; 0xe0000000
    6778:	e283397f 	add	r3, r3, #2080768	; 0x1fc000
    677c:	e2833c01 	add	r3, r3, #256	; 0x100
    6780:	e5933000 	ldr	r3, [r3]
    6784:	e2033003 	and	r3, r3, #3
    6788:	e50b3014 	str	r3, [fp, #-20]
    678c:	e51b3014 	ldr	r3, [fp, #-20]
    6790:	e3530001 	cmp	r3, #1
    6794:	0a000009 	beq	67c0 <peripheralClockFrequency+0x5c>
    6798:	e51b3014 	ldr	r3, [fp, #-20]
    679c:	e3530001 	cmp	r3, #1
    67a0:	3a000003 	bcc	67b4 <peripheralClockFrequency+0x50>
    67a4:	e51b3014 	ldr	r3, [fp, #-20]
    67a8:	e3530002 	cmp	r3, #2
    67ac:	0a000006 	beq	67cc <peripheralClockFrequency+0x68>
    67b0:	ea000007 	b	67d4 <peripheralClockFrequency+0x70>
    {
      case 0:
        divider = 4;
    67b4:	e3a03004 	mov	r3, #4
    67b8:	e50b3010 	str	r3, [fp, #-16]
        break;
    67bc:	ea000004 	b	67d4 <peripheralClockFrequency+0x70>
      case 1:
        divider = 1;
    67c0:	e3a03001 	mov	r3, #1
    67c4:	e50b3010 	str	r3, [fp, #-16]
        break;
    67c8:	ea000001 	b	67d4 <peripheralClockFrequency+0x70>
      case 2:
        divider = 2;
    67cc:	e3a03002 	mov	r3, #2
    67d0:	e50b3010 	str	r3, [fp, #-16]
        break;
    }
  return processorClockFrequency() / divider;
    67d4:	ebffffda 	bl	6744 <processorClockFrequency>
    67d8:	e1a03000 	mov	r3, r0
    67dc:	e1a00003 	mov	r0, r3
    67e0:	e51b1010 	ldr	r1, [fp, #-16]
    67e4:	eb002f3b 	bl	124d8 <____udivsi3_from_arm>
    67e8:	e1a03000 	mov	r3, r0
}
    67ec:	e1a00003 	mov	r0, r3
    67f0:	e24bd00c 	sub	sp, fp, #12
    67f4:	e89d6800 	ldm	sp, {fp, sp, lr}
    67f8:	e12fff1e 	bx	lr

000067fc <delay>:

void delay(int n)
{
    67fc:	e1a0c00d 	mov	ip, sp
    6800:	e92dd800 	push	{fp, ip, lr, pc}
    6804:	e24cb004 	sub	fp, ip, #4
    6808:	e24dd008 	sub	sp, sp, #8
    680c:	e50b0014 	str	r0, [fp, #-20]
  volatile int i;
  for (i = 0; i < n; ++i);
    6810:	e3a03000 	mov	r3, #0
    6814:	e50b3010 	str	r3, [fp, #-16]
    6818:	ea000002 	b	6828 <delay+0x2c>
    681c:	e51b3010 	ldr	r3, [fp, #-16]
    6820:	e2833001 	add	r3, r3, #1
    6824:	e50b3010 	str	r3, [fp, #-16]
    6828:	e51b2010 	ldr	r2, [fp, #-16]
    682c:	e51b3014 	ldr	r3, [fp, #-20]
    6830:	e1520003 	cmp	r2, r3
    6834:	bafffff8 	blt	681c <delay+0x20>
}
    6838:	e24bd00c 	sub	sp, fp, #12
    683c:	e89d6800 	ldm	sp, {fp, sp, lr}
    6840:	e12fff1e 	bx	lr

00006844 <uart1ISR>:
extern CmdData receiveCmdData;
extern int pack_id;
extern int vicon_tp;

void uart1ISR(void) __irq
{
    6844:	e1a0c00d 	mov	ip, sp
    6848:	e92dd800 	push	{fp, ip, lr, pc}
    684c:	e24cb004 	sub	fp, ip, #4
    6850:	e24dd00c 	sub	sp, sp, #12
  unsigned char t;
  IENABLE;
  unsigned iir = U1IIR;
    6854:	e3a0328e 	mov	r3, #-536870904	; 0xe0000008
    6858:	e2833801 	add	r3, r3, #65536	; 0x10000
    685c:	e5933000 	ldr	r3, [r3]
    6860:	e50b3010 	str	r3, [fp, #-16]
  // Handle UART interrupt
  switch ((iir >> 1) & 0x7)
    6864:	e51b3010 	ldr	r3, [fp, #-16]
    6868:	e1a030a3 	lsr	r3, r3, #1
    686c:	e2033007 	and	r3, r3, #7
    6870:	e50b3018 	str	r3, [fp, #-24]
    6874:	e51b3018 	ldr	r3, [fp, #-24]
    6878:	e3530001 	cmp	r3, #1
    687c:	0a000003 	beq	6890 <uart1ISR+0x4c>
    6880:	e51b3018 	ldr	r3, [fp, #-24]
    6884:	e3530002 	cmp	r3, #2
    6888:	0a000013 	beq	68dc <uart1ISR+0x98>
    688c:	ea000018 	b	68f4 <uart1ISR+0xb0>
    {
      case 1:
		  // THRE interrupt
		 if (ringbuffer1(RBREAD, &t, 1))
    6890:	e24b3011 	sub	r3, fp, #17
    6894:	e3a00000 	mov	r0, #0
    6898:	e1a01003 	mov	r1, r3
    689c:	e3a02001 	mov	r2, #1
    68a0:	eb000379 	bl	768c <ringbuffer1>
    68a4:	e1a03000 	mov	r3, r0
    68a8:	e3530000 	cmp	r3, #0
    68ac:	0a000006 	beq	68cc <uart1ISR+0x88>
		 {
		   transmission1_running=1;
    68b0:	e59f2058 	ldr	r2, [pc, #88]	; 6910 <uart1ISR+0xcc>
    68b4:	e3a03001 	mov	r3, #1
    68b8:	e5c23000 	strb	r3, [r2]
		   UART1WriteChar(t);
    68bc:	e55b3011 	ldrb	r3, [fp, #-17]
    68c0:	e1a00003 	mov	r0, r3
    68c4:	eb000185 	bl	6ee0 <UART1WriteChar>
    68c8:	ea000009 	b	68f4 <uart1ISR+0xb0>
		 }
		 else
		 {
		   transmission1_running=0;
    68cc:	e59f303c 	ldr	r3, [pc, #60]	; 6910 <uart1ISR+0xcc>
    68d0:	e3a02000 	mov	r2, #0
    68d4:	e5c32000 	strb	r2, [r3]
		 }
        break;
    68d8:	ea000005 	b	68f4 <uart1ISR+0xb0>
      case 2:
    	// RX interrupt
	    uBloxReceiveHandler(U1RBR);
    68dc:	e3a0320e 	mov	r3, #-536870912	; 0xe0000000
    68e0:	e2833801 	add	r3, r3, #65536	; 0x10000
    68e4:	e5933000 	ldr	r3, [r3]
    68e8:	e20330ff 	and	r3, r3, #255	; 0xff
    68ec:	e1a00003 	mov	r0, r3
    68f0:	eb001e73 	bl	e2c4 <uBloxReceiveHandler>
      case 6:
        // CTI interrupt
        break;
   }
  IDISABLE;
  VICVectAddr = 0;		/* Acknowledge Interrupt */
    68f4:	e3a03000 	mov	r3, #0
    68f8:	e2433efd 	sub	r3, r3, #4048	; 0xfd0
    68fc:	e3a02000 	mov	r2, #0
    6900:	e5832000 	str	r2, [r3]
}
    6904:	e24bd00c 	sub	sp, fp, #12
    6908:	e89d6800 	ldm	sp, {fp, sp, lr}
    690c:	e12fff1e 	bx	lr
    6910:	40000e47 	.word	0x40000e47

00006914 <uart0ISR>:



void uart0ISR(void) __irq
{
    6914:	e1a0c00d 	mov	ip, sp
    6918:	e92dd800 	push	{fp, ip, lr, pc}
    691c:	e24cb004 	sub	fp, ip, #4
    6920:	e24dd010 	sub	sp, sp, #16
  unsigned char receive_result;
  unsigned char UART_rxdata;

  // Read IIR to clear interrupt and find out the cause
  IENABLE;
  unsigned iir = U0IIR;
    6924:	e3a03903 	mov	r3, #49152	; 0xc000
    6928:	e283328e 	add	r3, r3, #-536870904	; 0xe0000008
    692c:	e5933000 	ldr	r3, [r3]
    6930:	e50b3010 	str	r3, [fp, #-16]
  // Handle UART interrupt
  switch ((iir >> 1) & 0x7)
    6934:	e51b3010 	ldr	r3, [fp, #-16]
    6938:	e1a030a3 	lsr	r3, r3, #1
    693c:	e2033007 	and	r3, r3, #7
    6940:	e50b3018 	str	r3, [fp, #-24]
    6944:	e51b3018 	ldr	r3, [fp, #-24]
    6948:	e3530001 	cmp	r3, #1
    694c:	0a000003 	beq	6960 <uart0ISR+0x4c>
    6950:	e51b3018 	ldr	r3, [fp, #-24]
    6954:	e3530002 	cmp	r3, #2
    6958:	0a000020 	beq	69e0 <uart0ISR+0xcc>
    695c:	ea0000de 	b	6cdc <uart0ISR+0x3c8>
    {
      case 1:
        // THRE interrupt
		if(!(IOPIN0&(1<<CTS_RADIO)))
    6960:	e3a0320e 	mov	r3, #-536870912	; 0xe0000000
    6964:	e283390a 	add	r3, r3, #163840	; 0x28000
    6968:	e5933000 	ldr	r3, [r3]
    696c:	e2033501 	and	r3, r3, #4194304	; 0x400000
    6970:	e3530000 	cmp	r3, #0
    6974:	1a000015 	bne	69d0 <uart0ISR+0xbc>
		{
			trigger_transmission=0;
    6978:	e59f2378 	ldr	r2, [pc, #888]	; 6cf8 <uart0ISR+0x3e4>
    697c:	e3a03000 	mov	r3, #0
    6980:	e5c23000 	strb	r3, [r2]
			 if (ringbuffer(RBREAD, &t, 1))
    6984:	e24b3013 	sub	r3, fp, #19
    6988:	e3a00000 	mov	r0, #0
    698c:	e1a01003 	mov	r1, r3
    6990:	e3a02001 	mov	r2, #1
    6994:	eb0002c1 	bl	74a0 <ringbuffer>
    6998:	e1a03000 	mov	r3, r0
    699c:	e3530000 	cmp	r3, #0
    69a0:	0a000006 	beq	69c0 <uart0ISR+0xac>
		     {
		       transmission_running=1;
    69a4:	e59f2350 	ldr	r2, [pc, #848]	; 6cfc <uart0ISR+0x3e8>
    69a8:	e3a03001 	mov	r3, #1
    69ac:	e5c23000 	strb	r3, [r2]
		       UARTWriteChar(t);
    69b0:	e55b3013 	ldrb	r3, [fp, #-19]
    69b4:	e1a00003 	mov	r0, r3
    69b8:	eb000134 	bl	6e90 <UARTWriteChar>
    69bc:	ea0000c6 	b	6cdc <uart0ISR+0x3c8>
		     }
		     else
		     {
		       transmission_running=0;
    69c0:	e59f3334 	ldr	r3, [pc, #820]	; 6cfc <uart0ISR+0x3e8>
    69c4:	e3a02000 	mov	r2, #0
    69c8:	e5c32000 	strb	r2, [r3]
    69cc:	ea0000c2 	b	6cdc <uart0ISR+0x3c8>
		     }
		}
		else
		{
			trigger_transmission=1;
    69d0:	e59f3320 	ldr	r3, [pc, #800]	; 6cf8 <uart0ISR+0x3e4>
    69d4:	e3a02001 	mov	r2, #1
    69d8:	e5c32000 	strb	r2, [r3]
		}
		break;
    69dc:	ea0000be 	b	6cdc <uart0ISR+0x3c8>

      case 2:
        // RDA interrupt - put your HL_serial_0 receive state machine here!
        UART_rxdata = U0RBR;
    69e0:	e3a0320e 	mov	r3, #-536870912	; 0xe0000000
    69e4:	e2833903 	add	r3, r3, #49152	; 0xc000
    69e8:	e5933000 	ldr	r3, [r3]
    69ec:	e54b3011 	strb	r3, [fp, #-17]

        receive_result=my_receive(UART_rxdata,my_buffer,
    69f0:	e55b2011 	ldrb	r2, [fp, #-17]
    69f4:	e3a03001 	mov	r3, #1
    69f8:	e58d3000 	str	r3, [sp]
    69fc:	e1a00002 	mov	r0, r2
    6a00:	e59f12f8 	ldr	r1, [pc, #760]	; 6d00 <uart0ISR+0x3ec>
    6a04:	e59f22f8 	ldr	r2, [pc, #760]	; 6d04 <uart0ISR+0x3f0>
    6a08:	e59f32f8 	ldr	r3, [pc, #760]	; 6d08 <uart0ISR+0x3f4>
    6a0c:	ebfff0d4 	bl	2d64 <my_receive>
    6a10:	e1a03000 	mov	r3, r0
    6a14:	e54b3012 	strb	r3, [fp, #-18]
				allDataBuffer,&pack_id,1);
		if(receive_result==RECEIVE_STATE_SUCCESS){
    6a18:	e55b3012 	ldrb	r3, [fp, #-18]
    6a1c:	e3530002 	cmp	r3, #2
    6a20:	1a0000ad 	bne	6cdc <uart0ISR+0x3c8>
			switch(pack_id){
    6a24:	e59f32dc 	ldr	r3, [pc, #732]	; 6d08 <uart0ISR+0x3f4>
    6a28:	e5933000 	ldr	r3, [r3]
    6a2c:	e2433001 	sub	r3, r3, #1
    6a30:	e3530006 	cmp	r3, #6
    6a34:	979ff103 	ldrls	pc, [pc, r3, lsl #2]
    6a38:	ea0000a7 	b	6cdc <uart0ISR+0x3c8>
    6a3c:	00006cdc 	.word	0x00006cdc
    6a40:	00006a58 	.word	0x00006a58
    6a44:	00006cdc 	.word	0x00006cdc
    6a48:	00006cdc 	.word	0x00006cdc
    6a4c:	00006ac4 	.word	0x00006ac4
    6a50:	00006bb0 	.word	0x00006bb0
    6a54:	00006ca8 	.word	0x00006ca8
			case PACKAGE_DEFINE_STATUS:
				break;
			case PACKAGE_DEFINE_VICON:
				memcpy(&receivedViconData,
    6a58:	e59f32a8 	ldr	r3, [pc, #680]	; 6d08 <uart0ISR+0x3f4>
    6a5c:	e5933000 	ldr	r3, [r3]
    6a60:	e1a00003 	mov	r0, r3
    6a64:	ebfff19d 	bl	30e0 <getPackageLength>
    6a68:	e1a03000 	mov	r3, r0
    6a6c:	e1a01003 	mov	r1, r3
    6a70:	e59f3294 	ldr	r3, [pc, #660]	; 6d0c <uart0ISR+0x3f8>
    6a74:	e59f2288 	ldr	r2, [pc, #648]	; 6d04 <uart0ISR+0x3f0>
    6a78:	e1a0c001 	mov	ip, r1
    6a7c:	e1a00003 	mov	r0, r3
    6a80:	e1a01002 	mov	r1, r2
    6a84:	e1a0200c 	mov	r2, ip
    6a88:	eb002e83 	bl	1249c <__memcpy_from_arm>
						&allDataBuffer,getPackageLength(pack_id));
				my_state.position.z=receivedViconData.z;
    6a8c:	e59f3278 	ldr	r3, [pc, #632]	; 6d0c <uart0ISR+0x3f8>
    6a90:	e593200c 	ldr	r2, [r3, #12]
    6a94:	e59f3274 	ldr	r3, [pc, #628]	; 6d10 <uart0ISR+0x3fc>
    6a98:	e5832008 	str	r2, [r3, #8]
				my_state.velocity.z=receivedViconData.vz;
    6a9c:	e59f3268 	ldr	r3, [pc, #616]	; 6d0c <uart0ISR+0x3f8>
    6aa0:	e5932024 	ldr	r2, [r3, #36]	; 0x24
    6aa4:	e59f3264 	ldr	r3, [pc, #612]	; 6d10 <uart0ISR+0x3fc>
    6aa8:	e5832014 	str	r2, [r3, #20]
				vicon_count++;
    6aac:	e59f3260 	ldr	r3, [pc, #608]	; 6d14 <uart0ISR+0x400>
    6ab0:	e5933000 	ldr	r3, [r3]
    6ab4:	e2832001 	add	r2, r3, #1
    6ab8:	e59f3254 	ldr	r3, [pc, #596]	; 6d14 <uart0ISR+0x400>
    6abc:	e5832000 	str	r2, [r3]
				break;
    6ac0:	ea000085 	b	6cdc <uart0ISR+0x3c8>
			case PACKAGE_DEFINE_SENSOR:
				break;
			case PACKAGE_DEFINE_FUSION:
				break;
			case PACKAGE_DEFINE_DEBUG:
				memcpy(&receiveDebugData,
    6ac4:	e59f323c 	ldr	r3, [pc, #572]	; 6d08 <uart0ISR+0x3f4>
    6ac8:	e5933000 	ldr	r3, [r3]
    6acc:	e1a00003 	mov	r0, r3
    6ad0:	ebfff182 	bl	30e0 <getPackageLength>
    6ad4:	e1a03000 	mov	r3, r0
    6ad8:	e1a01003 	mov	r1, r3
    6adc:	e59f3234 	ldr	r3, [pc, #564]	; 6d18 <uart0ISR+0x404>
    6ae0:	e59f221c 	ldr	r2, [pc, #540]	; 6d04 <uart0ISR+0x3f0>
    6ae4:	e1a0c001 	mov	ip, r1
    6ae8:	e1a00003 	mov	r0, r3
    6aec:	e1a01002 	mov	r1, r2
    6af0:	e1a0200c 	mov	r2, ip
    6af4:	eb002e68 	bl	1249c <__memcpy_from_arm>
						&allDataBuffer,getPackageLength(pack_id));
				my_state.position.x=receiveDebugData.x;
    6af8:	e59f3218 	ldr	r3, [pc, #536]	; 6d18 <uart0ISR+0x404>
    6afc:	e5932004 	ldr	r2, [r3, #4]
    6b00:	e59f3208 	ldr	r3, [pc, #520]	; 6d10 <uart0ISR+0x3fc>
    6b04:	e5832000 	str	r2, [r3]
				my_state.position.y=receiveDebugData.y;
    6b08:	e59f3208 	ldr	r3, [pc, #520]	; 6d18 <uart0ISR+0x404>
    6b0c:	e5932008 	ldr	r2, [r3, #8]
    6b10:	e59f31f8 	ldr	r3, [pc, #504]	; 6d10 <uart0ISR+0x3fc>
    6b14:	e5832004 	str	r2, [r3, #4]
				my_state.position.z=receiveDebugData.z;
    6b18:	e59f31f8 	ldr	r3, [pc, #504]	; 6d18 <uart0ISR+0x404>
    6b1c:	e593200c 	ldr	r2, [r3, #12]
    6b20:	e59f31e8 	ldr	r3, [pc, #488]	; 6d10 <uart0ISR+0x3fc>
    6b24:	e5832008 	str	r2, [r3, #8]
				my_state.velocity.x=receiveDebugData.vx;
    6b28:	e59f31e8 	ldr	r3, [pc, #488]	; 6d18 <uart0ISR+0x404>
    6b2c:	e5932010 	ldr	r2, [r3, #16]
    6b30:	e59f31d8 	ldr	r3, [pc, #472]	; 6d10 <uart0ISR+0x3fc>
    6b34:	e583200c 	str	r2, [r3, #12]
				my_state.velocity.y=receiveDebugData.vy;
    6b38:	e59f31d8 	ldr	r3, [pc, #472]	; 6d18 <uart0ISR+0x404>
    6b3c:	e5932014 	ldr	r2, [r3, #20]
    6b40:	e59f31c8 	ldr	r3, [pc, #456]	; 6d10 <uart0ISR+0x3fc>
    6b44:	e5832010 	str	r2, [r3, #16]
				my_state.velocity.z=receiveDebugData.vz;
    6b48:	e59f31c8 	ldr	r3, [pc, #456]	; 6d18 <uart0ISR+0x404>
    6b4c:	e5932018 	ldr	r2, [r3, #24]
    6b50:	e59f31b8 	ldr	r3, [pc, #440]	; 6d10 <uart0ISR+0x3fc>
    6b54:	e5832014 	str	r2, [r3, #20]
				my_state.attitude.pitch=receiveDebugData.pitch;
    6b58:	e59f31b8 	ldr	r3, [pc, #440]	; 6d18 <uart0ISR+0x404>
    6b5c:	e593201c 	ldr	r2, [r3, #28]
    6b60:	e59f31a8 	ldr	r3, [pc, #424]	; 6d10 <uart0ISR+0x3fc>
    6b64:	e5832020 	str	r2, [r3, #32]
				my_state.attitude.roll=receiveDebugData.roll;
    6b68:	e59f31a8 	ldr	r3, [pc, #424]	; 6d18 <uart0ISR+0x404>
    6b6c:	e5932020 	ldr	r2, [r3, #32]
    6b70:	e59f3198 	ldr	r3, [pc, #408]	; 6d10 <uart0ISR+0x3fc>
    6b74:	e583201c 	str	r2, [r3, #28]
				my_state.attitude.yaw=receiveDebugData.yaw;
    6b78:	e59f3198 	ldr	r3, [pc, #408]	; 6d18 <uart0ISR+0x404>
    6b7c:	e5932024 	ldr	r2, [r3, #36]	; 0x24
    6b80:	e59f3188 	ldr	r3, [pc, #392]	; 6d10 <uart0ISR+0x3fc>
    6b84:	e5832024 	str	r2, [r3, #36]	; 0x24
				vicon_tp=receiveDebugData.timestamp;
    6b88:	e59f3188 	ldr	r3, [pc, #392]	; 6d18 <uart0ISR+0x404>
    6b8c:	e5932000 	ldr	r2, [r3]
    6b90:	e59f3184 	ldr	r3, [pc, #388]	; 6d1c <uart0ISR+0x408>
    6b94:	e5832000 	str	r2, [r3]
				vicon_count++;
    6b98:	e59f3174 	ldr	r3, [pc, #372]	; 6d14 <uart0ISR+0x400>
    6b9c:	e5933000 	ldr	r3, [r3]
    6ba0:	e2832001 	add	r2, r3, #1
    6ba4:	e59f3168 	ldr	r3, [pc, #360]	; 6d14 <uart0ISR+0x400>
    6ba8:	e5832000 	str	r2, [r3]
				break;
    6bac:	ea00004a 	b	6cdc <uart0ISR+0x3c8>
			case PACKAGE_DEFINE_PARAM:
				memcpy(&receiveParamDebug,
    6bb0:	e59f3150 	ldr	r3, [pc, #336]	; 6d08 <uart0ISR+0x3f4>
    6bb4:	e5933000 	ldr	r3, [r3]
    6bb8:	e1a00003 	mov	r0, r3
    6bbc:	ebfff147 	bl	30e0 <getPackageLength>
    6bc0:	e1a03000 	mov	r3, r0
    6bc4:	e1a01003 	mov	r1, r3
    6bc8:	e59f3150 	ldr	r3, [pc, #336]	; 6d20 <uart0ISR+0x40c>
    6bcc:	e59f2130 	ldr	r2, [pc, #304]	; 6d04 <uart0ISR+0x3f0>
    6bd0:	e1a0c001 	mov	ip, r1
    6bd4:	e1a00003 	mov	r0, r3
    6bd8:	e1a01002 	mov	r1, r2
    6bdc:	e1a0200c 	mov	r2, ip
    6be0:	eb002e2d 	bl	1249c <__memcpy_from_arm>
						&allDataBuffer,getPackageLength(pack_id));
	        	if(receiveParamDebug.kp_p!=0){
    6be4:	e59f3134 	ldr	r3, [pc, #308]	; 6d20 <uart0ISR+0x40c>
    6be8:	e593300c 	ldr	r3, [r3, #12]
    6bec:	e1a00003 	mov	r0, r3
    6bf0:	e59f112c 	ldr	r1, [pc, #300]	; 6d24 <uart0ISR+0x410>
    6bf4:	eb000dfd 	bl	a3f0 <__cmpsf2>
    6bf8:	e1a03000 	mov	r3, r0
    6bfc:	e3530000 	cmp	r3, #0
    6c00:	1a000000 	bne	6c08 <uart0ISR+0x2f4>
    6c04:	ea000016 	b	6c64 <uart0ISR+0x350>
	        		receive_valid_data_flag=1;
    6c08:	e59f2118 	ldr	r2, [pc, #280]	; 6d28 <uart0ISR+0x414>
    6c0c:	e3a03001 	mov	r3, #1
    6c10:	e5823000 	str	r3, [r2]
	        		my_this.pidZ.pid.kp=receiveParamDebug.kp_p;
    6c14:	e59f3104 	ldr	r3, [pc, #260]	; 6d20 <uart0ISR+0x40c>
    6c18:	e593200c 	ldr	r2, [r3, #12]
    6c1c:	e59f3108 	ldr	r3, [pc, #264]	; 6d2c <uart0ISR+0x418>
    6c20:	e5832060 	str	r2, [r3, #96]	; 0x60
	        		my_this.pidZ.pid.ki=receiveParamDebug.ki_p;
    6c24:	e59f30f4 	ldr	r3, [pc, #244]	; 6d20 <uart0ISR+0x40c>
    6c28:	e5932010 	ldr	r2, [r3, #16]
    6c2c:	e59f30f8 	ldr	r3, [pc, #248]	; 6d2c <uart0ISR+0x418>
    6c30:	e5832064 	str	r2, [r3, #100]	; 0x64
	        		my_this.pidVZ.pid.kp=receiveParamDebug.kp_v;
    6c34:	e59f30e4 	ldr	r3, [pc, #228]	; 6d20 <uart0ISR+0x40c>
    6c38:	e5932004 	ldr	r2, [r3, #4]
    6c3c:	e59f30e8 	ldr	r3, [pc, #232]	; 6d2c <uart0ISR+0x418>
    6c40:	e5832014 	str	r2, [r3, #20]
	        		my_this.pidVZ.pid.ki=receiveParamDebug.ki_v;
    6c44:	e59f30d4 	ldr	r3, [pc, #212]	; 6d20 <uart0ISR+0x40c>
    6c48:	e5932008 	ldr	r2, [r3, #8]
    6c4c:	e59f30d8 	ldr	r3, [pc, #216]	; 6d2c <uart0ISR+0x418>
    6c50:	e5832018 	str	r2, [r3, #24]
	        		my_setpoint.velocity.z=receiveParamDebug.set_velocity;
    6c54:	e59f30c4 	ldr	r3, [pc, #196]	; 6d20 <uart0ISR+0x40c>
    6c58:	e593201c 	ldr	r2, [r3, #28]
    6c5c:	e59f30cc 	ldr	r3, [pc, #204]	; 6d30 <uart0ISR+0x41c>
    6c60:	e5832014 	str	r2, [r3, #20]
	        	}
	    		my_state.position.z=receiveParamDebug.z;
    6c64:	e59f30b4 	ldr	r3, [pc, #180]	; 6d20 <uart0ISR+0x40c>
    6c68:	e5932014 	ldr	r2, [r3, #20]
    6c6c:	e59f309c 	ldr	r3, [pc, #156]	; 6d10 <uart0ISR+0x3fc>
    6c70:	e5832008 	str	r2, [r3, #8]
	    		my_state.velocity.z=receiveParamDebug.vz;
    6c74:	e59f30a4 	ldr	r3, [pc, #164]	; 6d20 <uart0ISR+0x40c>
    6c78:	e5932018 	ldr	r2, [r3, #24]
    6c7c:	e59f308c 	ldr	r3, [pc, #140]	; 6d10 <uart0ISR+0x3fc>
    6c80:	e5832014 	str	r2, [r3, #20]
	        	vicon_count++;
    6c84:	e59f3088 	ldr	r3, [pc, #136]	; 6d14 <uart0ISR+0x400>
    6c88:	e5933000 	ldr	r3, [r3]
    6c8c:	e2832001 	add	r2, r3, #1
    6c90:	e59f307c 	ldr	r3, [pc, #124]	; 6d14 <uart0ISR+0x400>
    6c94:	e5832000 	str	r2, [r3]
				receiveCmdData.cmd=PACKAGE_DEFINE_PARAM;
    6c98:	e59f2094 	ldr	r2, [pc, #148]	; 6d34 <uart0ISR+0x420>
    6c9c:	e3a03006 	mov	r3, #6
    6ca0:	e5823000 	str	r3, [r2]
				break;
    6ca4:	ea00000c 	b	6cdc <uart0ISR+0x3c8>
			case PACKAGE_DEFINE_CMD:
				memcpy(&receiveCmdData,
    6ca8:	e59f3058 	ldr	r3, [pc, #88]	; 6d08 <uart0ISR+0x3f4>
    6cac:	e5933000 	ldr	r3, [r3]
    6cb0:	e1a00003 	mov	r0, r3
    6cb4:	ebfff109 	bl	30e0 <getPackageLength>
    6cb8:	e1a03000 	mov	r3, r0
    6cbc:	e1a01003 	mov	r1, r3
    6cc0:	e59f306c 	ldr	r3, [pc, #108]	; 6d34 <uart0ISR+0x420>
    6cc4:	e59f2038 	ldr	r2, [pc, #56]	; 6d04 <uart0ISR+0x3f0>
    6cc8:	e1a0c001 	mov	ip, r1
    6ccc:	e1a00003 	mov	r0, r3
    6cd0:	e1a01002 	mov	r1, r2
    6cd4:	e1a0200c 	mov	r2, ip
    6cd8:	eb002def 	bl	1249c <__memcpy_from_arm>
      case 6:
        // CTI interrupt
        break;
  }
  IDISABLE;
  VICVectAddr = 0;		// Acknowledge Interrupt
    6cdc:	e3a03000 	mov	r3, #0
    6ce0:	e2433efd 	sub	r3, r3, #4048	; 0xfd0
    6ce4:	e3a02000 	mov	r2, #0
    6ce8:	e5832000 	str	r2, [r3]
 }
    6cec:	e24bd00c 	sub	sp, fp, #12
    6cf0:	e89d6800 	ldm	sp, {fp, sp, lr}
    6cf4:	e12fff1e 	bx	lr
    6cf8:	40000e48 	.word	0x40000e48
    6cfc:	40000e46 	.word	0x40000e46
    6d00:	40002150 	.word	0x40002150
    6d04:	40000b9c 	.word	0x40000b9c
    6d08:	40000d8c 	.word	0x40000d8c
    6d0c:	40000c9c 	.word	0x40000c9c
    6d10:	40000d9c 	.word	0x40000d9c
    6d14:	40000d90 	.word	0x40000d90
    6d18:	40000d04 	.word	0x40000d04
    6d1c:	40000d94 	.word	0x40000d94
    6d20:	40000d68 	.word	0x40000d68
    6d24:	00000000 	.word	0x00000000
    6d28:	40000d98 	.word	0x40000d98
    6d2c:	4000004c 	.word	0x4000004c
    6d30:	40000008 	.word	0x40000008
    6d34:	40000000 	.word	0x40000000

00006d38 <UARTInitialize>:


void UARTInitialize(unsigned int baud)
{
    6d38:	e1a0c00d 	mov	ip, sp
    6d3c:	e92dd800 	push	{fp, ip, lr, pc}
    6d40:	e24cb004 	sub	fp, ip, #4
    6d44:	e24dd008 	sub	sp, sp, #8
    6d48:	e50b0014 	str	r0, [fp, #-20]
  unsigned int divisor = peripheralClockFrequency() / (16 * baud);
    6d4c:	ebfffe84 	bl	6764 <peripheralClockFrequency>
    6d50:	e1a02000 	mov	r2, r0
    6d54:	e51b3014 	ldr	r3, [fp, #-20]
    6d58:	e1a03203 	lsl	r3, r3, #4
    6d5c:	e1a00002 	mov	r0, r2
    6d60:	e1a01003 	mov	r1, r3
    6d64:	eb002ddb 	bl	124d8 <____udivsi3_from_arm>
    6d68:	e1a03000 	mov	r3, r0
    6d6c:	e50b3010 	str	r3, [fp, #-16]

  //UART0
  U0LCR = 0x83; /* 8 bit, 1 stop bit, no parity, enable DLAB */
    6d70:	e3a03903 	mov	r3, #49152	; 0xc000
    6d74:	e28332ce 	add	r3, r3, #-536870900	; 0xe000000c
    6d78:	e3a02083 	mov	r2, #131	; 0x83
    6d7c:	e5832000 	str	r2, [r3]
  U0DLL = divisor & 0xFF;
    6d80:	e3a0320e 	mov	r3, #-536870912	; 0xe0000000
    6d84:	e2833903 	add	r3, r3, #49152	; 0xc000
    6d88:	e51b2010 	ldr	r2, [fp, #-16]
    6d8c:	e20220ff 	and	r2, r2, #255	; 0xff
    6d90:	e5832000 	str	r2, [r3]
  U0DLM = (divisor >> 8) & 0xFF;
    6d94:	e3a02903 	mov	r2, #49152	; 0xc000
    6d98:	e282224e 	add	r2, r2, #-536870908	; 0xe0000004
    6d9c:	e51b3010 	ldr	r3, [fp, #-16]
    6da0:	e1a03423 	lsr	r3, r3, #8
    6da4:	e20330ff 	and	r3, r3, #255	; 0xff
    6da8:	e5823000 	str	r3, [r2]
  U0LCR &= ~0x80; /* Disable DLAB */
    6dac:	e3a02903 	mov	r2, #49152	; 0xc000
    6db0:	e28222ce 	add	r2, r2, #-536870900	; 0xe000000c
    6db4:	e3a03903 	mov	r3, #49152	; 0xc000
    6db8:	e28332ce 	add	r3, r3, #-536870900	; 0xe000000c
    6dbc:	e5933000 	ldr	r3, [r3]
    6dc0:	e3c33080 	bic	r3, r3, #128	; 0x80
    6dc4:	e5823000 	str	r3, [r2]
  U0FCR = 1;
    6dc8:	e3a03903 	mov	r3, #49152	; 0xc000
    6dcc:	e283328e 	add	r3, r3, #-536870904	; 0xe0000008
    6dd0:	e3a02001 	mov	r2, #1
    6dd4:	e5832000 	str	r2, [r3]


}
    6dd8:	e24bd00c 	sub	sp, fp, #12
    6ddc:	e89d6800 	ldm	sp, {fp, sp, lr}
    6de0:	e12fff1e 	bx	lr

00006de4 <UART1Initialize>:

void UART1Initialize(unsigned int baud)
{
    6de4:	e1a0c00d 	mov	ip, sp
    6de8:	e92dd800 	push	{fp, ip, lr, pc}
    6dec:	e24cb004 	sub	fp, ip, #4
    6df0:	e24dd008 	sub	sp, sp, #8
    6df4:	e50b0014 	str	r0, [fp, #-20]
  unsigned int divisor = peripheralClockFrequency() / (16 * baud);
    6df8:	ebfffe59 	bl	6764 <peripheralClockFrequency>
    6dfc:	e1a02000 	mov	r2, r0
    6e00:	e51b3014 	ldr	r3, [fp, #-20]
    6e04:	e1a03203 	lsl	r3, r3, #4
    6e08:	e1a00002 	mov	r0, r2
    6e0c:	e1a01003 	mov	r1, r3
    6e10:	eb002db0 	bl	124d8 <____udivsi3_from_arm>
    6e14:	e1a03000 	mov	r3, r0
    6e18:	e50b3010 	str	r3, [fp, #-16]
//UART1
  U1LCR = 0x83; /* 8 bit, 1 stop bit, no parity, enable DLAB */
    6e1c:	e3a032ce 	mov	r3, #-536870900	; 0xe000000c
    6e20:	e2833801 	add	r3, r3, #65536	; 0x10000
    6e24:	e3a02083 	mov	r2, #131	; 0x83
    6e28:	e5832000 	str	r2, [r3]
  U1DLL = divisor & 0xFF;
    6e2c:	e3a0320e 	mov	r3, #-536870912	; 0xe0000000
    6e30:	e2833801 	add	r3, r3, #65536	; 0x10000
    6e34:	e51b2010 	ldr	r2, [fp, #-16]
    6e38:	e20220ff 	and	r2, r2, #255	; 0xff
    6e3c:	e5832000 	str	r2, [r3]
  U1DLM = (divisor >> 8) & 0xFF;
    6e40:	e3a0224e 	mov	r2, #-536870908	; 0xe0000004
    6e44:	e2822801 	add	r2, r2, #65536	; 0x10000
    6e48:	e51b3010 	ldr	r3, [fp, #-16]
    6e4c:	e1a03423 	lsr	r3, r3, #8
    6e50:	e20330ff 	and	r3, r3, #255	; 0xff
    6e54:	e5823000 	str	r3, [r2]
  U1LCR &= ~0x80; /* Disable DLAB */
    6e58:	e3a022ce 	mov	r2, #-536870900	; 0xe000000c
    6e5c:	e2822801 	add	r2, r2, #65536	; 0x10000
    6e60:	e3a032ce 	mov	r3, #-536870900	; 0xe000000c
    6e64:	e2833801 	add	r3, r3, #65536	; 0x10000
    6e68:	e5933000 	ldr	r3, [r3]
    6e6c:	e3c33080 	bic	r3, r3, #128	; 0x80
    6e70:	e5823000 	str	r3, [r2]
  U1FCR = 1;
    6e74:	e3a0328e 	mov	r3, #-536870904	; 0xe0000008
    6e78:	e2833801 	add	r3, r3, #65536	; 0x10000
    6e7c:	e3a02001 	mov	r2, #1
    6e80:	e5832000 	str	r2, [r3]
}
    6e84:	e24bd00c 	sub	sp, fp, #12
    6e88:	e89d6800 	ldm	sp, {fp, sp, lr}
    6e8c:	e12fff1e 	bx	lr

00006e90 <UARTWriteChar>:


//Write to UART0
void UARTWriteChar(unsigned char ch)
{
    6e90:	e1a0c00d 	mov	ip, sp
    6e94:	e92dd800 	push	{fp, ip, lr, pc}
    6e98:	e24cb004 	sub	fp, ip, #4
    6e9c:	e24dd004 	sub	sp, sp, #4
    6ea0:	e1a03000 	mov	r3, r0
    6ea4:	e54b3010 	strb	r3, [fp, #-16]
  while ((U0LSR & 0x20) == 0);
    6ea8:	e3a0320e 	mov	r3, #-536870912	; 0xe0000000
    6eac:	e2833903 	add	r3, r3, #49152	; 0xc000
    6eb0:	e2833014 	add	r3, r3, #20
    6eb4:	e5933000 	ldr	r3, [r3]
    6eb8:	e2033020 	and	r3, r3, #32
    6ebc:	e3530000 	cmp	r3, #0
    6ec0:	0afffff8 	beq	6ea8 <UARTWriteChar+0x18>
  U0THR = ch;
    6ec4:	e3a0320e 	mov	r3, #-536870912	; 0xe0000000
    6ec8:	e2833903 	add	r3, r3, #49152	; 0xc000
    6ecc:	e55b2010 	ldrb	r2, [fp, #-16]
    6ed0:	e5832000 	str	r2, [r3]
}
    6ed4:	e24bd00c 	sub	sp, fp, #12
    6ed8:	e89d6800 	ldm	sp, {fp, sp, lr}
    6edc:	e12fff1e 	bx	lr

00006ee0 <UART1WriteChar>:
//Write to UART1
void UART1WriteChar(unsigned char ch)
{
    6ee0:	e1a0c00d 	mov	ip, sp
    6ee4:	e92dd800 	push	{fp, ip, lr, pc}
    6ee8:	e24cb004 	sub	fp, ip, #4
    6eec:	e24dd004 	sub	sp, sp, #4
    6ef0:	e1a03000 	mov	r3, r0
    6ef4:	e54b3010 	strb	r3, [fp, #-16]
  while ((U1LSR & 0x20) == 0);
    6ef8:	e3a0320e 	mov	r3, #-536870912	; 0xe0000000
    6efc:	e2833801 	add	r3, r3, #65536	; 0x10000
    6f00:	e2833014 	add	r3, r3, #20
    6f04:	e5933000 	ldr	r3, [r3]
    6f08:	e2033020 	and	r3, r3, #32
    6f0c:	e3530000 	cmp	r3, #0
    6f10:	0afffff8 	beq	6ef8 <UART1WriteChar+0x18>
  U1THR = ch;
    6f14:	e3a0320e 	mov	r3, #-536870912	; 0xe0000000
    6f18:	e2833801 	add	r3, r3, #65536	; 0x10000
    6f1c:	e55b2010 	ldrb	r2, [fp, #-16]
    6f20:	e5832000 	str	r2, [r3]
}
    6f24:	e24bd00c 	sub	sp, fp, #12
    6f28:	e89d6800 	ldm	sp, {fp, sp, lr}
    6f2c:	e12fff1e 	bx	lr

00006f30 <UARTReadChar>:

unsigned char UARTReadChar(void)
{
    6f30:	e1a0c00d 	mov	ip, sp
    6f34:	e92dd800 	push	{fp, ip, lr, pc}
    6f38:	e24cb004 	sub	fp, ip, #4
  while ((U0LSR & 0x01) == 0);
    6f3c:	e3a0320e 	mov	r3, #-536870912	; 0xe0000000
    6f40:	e2833903 	add	r3, r3, #49152	; 0xc000
    6f44:	e2833014 	add	r3, r3, #20
    6f48:	e5933000 	ldr	r3, [r3]
    6f4c:	e2033001 	and	r3, r3, #1
    6f50:	e3530000 	cmp	r3, #0
    6f54:	0afffff8 	beq	6f3c <UARTReadChar+0xc>
  return U0RBR;
    6f58:	e3a0320e 	mov	r3, #-536870912	; 0xe0000000
    6f5c:	e2833903 	add	r3, r3, #49152	; 0xc000
    6f60:	e5933000 	ldr	r3, [r3]
    6f64:	e20330ff 	and	r3, r3, #255	; 0xff
}
    6f68:	e1a00003 	mov	r0, r3
    6f6c:	e24bd00c 	sub	sp, fp, #12
    6f70:	e89d6800 	ldm	sp, {fp, sp, lr}
    6f74:	e12fff1e 	bx	lr

00006f78 <UART1ReadChar>:

unsigned char UART1ReadChar(void)
{
    6f78:	e1a0c00d 	mov	ip, sp
    6f7c:	e92dd800 	push	{fp, ip, lr, pc}
    6f80:	e24cb004 	sub	fp, ip, #4
  while ((U1LSR & 0x01) == 0);
    6f84:	e3a0320e 	mov	r3, #-536870912	; 0xe0000000
    6f88:	e2833801 	add	r3, r3, #65536	; 0x10000
    6f8c:	e2833014 	add	r3, r3, #20
    6f90:	e5933000 	ldr	r3, [r3]
    6f94:	e2033001 	and	r3, r3, #1
    6f98:	e3530000 	cmp	r3, #0
    6f9c:	0afffff8 	beq	6f84 <UART1ReadChar+0xc>
  return U1RBR;
    6fa0:	e3a0320e 	mov	r3, #-536870912	; 0xe0000000
    6fa4:	e2833801 	add	r3, r3, #65536	; 0x10000
    6fa8:	e5933000 	ldr	r3, [r3]
    6fac:	e20330ff 	and	r3, r3, #255	; 0xff
}
    6fb0:	e1a00003 	mov	r0, r3
    6fb4:	e24bd00c 	sub	sp, fp, #12
    6fb8:	e89d6800 	ldm	sp, {fp, sp, lr}
    6fbc:	e12fff1e 	bx	lr

00006fc0 <__putchar>:

void __putchar(int ch)
{
    6fc0:	e1a0c00d 	mov	ip, sp
    6fc4:	e92dd800 	push	{fp, ip, lr, pc}
    6fc8:	e24cb004 	sub	fp, ip, #4
    6fcc:	e24dd004 	sub	sp, sp, #4
    6fd0:	e50b0010 	str	r0, [fp, #-16]
  if (ch == '\n')
    6fd4:	e51b3010 	ldr	r3, [fp, #-16]
    6fd8:	e353000a 	cmp	r3, #10
    6fdc:	1a000001 	bne	6fe8 <__putchar+0x28>
    UARTWriteChar('\r');
    6fe0:	e3a0000d 	mov	r0, #13
    6fe4:	ebffffa9 	bl	6e90 <UARTWriteChar>
  UARTWriteChar(ch);
    6fe8:	e51b3010 	ldr	r3, [fp, #-16]
    6fec:	e20330ff 	and	r3, r3, #255	; 0xff
    6ff0:	e1a00003 	mov	r0, r3
    6ff4:	ebffffa5 	bl	6e90 <UARTWriteChar>
}
    6ff8:	e24bd00c 	sub	sp, fp, #12
    6ffc:	e89d6800 	ldm	sp, {fp, sp, lr}
    7000:	e12fff1e 	bx	lr

00007004 <UART_send>:

void UART_send(char *buffer, unsigned char length)
{
    7004:	e1a0c00d 	mov	ip, sp
    7008:	e92dd800 	push	{fp, ip, lr, pc}
    700c:	e24cb004 	sub	fp, ip, #4
    7010:	e24dd00c 	sub	sp, sp, #12
    7014:	e50b0014 	str	r0, [fp, #-20]
    7018:	e1a03001 	mov	r3, r1
    701c:	e54b3018 	strb	r3, [fp, #-24]
  unsigned char cnt=0;
    7020:	e3a03000 	mov	r3, #0
    7024:	e54b300d 	strb	r3, [fp, #-13]
  while (!(U0LSR & 0x20)); //wait until U0THR and U0TSR are both empty
    7028:	e3a0320e 	mov	r3, #-536870912	; 0xe0000000
    702c:	e2833903 	add	r3, r3, #49152	; 0xc000
    7030:	e2833014 	add	r3, r3, #20
    7034:	e5933000 	ldr	r3, [r3]
    7038:	e2033020 	and	r3, r3, #32
    703c:	e3530000 	cmp	r3, #0
    7040:	0afffff8 	beq	7028 <UART_send+0x24>
  while(length--)
    7044:	ea000014 	b	709c <UART_send+0x98>
  {
    U0THR = buffer[cnt++];
    7048:	e3a0220e 	mov	r2, #-536870912	; 0xe0000000
    704c:	e2822903 	add	r2, r2, #49152	; 0xc000
    7050:	e55b300d 	ldrb	r3, [fp, #-13]
    7054:	e1a01003 	mov	r1, r3
    7058:	e51b3014 	ldr	r3, [fp, #-20]
    705c:	e0813003 	add	r3, r1, r3
    7060:	e5d33000 	ldrb	r3, [r3]
    7064:	e5823000 	str	r3, [r2]
    7068:	e55b300d 	ldrb	r3, [fp, #-13]
    706c:	e2833001 	add	r3, r3, #1
    7070:	e54b300d 	strb	r3, [fp, #-13]
    if(cnt>15)
    7074:	e55b300d 	ldrb	r3, [fp, #-13]
    7078:	e353000f 	cmp	r3, #15
    707c:	9a000006 	bls	709c <UART_send+0x98>
    {
      while (!(U0LSR & 0x20)); //wait until U0THR is empty
    7080:	e3a0320e 	mov	r3, #-536870912	; 0xe0000000
    7084:	e2833903 	add	r3, r3, #49152	; 0xc000
    7088:	e2833014 	add	r3, r3, #20
    708c:	e5933000 	ldr	r3, [r3]
    7090:	e2033020 	and	r3, r3, #32
    7094:	e3530000 	cmp	r3, #0
    7098:	0afffff8 	beq	7080 <UART_send+0x7c>

void UART_send(char *buffer, unsigned char length)
{
  unsigned char cnt=0;
  while (!(U0LSR & 0x20)); //wait until U0THR and U0TSR are both empty
  while(length--)
    709c:	e55b3018 	ldrb	r3, [fp, #-24]
    70a0:	e2433001 	sub	r3, r3, #1
    70a4:	e54b3018 	strb	r3, [fp, #-24]
    70a8:	e55b3018 	ldrb	r3, [fp, #-24]
    70ac:	e35300ff 	cmp	r3, #255	; 0xff
    70b0:	1affffe4 	bne	7048 <UART_send+0x44>
    if(cnt>15)
    {
      while (!(U0LSR & 0x20)); //wait until U0THR is empty
    }
  }
}
    70b4:	e24bd00c 	sub	sp, fp, #12
    70b8:	e89d6800 	ldm	sp, {fp, sp, lr}
    70bc:	e12fff1e 	bx	lr

000070c0 <UART1_send>:

void UART1_send(unsigned char *buffer, unsigned char length)
{
    70c0:	e1a0c00d 	mov	ip, sp
    70c4:	e92dd800 	push	{fp, ip, lr, pc}
    70c8:	e24cb004 	sub	fp, ip, #4
    70cc:	e24dd00c 	sub	sp, sp, #12
    70d0:	e50b0014 	str	r0, [fp, #-20]
    70d4:	e1a03001 	mov	r3, r1
    70d8:	e54b3018 	strb	r3, [fp, #-24]
  unsigned char cnt=0;
    70dc:	e3a03000 	mov	r3, #0
    70e0:	e54b300d 	strb	r3, [fp, #-13]
  while(length--)
    70e4:	ea000011 	b	7130 <UART1_send+0x70>
  {
    while (!(U1LSR & 0x20)); //wait until U1THR is empty
    70e8:	e3a0320e 	mov	r3, #-536870912	; 0xe0000000
    70ec:	e2833801 	add	r3, r3, #65536	; 0x10000
    70f0:	e2833014 	add	r3, r3, #20
    70f4:	e5933000 	ldr	r3, [r3]
    70f8:	e2033020 	and	r3, r3, #32
    70fc:	e3530000 	cmp	r3, #0
    7100:	0afffff8 	beq	70e8 <UART1_send+0x28>
    U1THR = buffer[cnt++];
    7104:	e3a0220e 	mov	r2, #-536870912	; 0xe0000000
    7108:	e2822801 	add	r2, r2, #65536	; 0x10000
    710c:	e55b300d 	ldrb	r3, [fp, #-13]
    7110:	e1a01003 	mov	r1, r3
    7114:	e51b3014 	ldr	r3, [fp, #-20]
    7118:	e0813003 	add	r3, r1, r3
    711c:	e5d33000 	ldrb	r3, [r3]
    7120:	e5823000 	str	r3, [r2]
    7124:	e55b300d 	ldrb	r3, [fp, #-13]
    7128:	e2833001 	add	r3, r3, #1
    712c:	e54b300d 	strb	r3, [fp, #-13]
}

void UART1_send(unsigned char *buffer, unsigned char length)
{
  unsigned char cnt=0;
  while(length--)
    7130:	e55b3018 	ldrb	r3, [fp, #-24]
    7134:	e2433001 	sub	r3, r3, #1
    7138:	e54b3018 	strb	r3, [fp, #-24]
    713c:	e55b3018 	ldrb	r3, [fp, #-24]
    7140:	e35300ff 	cmp	r3, #255	; 0xff
    7144:	1affffe7 	bne	70e8 <UART1_send+0x28>
  {
    while (!(U1LSR & 0x20)); //wait until U1THR is empty
    U1THR = buffer[cnt++];
  }
}
    7148:	e24bd00c 	sub	sp, fp, #12
    714c:	e89d6800 	ldm	sp, {fp, sp, lr}
    7150:	e12fff1e 	bx	lr

00007154 <UART_send_ringbuffer>:


void UART_send_ringbuffer(void)
{
    7154:	e1a0c00d 	mov	ip, sp
    7158:	e92dd800 	push	{fp, ip, lr, pc}
    715c:	e24cb004 	sub	fp, ip, #4
    7160:	e24dd004 	sub	sp, sp, #4
  unsigned char t;
  if(!transmission_running)
    7164:	e59f304c 	ldr	r3, [pc, #76]	; 71b8 <UART_send_ringbuffer+0x64>
    7168:	e5d33000 	ldrb	r3, [r3]
    716c:	e3530000 	cmp	r3, #0
    7170:	1a00000d 	bne	71ac <UART_send_ringbuffer+0x58>
  {
    if(ringbuffer(RBREAD, &t, 1))
    7174:	e24b300d 	sub	r3, fp, #13
    7178:	e3a00000 	mov	r0, #0
    717c:	e1a01003 	mov	r1, r3
    7180:	e3a02001 	mov	r2, #1
    7184:	eb0000c5 	bl	74a0 <ringbuffer>
    7188:	e1a03000 	mov	r3, r0
    718c:	e3530000 	cmp	r3, #0
    7190:	0a000005 	beq	71ac <UART_send_ringbuffer+0x58>
    {
      transmission_running=1;
    7194:	e59f201c 	ldr	r2, [pc, #28]	; 71b8 <UART_send_ringbuffer+0x64>
    7198:	e3a03001 	mov	r3, #1
    719c:	e5c23000 	strb	r3, [r2]
      UARTWriteChar(t);
    71a0:	e55b300d 	ldrb	r3, [fp, #-13]
    71a4:	e1a00003 	mov	r0, r3
    71a8:	ebffff38 	bl	6e90 <UARTWriteChar>
    }
  }
}
    71ac:	e24bd00c 	sub	sp, fp, #12
    71b0:	e89d6800 	ldm	sp, {fp, sp, lr}
    71b4:	e12fff1e 	bx	lr
    71b8:	40000e46 	.word	0x40000e46

000071bc <UART1_send_ringbuffer>:

void UART1_send_ringbuffer(void)
{
    71bc:	e1a0c00d 	mov	ip, sp
    71c0:	e92dd800 	push	{fp, ip, lr, pc}
    71c4:	e24cb004 	sub	fp, ip, #4
    71c8:	e24dd004 	sub	sp, sp, #4
  unsigned char t;
  if(!transmission1_running)
    71cc:	e59f304c 	ldr	r3, [pc, #76]	; 7220 <UART1_send_ringbuffer+0x64>
    71d0:	e5d33000 	ldrb	r3, [r3]
    71d4:	e3530000 	cmp	r3, #0
    71d8:	1a00000d 	bne	7214 <UART1_send_ringbuffer+0x58>
  {
    if(ringbuffer1(RBREAD, &t, 1))
    71dc:	e24b300d 	sub	r3, fp, #13
    71e0:	e3a00000 	mov	r0, #0
    71e4:	e1a01003 	mov	r1, r3
    71e8:	e3a02001 	mov	r2, #1
    71ec:	eb000126 	bl	768c <ringbuffer1>
    71f0:	e1a03000 	mov	r3, r0
    71f4:	e3530000 	cmp	r3, #0
    71f8:	0a000005 	beq	7214 <UART1_send_ringbuffer+0x58>
    {
      transmission1_running=1;
    71fc:	e59f201c 	ldr	r2, [pc, #28]	; 7220 <UART1_send_ringbuffer+0x64>
    7200:	e3a03001 	mov	r3, #1
    7204:	e5c23000 	strb	r3, [r2]
      UART1WriteChar(t);
    7208:	e55b300d 	ldrb	r3, [fp, #-13]
    720c:	e1a00003 	mov	r0, r3
    7210:	ebffff32 	bl	6ee0 <UART1WriteChar>
    }
  }
}
    7214:	e24bd00c 	sub	sp, fp, #12
    7218:	e89d6800 	ldm	sp, {fp, sp, lr}
    721c:	e12fff1e 	bx	lr
    7220:	40000e47 	.word	0x40000e47

00007224 <UART_SendPacket>:

void UART_SendPacket(void *data, unsigned short count, unsigned char packetdescriptor) //example to send data packets as on LL_serial_0
{
    7224:	e1a0c00d 	mov	ip, sp
    7228:	e92dd800 	push	{fp, ip, lr, pc}
    722c:	e24cb004 	sub	fp, ip, #4
    7230:	e24dd014 	sub	sp, sp, #20
    7234:	e50b0018 	str	r0, [fp, #-24]
    7238:	e1a03001 	mov	r3, r1
    723c:	e14b31bc 	strh	r3, [fp, #-28]	; 0xffffffe4
    7240:	e1a03002 	mov	r3, r2
    7244:	e54b3020 	strb	r3, [fp, #-32]
  unsigned short crc;
  int state;
      state=ringbuffer(RBWRITE, startstring, 3);
    7248:	e3a00001 	mov	r0, #1
    724c:	e59f10c0 	ldr	r1, [pc, #192]	; 7314 <UART_SendPacket+0xf0>
    7250:	e3a02003 	mov	r2, #3
    7254:	eb000091 	bl	74a0 <ringbuffer>
    7258:	e1a03000 	mov	r3, r0
    725c:	e50b3010 	str	r3, [fp, #-16]
      state=ringbuffer(RBWRITE, (unsigned char *) &count, 2);
    7260:	e24b301c 	sub	r3, fp, #28
    7264:	e3a00001 	mov	r0, #1
    7268:	e1a01003 	mov	r1, r3
    726c:	e3a02002 	mov	r2, #2
    7270:	eb00008a 	bl	74a0 <ringbuffer>
    7274:	e1a03000 	mov	r3, r0
    7278:	e50b3010 	str	r3, [fp, #-16]
      state=ringbuffer(RBWRITE, &packetdescriptor, 1);
    727c:	e24b3020 	sub	r3, fp, #32
    7280:	e3a00001 	mov	r0, #1
    7284:	e1a01003 	mov	r1, r3
    7288:	e3a02001 	mov	r2, #1
    728c:	eb000083 	bl	74a0 <ringbuffer>
    7290:	e1a03000 	mov	r3, r0
    7294:	e50b3010 	str	r3, [fp, #-16]
      state=ringbuffer(RBWRITE, data, count);
    7298:	e51b2018 	ldr	r2, [fp, #-24]
    729c:	e15b31bc 	ldrh	r3, [fp, #-28]	; 0xffffffe4
    72a0:	e3a00001 	mov	r0, #1
    72a4:	e1a01002 	mov	r1, r2
    72a8:	e1a02003 	mov	r2, r3
    72ac:	eb00007b 	bl	74a0 <ringbuffer>
    72b0:	e1a03000 	mov	r3, r0
    72b4:	e50b3010 	str	r3, [fp, #-16]
                crc=crc16(data,count);
    72b8:	e15b31bc 	ldrh	r3, [fp, #-28]	; 0xffffffe4
    72bc:	e51b0018 	ldr	r0, [fp, #-24]
    72c0:	e1a01003 	mov	r1, r3
    72c4:	eb000050 	bl	740c <crc16>
    72c8:	e1a03000 	mov	r3, r0
    72cc:	e14b31b2 	strh	r3, [fp, #-18]	; 0xffffffee
      state=ringbuffer(RBWRITE, (unsigned char *) &crc, 2);
    72d0:	e24b3012 	sub	r3, fp, #18
    72d4:	e3a00001 	mov	r0, #1
    72d8:	e1a01003 	mov	r1, r3
    72dc:	e3a02002 	mov	r2, #2
    72e0:	eb00006e 	bl	74a0 <ringbuffer>
    72e4:	e1a03000 	mov	r3, r0
    72e8:	e50b3010 	str	r3, [fp, #-16]
      state=ringbuffer(RBWRITE, stopstring, 3);
    72ec:	e3a00001 	mov	r0, #1
    72f0:	e59f1020 	ldr	r1, [pc, #32]	; 7318 <UART_SendPacket+0xf4>
    72f4:	e3a02003 	mov	r2, #3
    72f8:	eb000068 	bl	74a0 <ringbuffer>
    72fc:	e1a03000 	mov	r3, r0
    7300:	e50b3010 	str	r3, [fp, #-16]
      UART_send_ringbuffer();
    7304:	ebffff92 	bl	7154 <UART_send_ringbuffer>
}
    7308:	e24bd00c 	sub	sp, fp, #12
    730c:	e89d6800 	ldm	sp, {fp, sp, lr}
    7310:	e12fff1e 	bx	lr
    7314:	4000021f 	.word	0x4000021f
    7318:	40000222 	.word	0x40000222

0000731c <crc_update>:

//example CRC16 function
unsigned short crc_update (unsigned short crc, unsigned char data)
     {
    731c:	e1a0c00d 	mov	ip, sp
    7320:	e92dd800 	push	{fp, ip, lr, pc}
    7324:	e24cb004 	sub	fp, ip, #4
    7328:	e24dd008 	sub	sp, sp, #8
    732c:	e1a03000 	mov	r3, r0
    7330:	e1a02001 	mov	r2, r1
    7334:	e14b31b0 	strh	r3, [fp, #-16]
    7338:	e1a03002 	mov	r3, r2
    733c:	e54b3014 	strb	r3, [fp, #-20]
         data ^= (crc & 0xff);
    7340:	e15b31b0 	ldrh	r3, [fp, #-16]
    7344:	e20330ff 	and	r3, r3, #255	; 0xff
    7348:	e20330ff 	and	r3, r3, #255	; 0xff
    734c:	e55b2014 	ldrb	r2, [fp, #-20]
    7350:	e1a01003 	mov	r1, r3
    7354:	e1a03002 	mov	r3, r2
    7358:	e0213003 	eor	r3, r1, r3
    735c:	e20330ff 	and	r3, r3, #255	; 0xff
    7360:	e54b3014 	strb	r3, [fp, #-20]
         data ^= data << 4;
    7364:	e55b3014 	ldrb	r3, [fp, #-20]
    7368:	e1a03203 	lsl	r3, r3, #4
    736c:	e20330ff 	and	r3, r3, #255	; 0xff
    7370:	e55b2014 	ldrb	r2, [fp, #-20]
    7374:	e1a01003 	mov	r1, r3
    7378:	e1a03002 	mov	r3, r2
    737c:	e0213003 	eor	r3, r1, r3
    7380:	e20330ff 	and	r3, r3, #255	; 0xff
    7384:	e54b3014 	strb	r3, [fp, #-20]

         return ((((unsigned short )data << 8) | ((crc>>8)&0xff)) ^ (unsigned char )(data >> 4)
    7388:	e55b3014 	ldrb	r3, [fp, #-20]
    738c:	e1a03403 	lsl	r3, r3, #8
    7390:	e1a03803 	lsl	r3, r3, #16
    7394:	e1a02823 	lsr	r2, r3, #16
    7398:	e15b31b0 	ldrh	r3, [fp, #-16]
    739c:	e1a03423 	lsr	r3, r3, #8
    73a0:	e1a03803 	lsl	r3, r3, #16
    73a4:	e1a03823 	lsr	r3, r3, #16
    73a8:	e1a03803 	lsl	r3, r3, #16
    73ac:	e1a03823 	lsr	r3, r3, #16
    73b0:	e20330ff 	and	r3, r3, #255	; 0xff
    73b4:	e1823003 	orr	r3, r2, r3
    73b8:	e1a03803 	lsl	r3, r3, #16
    73bc:	e1a02823 	lsr	r2, r3, #16
    73c0:	e55b3014 	ldrb	r3, [fp, #-20]
    73c4:	e1a03223 	lsr	r3, r3, #4
    73c8:	e20330ff 	and	r3, r3, #255	; 0xff
    73cc:	e0223003 	eor	r3, r2, r3
    73d0:	e1a03803 	lsl	r3, r3, #16
    73d4:	e1a02823 	lsr	r2, r3, #16
    73d8:	e55b3014 	ldrb	r3, [fp, #-20]
    73dc:	e1a03183 	lsl	r3, r3, #3
    73e0:	e1a03803 	lsl	r3, r3, #16
    73e4:	e1a03823 	lsr	r3, r3, #16
    73e8:	e0223003 	eor	r3, r2, r3
    73ec:	e1a03803 	lsl	r3, r3, #16
    73f0:	e1a03823 	lsr	r3, r3, #16
    73f4:	e1a03803 	lsl	r3, r3, #16
    73f8:	e1a03823 	lsr	r3, r3, #16
                 ^ ((unsigned short )data << 3));
     }
    73fc:	e1a00003 	mov	r0, r3
    7400:	e24bd00c 	sub	sp, fp, #12
    7404:	e89d6800 	ldm	sp, {fp, sp, lr}
    7408:	e12fff1e 	bx	lr

0000740c <crc16>:

 unsigned short crc16(void* data, unsigned short cnt)
 {
    740c:	e1a0c00d 	mov	ip, sp
    7410:	e92dd800 	push	{fp, ip, lr, pc}
    7414:	e24cb004 	sub	fp, ip, #4
    7418:	e24dd014 	sub	sp, sp, #20
    741c:	e50b001c 	str	r0, [fp, #-28]
    7420:	e1a03001 	mov	r3, r1
    7424:	e14b32b0 	strh	r3, [fp, #-32]	; 0xffffffe0
   unsigned short crc=0xff;
    7428:	e3a030ff 	mov	r3, #255	; 0xff
    742c:	e14b31b6 	strh	r3, [fp, #-22]	; 0xffffffea
   unsigned char * ptr=(unsigned char *) data;
    7430:	e51b301c 	ldr	r3, [fp, #-28]
    7434:	e50b3014 	str	r3, [fp, #-20]
   int i;

   for (i=0;i<cnt;i++)
    7438:	e3a03000 	mov	r3, #0
    743c:	e50b3010 	str	r3, [fp, #-16]
    7440:	ea00000d 	b	747c <crc16+0x70>
     {
       crc=crc_update(crc,*ptr);
    7444:	e15b21b6 	ldrh	r2, [fp, #-22]	; 0xffffffea
    7448:	e51b3014 	ldr	r3, [fp, #-20]
    744c:	e5d33000 	ldrb	r3, [r3]
    7450:	e1a00002 	mov	r0, r2
    7454:	e1a01003 	mov	r1, r3
    7458:	ebffffaf 	bl	731c <crc_update>
    745c:	e1a03000 	mov	r3, r0
    7460:	e14b31b6 	strh	r3, [fp, #-22]	; 0xffffffea
       ptr++;
    7464:	e51b3014 	ldr	r3, [fp, #-20]
    7468:	e2833001 	add	r3, r3, #1
    746c:	e50b3014 	str	r3, [fp, #-20]
 {
   unsigned short crc=0xff;
   unsigned char * ptr=(unsigned char *) data;
   int i;

   for (i=0;i<cnt;i++)
    7470:	e51b3010 	ldr	r3, [fp, #-16]
    7474:	e2833001 	add	r3, r3, #1
    7478:	e50b3010 	str	r3, [fp, #-16]
    747c:	e15b22b0 	ldrh	r2, [fp, #-32]	; 0xffffffe0
    7480:	e51b3010 	ldr	r3, [fp, #-16]
    7484:	e1520003 	cmp	r2, r3
    7488:	caffffed 	bgt	7444 <crc16+0x38>
     {
       crc=crc_update(crc,*ptr);
       ptr++;
     }
   return crc;
    748c:	e15b31b6 	ldrh	r3, [fp, #-22]	; 0xffffffea
 }
    7490:	e1a00003 	mov	r0, r3
    7494:	e24bd00c 	sub	sp, fp, #12
    7498:	e89d6800 	ldm	sp, {fp, sp, lr}
    749c:	e12fff1e 	bx	lr

000074a0 <ringbuffer>:

// no longer a ringbuffer! - now it's a FIFO
int ringbuffer(unsigned char rw, unsigned char *data, unsigned int count)	//returns 1 when write/read was successful, 0 elsewise
{
    74a0:	e1a0c00d 	mov	ip, sp
    74a4:	e92dd800 	push	{fp, ip, lr, pc}
    74a8:	e24cb004 	sub	fp, ip, #4
    74ac:	e24dd018 	sub	sp, sp, #24
    74b0:	e1a03000 	mov	r3, r0
    74b4:	e50b101c 	str	r1, [fp, #-28]
    74b8:	e50b2020 	str	r2, [fp, #-32]
    74bc:	e54b3018 	strb	r3, [fp, #-24]
    static volatile unsigned char buffer[RINGBUFFERSIZE];
//	static volatile unsigned int pfirst=0, plast=0;	//Pointers to first and last to read byte
	static volatile unsigned int read_pointer, write_pointer;
	static volatile unsigned int content=0;
	unsigned int p=0;
    74c0:	e3a03000 	mov	r3, #0
    74c4:	e50b3014 	str	r3, [fp, #-20]
    unsigned int p2=0;
    74c8:	e3a03000 	mov	r3, #0
    74cc:	e50b3010 	str	r3, [fp, #-16]

	if(rw==RBWRITE)
    74d0:	e55b3018 	ldrb	r3, [fp, #-24]
    74d4:	e3530001 	cmp	r3, #1
    74d8:	1a000021 	bne	7564 <ringbuffer+0xc4>
	{
		if(count<RINGBUFFERSIZE-content)	//enough space in buffer?
    74dc:	e59f3198 	ldr	r3, [pc, #408]	; 767c <ringbuffer+0x1dc>
    74e0:	e5933000 	ldr	r3, [r3]
    74e4:	e2632d06 	rsb	r2, r3, #384	; 0x180
    74e8:	e51b3020 	ldr	r3, [fp, #-32]
    74ec:	e1520003 	cmp	r2, r3
    74f0:	9a00005a 	bls	7660 <ringbuffer+0x1c0>
		{
			while(p<count)
    74f4:	ea00000d 	b	7530 <ringbuffer+0x90>
			{
				buffer[write_pointer++]=data[p++];
    74f8:	e59f3180 	ldr	r3, [pc, #384]	; 7680 <ringbuffer+0x1e0>
    74fc:	e5931000 	ldr	r1, [r3]
    7500:	e51b2014 	ldr	r2, [fp, #-20]
    7504:	e51b301c 	ldr	r3, [fp, #-28]
    7508:	e0823003 	add	r3, r2, r3
    750c:	e5d33000 	ldrb	r3, [r3]
    7510:	e59f216c 	ldr	r2, [pc, #364]	; 7684 <ringbuffer+0x1e4>
    7514:	e7c23001 	strb	r3, [r2, r1]
    7518:	e2812001 	add	r2, r1, #1
    751c:	e59f315c 	ldr	r3, [pc, #348]	; 7680 <ringbuffer+0x1e0>
    7520:	e5832000 	str	r2, [r3]
    7524:	e51b3014 	ldr	r3, [fp, #-20]
    7528:	e2833001 	add	r3, r3, #1
    752c:	e50b3014 	str	r3, [fp, #-20]

	if(rw==RBWRITE)
	{
		if(count<RINGBUFFERSIZE-content)	//enough space in buffer?
		{
			while(p<count)
    7530:	e51b2014 	ldr	r2, [fp, #-20]
    7534:	e51b3020 	ldr	r3, [fp, #-32]
    7538:	e1520003 	cmp	r2, r3
    753c:	3affffed 	bcc	74f8 <ringbuffer+0x58>
			{
				buffer[write_pointer++]=data[p++];
			}
            content+=count;
    7540:	e59f3134 	ldr	r3, [pc, #308]	; 767c <ringbuffer+0x1dc>
    7544:	e5932000 	ldr	r2, [r3]
    7548:	e51b3020 	ldr	r3, [fp, #-32]
    754c:	e0822003 	add	r2, r2, r3
    7550:	e59f3124 	ldr	r3, [pc, #292]	; 767c <ringbuffer+0x1dc>
    7554:	e5832000 	str	r2, [r3]
            return(1);
    7558:	e3a03001 	mov	r3, #1
    755c:	e50b3024 	str	r3, [fp, #-36]	; 0x24
    7560:	ea000040 	b	7668 <ringbuffer+0x1c8>
		}
	}
	else if(rw==RBREAD)
    7564:	e55b3018 	ldrb	r3, [fp, #-24]
    7568:	e3530000 	cmp	r3, #0
    756c:	1a00002b 	bne	7620 <ringbuffer+0x180>
	{
		if(content>=count)
    7570:	e59f3104 	ldr	r3, [pc, #260]	; 767c <ringbuffer+0x1dc>
    7574:	e5932000 	ldr	r2, [r3]
    7578:	e51b3020 	ldr	r3, [fp, #-32]
    757c:	e1520003 	cmp	r2, r3
    7580:	3a000036 	bcc	7660 <ringbuffer+0x1c0>
		{
			while(p2<count)
    7584:	ea00000e 	b	75c4 <ringbuffer+0x124>
			{
				data[p2++]=buffer[read_pointer++];
    7588:	e51b2010 	ldr	r2, [fp, #-16]
    758c:	e51b301c 	ldr	r3, [fp, #-28]
    7590:	e0822003 	add	r2, r2, r3
    7594:	e59f30ec 	ldr	r3, [pc, #236]	; 7688 <ringbuffer+0x1e8>
    7598:	e5931000 	ldr	r1, [r3]
    759c:	e59f30e0 	ldr	r3, [pc, #224]	; 7684 <ringbuffer+0x1e4>
    75a0:	e7d33001 	ldrb	r3, [r3, r1]
    75a4:	e20330ff 	and	r3, r3, #255	; 0xff
    75a8:	e5c23000 	strb	r3, [r2]
    75ac:	e51b3010 	ldr	r3, [fp, #-16]
    75b0:	e2833001 	add	r3, r3, #1
    75b4:	e50b3010 	str	r3, [fp, #-16]
    75b8:	e2812001 	add	r2, r1, #1
    75bc:	e59f30c4 	ldr	r3, [pc, #196]	; 7688 <ringbuffer+0x1e8>
    75c0:	e5832000 	str	r2, [r3]
	}
	else if(rw==RBREAD)
	{
		if(content>=count)
		{
			while(p2<count)
    75c4:	e51b2010 	ldr	r2, [fp, #-16]
    75c8:	e51b3020 	ldr	r3, [fp, #-32]
    75cc:	e1520003 	cmp	r2, r3
    75d0:	3affffec 	bcc	7588 <ringbuffer+0xe8>
			{
				data[p2++]=buffer[read_pointer++];
			}
            content-=count;
    75d4:	e59f30a0 	ldr	r3, [pc, #160]	; 767c <ringbuffer+0x1dc>
    75d8:	e5932000 	ldr	r2, [r3]
    75dc:	e51b3020 	ldr	r3, [fp, #-32]
    75e0:	e0632002 	rsb	r2, r3, r2
    75e4:	e59f3090 	ldr	r3, [pc, #144]	; 767c <ringbuffer+0x1dc>
    75e8:	e5832000 	str	r2, [r3]
            if(!content) //buffer empty
    75ec:	e59f3088 	ldr	r3, [pc, #136]	; 767c <ringbuffer+0x1dc>
    75f0:	e5933000 	ldr	r3, [r3]
    75f4:	e3530000 	cmp	r3, #0
    75f8:	1a000005 	bne	7614 <ringbuffer+0x174>
            {
            	write_pointer=0;
    75fc:	e59f207c 	ldr	r2, [pc, #124]	; 7680 <ringbuffer+0x1e0>
    7600:	e3a03000 	mov	r3, #0
    7604:	e5823000 	str	r3, [r2]
            	read_pointer=0;
    7608:	e59f2078 	ldr	r2, [pc, #120]	; 7688 <ringbuffer+0x1e8>
    760c:	e3a03000 	mov	r3, #0
    7610:	e5823000 	str	r3, [r2]
            }
			return(1);
    7614:	e3a03001 	mov	r3, #1
    7618:	e50b3024 	str	r3, [fp, #-36]	; 0x24
    761c:	ea000011 	b	7668 <ringbuffer+0x1c8>
		}
	}
        else if(rw==RBFREE)
    7620:	e55b3018 	ldrb	r3, [fp, #-24]
    7624:	e3530002 	cmp	r3, #2
    7628:	1a00000c 	bne	7660 <ringbuffer+0x1c0>
        {
          if(content) return 0;
    762c:	e59f3048 	ldr	r3, [pc, #72]	; 767c <ringbuffer+0x1dc>
    7630:	e5933000 	ldr	r3, [r3]
    7634:	e3530000 	cmp	r3, #0
    7638:	0a000002 	beq	7648 <ringbuffer+0x1a8>
    763c:	e3a03000 	mov	r3, #0
    7640:	e50b3024 	str	r3, [fp, #-36]	; 0x24
    7644:	ea000007 	b	7668 <ringbuffer+0x1c8>
          else return(RINGBUFFERSIZE-11);
    7648:	e3a03f5d 	mov	r3, #372	; 0x174
    764c:	e50b3024 	str	r3, [fp, #-36]	; 0x24
    7650:	e51b3024 	ldr	r3, [fp, #-36]	; 0x24
    7654:	e2833001 	add	r3, r3, #1
    7658:	e50b3024 	str	r3, [fp, #-36]	; 0x24
    765c:	ea000001 	b	7668 <ringbuffer+0x1c8>
        }

	return(0);
    7660:	e3a03000 	mov	r3, #0
    7664:	e50b3024 	str	r3, [fp, #-36]	; 0x24
    7668:	e51b3024 	ldr	r3, [fp, #-36]	; 0x24
}
    766c:	e1a00003 	mov	r0, r3
    7670:	e24bd00c 	sub	sp, fp, #12
    7674:	e89d6800 	ldm	sp, {fp, sp, lr}
    7678:	e12fff1e 	bx	lr
    767c:	40000e58 	.word	0x40000e58
    7680:	40000e5c 	.word	0x40000e5c
    7684:	40000e64 	.word	0x40000e64
    7688:	40000e60 	.word	0x40000e60

0000768c <ringbuffer1>:

int ringbuffer1(unsigned char rw, unsigned char *data, unsigned int count)	//returns 1 when write/read was successful, 0 elsewise
{
    768c:	e1a0c00d 	mov	ip, sp
    7690:	e92dd800 	push	{fp, ip, lr, pc}
    7694:	e24cb004 	sub	fp, ip, #4
    7698:	e24dd018 	sub	sp, sp, #24
    769c:	e1a03000 	mov	r3, r0
    76a0:	e50b101c 	str	r1, [fp, #-28]
    76a4:	e50b2020 	str	r2, [fp, #-32]
    76a8:	e54b3018 	strb	r3, [fp, #-24]
    static volatile unsigned char buffer[RINGBUFFERSIZE];
//	static volatile unsigned int pfirst=0, plast=0;	//Pointers to first and last to read byte
	static volatile unsigned int read_pointer, write_pointer;
	static volatile unsigned int content=0;
	unsigned int p=0;
    76ac:	e3a03000 	mov	r3, #0
    76b0:	e50b3014 	str	r3, [fp, #-20]
    unsigned int p2=0;
    76b4:	e3a03000 	mov	r3, #0
    76b8:	e50b3010 	str	r3, [fp, #-16]

	if(rw==RBWRITE)
    76bc:	e55b3018 	ldrb	r3, [fp, #-24]
    76c0:	e3530001 	cmp	r3, #1
    76c4:	1a000021 	bne	7750 <ringbuffer1+0xc4>
	{
		if(count<RINGBUFFERSIZE-content)	//enough space in buffer?
    76c8:	e59f3198 	ldr	r3, [pc, #408]	; 7868 <ringbuffer1+0x1dc>
    76cc:	e5933000 	ldr	r3, [r3]
    76d0:	e2632d06 	rsb	r2, r3, #384	; 0x180
    76d4:	e51b3020 	ldr	r3, [fp, #-32]
    76d8:	e1520003 	cmp	r2, r3
    76dc:	9a00005a 	bls	784c <ringbuffer1+0x1c0>
		{
			while(p<count)
    76e0:	ea00000d 	b	771c <ringbuffer1+0x90>
			{
				buffer[write_pointer++]=data[p++];
    76e4:	e59f3180 	ldr	r3, [pc, #384]	; 786c <ringbuffer1+0x1e0>
    76e8:	e5931000 	ldr	r1, [r3]
    76ec:	e51b2014 	ldr	r2, [fp, #-20]
    76f0:	e51b301c 	ldr	r3, [fp, #-28]
    76f4:	e0823003 	add	r3, r2, r3
    76f8:	e5d33000 	ldrb	r3, [r3]
    76fc:	e59f216c 	ldr	r2, [pc, #364]	; 7870 <ringbuffer1+0x1e4>
    7700:	e7c23001 	strb	r3, [r2, r1]
    7704:	e2812001 	add	r2, r1, #1
    7708:	e59f315c 	ldr	r3, [pc, #348]	; 786c <ringbuffer1+0x1e0>
    770c:	e5832000 	str	r2, [r3]
    7710:	e51b3014 	ldr	r3, [fp, #-20]
    7714:	e2833001 	add	r3, r3, #1
    7718:	e50b3014 	str	r3, [fp, #-20]

	if(rw==RBWRITE)
	{
		if(count<RINGBUFFERSIZE-content)	//enough space in buffer?
		{
			while(p<count)
    771c:	e51b2014 	ldr	r2, [fp, #-20]
    7720:	e51b3020 	ldr	r3, [fp, #-32]
    7724:	e1520003 	cmp	r2, r3
    7728:	3affffed 	bcc	76e4 <ringbuffer1+0x58>
			{
				buffer[write_pointer++]=data[p++];
			}
            content+=count;
    772c:	e59f3134 	ldr	r3, [pc, #308]	; 7868 <ringbuffer1+0x1dc>
    7730:	e5932000 	ldr	r2, [r3]
    7734:	e51b3020 	ldr	r3, [fp, #-32]
    7738:	e0822003 	add	r2, r2, r3
    773c:	e59f3124 	ldr	r3, [pc, #292]	; 7868 <ringbuffer1+0x1dc>
    7740:	e5832000 	str	r2, [r3]
            return(1);
    7744:	e3a03001 	mov	r3, #1
    7748:	e50b3024 	str	r3, [fp, #-36]	; 0x24
    774c:	ea000040 	b	7854 <ringbuffer1+0x1c8>
		}
	}
	else if(rw==RBREAD)
    7750:	e55b3018 	ldrb	r3, [fp, #-24]
    7754:	e3530000 	cmp	r3, #0
    7758:	1a00002b 	bne	780c <ringbuffer1+0x180>
	{
		if(content>=count)
    775c:	e59f3104 	ldr	r3, [pc, #260]	; 7868 <ringbuffer1+0x1dc>
    7760:	e5932000 	ldr	r2, [r3]
    7764:	e51b3020 	ldr	r3, [fp, #-32]
    7768:	e1520003 	cmp	r2, r3
    776c:	3a000036 	bcc	784c <ringbuffer1+0x1c0>
		{
			while(p2<count)
    7770:	ea00000e 	b	77b0 <ringbuffer1+0x124>
			{
				data[p2++]=buffer[read_pointer++];
    7774:	e51b2010 	ldr	r2, [fp, #-16]
    7778:	e51b301c 	ldr	r3, [fp, #-28]
    777c:	e0822003 	add	r2, r2, r3
    7780:	e59f30ec 	ldr	r3, [pc, #236]	; 7874 <ringbuffer1+0x1e8>
    7784:	e5931000 	ldr	r1, [r3]
    7788:	e59f30e0 	ldr	r3, [pc, #224]	; 7870 <ringbuffer1+0x1e4>
    778c:	e7d33001 	ldrb	r3, [r3, r1]
    7790:	e20330ff 	and	r3, r3, #255	; 0xff
    7794:	e5c23000 	strb	r3, [r2]
    7798:	e51b3010 	ldr	r3, [fp, #-16]
    779c:	e2833001 	add	r3, r3, #1
    77a0:	e50b3010 	str	r3, [fp, #-16]
    77a4:	e2812001 	add	r2, r1, #1
    77a8:	e59f30c4 	ldr	r3, [pc, #196]	; 7874 <ringbuffer1+0x1e8>
    77ac:	e5832000 	str	r2, [r3]
	}
	else if(rw==RBREAD)
	{
		if(content>=count)
		{
			while(p2<count)
    77b0:	e51b2010 	ldr	r2, [fp, #-16]
    77b4:	e51b3020 	ldr	r3, [fp, #-32]
    77b8:	e1520003 	cmp	r2, r3
    77bc:	3affffec 	bcc	7774 <ringbuffer1+0xe8>
			{
				data[p2++]=buffer[read_pointer++];
			}
            content-=count;
    77c0:	e59f30a0 	ldr	r3, [pc, #160]	; 7868 <ringbuffer1+0x1dc>
    77c4:	e5932000 	ldr	r2, [r3]
    77c8:	e51b3020 	ldr	r3, [fp, #-32]
    77cc:	e0632002 	rsb	r2, r3, r2
    77d0:	e59f3090 	ldr	r3, [pc, #144]	; 7868 <ringbuffer1+0x1dc>
    77d4:	e5832000 	str	r2, [r3]
            if(!content) //buffer empty
    77d8:	e59f3088 	ldr	r3, [pc, #136]	; 7868 <ringbuffer1+0x1dc>
    77dc:	e5933000 	ldr	r3, [r3]
    77e0:	e3530000 	cmp	r3, #0
    77e4:	1a000005 	bne	7800 <ringbuffer1+0x174>
            {
            	write_pointer=0;
    77e8:	e59f207c 	ldr	r2, [pc, #124]	; 786c <ringbuffer1+0x1e0>
    77ec:	e3a03000 	mov	r3, #0
    77f0:	e5823000 	str	r3, [r2]
            	read_pointer=0;
    77f4:	e59f2078 	ldr	r2, [pc, #120]	; 7874 <ringbuffer1+0x1e8>
    77f8:	e3a03000 	mov	r3, #0
    77fc:	e5823000 	str	r3, [r2]
            }
			return(1);
    7800:	e3a03001 	mov	r3, #1
    7804:	e50b3024 	str	r3, [fp, #-36]	; 0x24
    7808:	ea000011 	b	7854 <ringbuffer1+0x1c8>
		}
	}
        else if(rw==RBFREE)
    780c:	e55b3018 	ldrb	r3, [fp, #-24]
    7810:	e3530002 	cmp	r3, #2
    7814:	1a00000c 	bne	784c <ringbuffer1+0x1c0>
        {
          if(content) return 0;
    7818:	e59f3048 	ldr	r3, [pc, #72]	; 7868 <ringbuffer1+0x1dc>
    781c:	e5933000 	ldr	r3, [r3]
    7820:	e3530000 	cmp	r3, #0
    7824:	0a000002 	beq	7834 <ringbuffer1+0x1a8>
    7828:	e3a03000 	mov	r3, #0
    782c:	e50b3024 	str	r3, [fp, #-36]	; 0x24
    7830:	ea000007 	b	7854 <ringbuffer1+0x1c8>
          else return(RINGBUFFERSIZE-11);
    7834:	e3a03f5d 	mov	r3, #372	; 0x174
    7838:	e50b3024 	str	r3, [fp, #-36]	; 0x24
    783c:	e51b3024 	ldr	r3, [fp, #-36]	; 0x24
    7840:	e2833001 	add	r3, r3, #1
    7844:	e50b3024 	str	r3, [fp, #-36]	; 0x24
    7848:	ea000001 	b	7854 <ringbuffer1+0x1c8>
        }

	return(0);
    784c:	e3a03000 	mov	r3, #0
    7850:	e50b3024 	str	r3, [fp, #-36]	; 0x24
    7854:	e51b3024 	ldr	r3, [fp, #-36]	; 0x24
}
    7858:	e1a00003 	mov	r0, r3
    785c:	e24bd00c 	sub	sp, fp, #12
    7860:	e89d6800 	ldm	sp, {fp, sp, lr}
    7864:	e12fff1e 	bx	lr
    7868:	40000fe4 	.word	0x40000fe4
    786c:	40000fe8 	.word	0x40000fe8
    7870:	40000ff0 	.word	0x40000ff0
    7874:	40000fec 	.word	0x40000fec

00007878 <_read_r>:
#include <sys/stat.h>
#include "uart.h"

// new code for _read_r provided by Alexey Shusharin - Thanks
_ssize_t _read_r(struct _reent *r, int file, void *ptr, size_t len)
{
    7878:	e1a0c00d 	mov	ip, sp
    787c:	e92dd800 	push	{fp, ip, lr, pc}
    7880:	e24cb004 	sub	fp, ip, #4
    7884:	e24dd020 	sub	sp, sp, #32
    7888:	e50b001c 	str	r0, [fp, #-28]
    788c:	e50b1020 	str	r1, [fp, #-32]
    7890:	e50b2024 	str	r2, [fp, #-36]	; 0x24
    7894:	e50b3028 	str	r3, [fp, #-40]	; 0x28
  char c;
  int  i;
  unsigned char *p;

  p = (unsigned char*)ptr;
    7898:	e51b3024 	ldr	r3, [fp, #-36]	; 0x24
    789c:	e50b3010 	str	r3, [fp, #-16]

  for (i = 0; i < len; i++)
    78a0:	e3a03000 	mov	r3, #0
    78a4:	e50b3014 	str	r3, [fp, #-20]
    78a8:	ea00001f 	b	792c <_read_r+0xb4>
  {
    c = UARTReadChar();
    78ac:	ebfffd9f 	bl	6f30 <UARTReadChar>
    78b0:	e1a03000 	mov	r3, r0
    78b4:	e54b3015 	strb	r3, [fp, #-21]

    *p++ = c;
    78b8:	e51b2010 	ldr	r2, [fp, #-16]
    78bc:	e55b3015 	ldrb	r3, [fp, #-21]
    78c0:	e5c23000 	strb	r3, [r2]
    78c4:	e51b3010 	ldr	r3, [fp, #-16]
    78c8:	e2833001 	add	r3, r3, #1
    78cc:	e50b3010 	str	r3, [fp, #-16]
    UARTWriteChar(c);
    78d0:	e55b3015 	ldrb	r3, [fp, #-21]
    78d4:	e1a00003 	mov	r0, r3
    78d8:	ebfffd6c 	bl	6e90 <UARTWriteChar>

    if (c == 0x0D && i <= (len - 2))
    78dc:	e55b3015 	ldrb	r3, [fp, #-21]
    78e0:	e353000d 	cmp	r3, #13
    78e4:	1a00000d 	bne	7920 <_read_r+0xa8>
    78e8:	e51b3014 	ldr	r3, [fp, #-20]
    78ec:	e51b2028 	ldr	r2, [fp, #-40]	; 0x28
    78f0:	e2422002 	sub	r2, r2, #2
    78f4:	e1530002 	cmp	r3, r2
    78f8:	8a000008 	bhi	7920 <_read_r+0xa8>
    {
      *p = 0x0A;
    78fc:	e51b2010 	ldr	r2, [fp, #-16]
    7900:	e3a0300a 	mov	r3, #10
    7904:	e5c23000 	strb	r3, [r2]
      UARTWriteChar(0x0A);
    7908:	e3a0000a 	mov	r0, #10
    790c:	ebfffd5f 	bl	6e90 <UARTWriteChar>
      return i + 2;
    7910:	e51b3014 	ldr	r3, [fp, #-20]
    7914:	e2833002 	add	r3, r3, #2
    7918:	e50b302c 	str	r3, [fp, #-44]	; 0x2c
    791c:	ea000008 	b	7944 <_read_r+0xcc>
  int  i;
  unsigned char *p;

  p = (unsigned char*)ptr;

  for (i = 0; i < len; i++)
    7920:	e51b3014 	ldr	r3, [fp, #-20]
    7924:	e2833001 	add	r3, r3, #1
    7928:	e50b3014 	str	r3, [fp, #-20]
    792c:	e51b2014 	ldr	r2, [fp, #-20]
    7930:	e51b3028 	ldr	r3, [fp, #-40]	; 0x28
    7934:	e1520003 	cmp	r2, r3
    7938:	3affffdb 	bcc	78ac <_read_r+0x34>
      *p = 0x0A;
      UARTWriteChar(0x0A);
      return i + 2;
    }
  }
  return i;
    793c:	e51b3014 	ldr	r3, [fp, #-20]
    7940:	e50b302c 	str	r3, [fp, #-44]	; 0x2c
    7944:	e51b302c 	ldr	r3, [fp, #-44]	; 0x2c
}
    7948:	e1a00003 	mov	r0, r3
    794c:	e24bd00c 	sub	sp, fp, #12
    7950:	e89d6800 	ldm	sp, {fp, sp, lr}
    7954:	e12fff1e 	bx	lr

00007958 <_write_r>:
_ssize_t _write_r (
    struct _reent *r, 
    int file, 
    const void *ptr, 
    size_t len)
{
    7958:	e1a0c00d 	mov	ip, sp
    795c:	e92dd800 	push	{fp, ip, lr, pc}
    7960:	e24cb004 	sub	fp, ip, #4
    7964:	e24dd018 	sub	sp, sp, #24
    7968:	e50b0018 	str	r0, [fp, #-24]
    796c:	e50b101c 	str	r1, [fp, #-28]
    7970:	e50b2020 	str	r2, [fp, #-32]
    7974:	e50b3024 	str	r3, [fp, #-36]	; 0x24
	int i;
	const unsigned char *p;
	
	p = (const unsigned char*) ptr;
    7978:	e51b3020 	ldr	r3, [fp, #-32]
    797c:	e50b3010 	str	r3, [fp, #-16]
	
	for (i = 0; i < len; i++) {
    7980:	e3a03000 	mov	r3, #0
    7984:	e50b3014 	str	r3, [fp, #-20]
    7988:	ea000010 	b	79d0 <_write_r+0x78>
		if (*p == '\n' ) UARTWriteChar('\r');
    798c:	e51b3010 	ldr	r3, [fp, #-16]
    7990:	e5d33000 	ldrb	r3, [r3]
    7994:	e353000a 	cmp	r3, #10
    7998:	1a000001 	bne	79a4 <_write_r+0x4c>
    799c:	e3a0000d 	mov	r0, #13
    79a0:	ebfffd3a 	bl	6e90 <UARTWriteChar>
		UARTWriteChar(*p++);
    79a4:	e51b3010 	ldr	r3, [fp, #-16]
    79a8:	e5d33000 	ldrb	r3, [r3]
    79ac:	e1a02003 	mov	r2, r3
    79b0:	e51b3010 	ldr	r3, [fp, #-16]
    79b4:	e2833001 	add	r3, r3, #1
    79b8:	e50b3010 	str	r3, [fp, #-16]
    79bc:	e1a00002 	mov	r0, r2
    79c0:	ebfffd32 	bl	6e90 <UARTWriteChar>
	int i;
	const unsigned char *p;
	
	p = (const unsigned char*) ptr;
	
	for (i = 0; i < len; i++) {
    79c4:	e51b3014 	ldr	r3, [fp, #-20]
    79c8:	e2833001 	add	r3, r3, #1
    79cc:	e50b3014 	str	r3, [fp, #-20]
    79d0:	e51b2014 	ldr	r2, [fp, #-20]
    79d4:	e51b3024 	ldr	r3, [fp, #-36]	; 0x24
    79d8:	e1520003 	cmp	r2, r3
    79dc:	3affffea 	bcc	798c <_write_r+0x34>
		if (*p == '\n' ) UARTWriteChar('\r');
		UARTWriteChar(*p++);
	}
	
	return len;
    79e0:	e51b3024 	ldr	r3, [fp, #-36]	; 0x24
}
    79e4:	e1a00003 	mov	r0, r3
    79e8:	e24bd00c 	sub	sp, fp, #12
    79ec:	e89d6800 	ldm	sp, {fp, sp, lr}
    79f0:	e12fff1e 	bx	lr

000079f4 <_close_r>:

int _close_r(
    struct _reent *r, 
    int file)
{
    79f4:	e1a0c00d 	mov	ip, sp
    79f8:	e92dd800 	push	{fp, ip, lr, pc}
    79fc:	e24cb004 	sub	fp, ip, #4
    7a00:	e24dd008 	sub	sp, sp, #8
    7a04:	e50b0010 	str	r0, [fp, #-16]
    7a08:	e50b1014 	str	r1, [fp, #-20]
	return 0;
    7a0c:	e3a03000 	mov	r3, #0
}
    7a10:	e1a00003 	mov	r0, r3
    7a14:	e24bd00c 	sub	sp, fp, #12
    7a18:	e89d6800 	ldm	sp, {fp, sp, lr}
    7a1c:	e12fff1e 	bx	lr

00007a20 <_lseek_r>:
_off_t _lseek_r(
    struct _reent *r, 
    int file, 
    _off_t ptr, 
    int dir)
{
    7a20:	e1a0c00d 	mov	ip, sp
    7a24:	e92dd800 	push	{fp, ip, lr, pc}
    7a28:	e24cb004 	sub	fp, ip, #4
    7a2c:	e24dd010 	sub	sp, sp, #16
    7a30:	e50b0010 	str	r0, [fp, #-16]
    7a34:	e50b1014 	str	r1, [fp, #-20]
    7a38:	e50b2018 	str	r2, [fp, #-24]
    7a3c:	e50b301c 	str	r3, [fp, #-28]
	return (_off_t)0;	/*  Always indicate we are at file beginning.	*/
    7a40:	e3a03000 	mov	r3, #0
}
    7a44:	e1a00003 	mov	r0, r3
    7a48:	e24bd00c 	sub	sp, fp, #12
    7a4c:	e89d6800 	ldm	sp, {fp, sp, lr}
    7a50:	e12fff1e 	bx	lr

00007a54 <_fstat_r>:

int _fstat_r(
    struct _reent *r, 
    int file, 
    struct stat *st)
{
    7a54:	e1a0c00d 	mov	ip, sp
    7a58:	e92dd800 	push	{fp, ip, lr, pc}
    7a5c:	e24cb004 	sub	fp, ip, #4
    7a60:	e24dd00c 	sub	sp, sp, #12
    7a64:	e50b0010 	str	r0, [fp, #-16]
    7a68:	e50b1014 	str	r1, [fp, #-20]
    7a6c:	e50b2018 	str	r2, [fp, #-24]
	/*  Always set as character device.				*/
	st->st_mode = S_IFCHR;	
    7a70:	e51b2018 	ldr	r2, [fp, #-24]
    7a74:	e3a03a02 	mov	r3, #8192	; 0x2000
    7a78:	e5823004 	str	r3, [r2, #4]
		/* assigned to strong type with implicit 	*/
		/* signed/unsigned conversion.  Required by 	*/
		/* newlib.					*/

	return 0;
    7a7c:	e3a03000 	mov	r3, #0
}
    7a80:	e1a00003 	mov	r0, r3
    7a84:	e24bd00c 	sub	sp, fp, #12
    7a88:	e89d6800 	ldm	sp, {fp, sp, lr}
    7a8c:	e12fff1e 	bx	lr

00007a90 <isatty>:

int isatty(int file); /* avoid warning */

int isatty(int file)
{
    7a90:	e1a0c00d 	mov	ip, sp
    7a94:	e92dd800 	push	{fp, ip, lr, pc}
    7a98:	e24cb004 	sub	fp, ip, #4
    7a9c:	e24dd004 	sub	sp, sp, #4
    7aa0:	e50b0010 	str	r0, [fp, #-16]
	return 1;
    7aa4:	e3a03001 	mov	r3, #1
}
    7aa8:	e1a00003 	mov	r0, r3
    7aac:	e24bd00c 	sub	sp, fp, #12
    7ab0:	e89d6800 	ldm	sp, {fp, sp, lr}
    7ab4:	e12fff1e 	bx	lr

00007ab8 <_sbrk_r>:
/* messages must be suppressed.						*/

void * _sbrk_r(
    struct _reent *_s_r, 
    ptrdiff_t nbytes)
{
    7ab8:	e1a0c00d 	mov	ip, sp
    7abc:	e92dd800 	push	{fp, ip, lr, pc}
    7ac0:	e24cb004 	sub	fp, ip, #4
    7ac4:	e24dd00c 	sub	sp, sp, #12
    7ac8:	e50b0014 	str	r0, [fp, #-20]
    7acc:	e50b1018 	str	r1, [fp, #-24]
	char  *base;		/*  errno should be set to  ENOMEM on error	*/

	if (!heap_ptr) {	/*  Initialize if first time through.		*/
    7ad0:	e59f304c 	ldr	r3, [pc, #76]	; 7b24 <_sbrk_r+0x6c>
    7ad4:	e5933000 	ldr	r3, [r3]
    7ad8:	e3530000 	cmp	r3, #0
    7adc:	1a000002 	bne	7aec <_sbrk_r+0x34>
		heap_ptr = _end;
    7ae0:	e59f203c 	ldr	r2, [pc, #60]	; 7b24 <_sbrk_r+0x6c>
    7ae4:	e59f303c 	ldr	r3, [pc, #60]	; 7b28 <_sbrk_r+0x70>
    7ae8:	e5823000 	str	r3, [r2]
	}
	base = heap_ptr;	/*  Point to end of heap.			*/
    7aec:	e59f3030 	ldr	r3, [pc, #48]	; 7b24 <_sbrk_r+0x6c>
    7af0:	e5933000 	ldr	r3, [r3]
    7af4:	e50b3010 	str	r3, [fp, #-16]
	heap_ptr += nbytes;	/*  Increase heap.				*/
    7af8:	e59f3024 	ldr	r3, [pc, #36]	; 7b24 <_sbrk_r+0x6c>
    7afc:	e5932000 	ldr	r2, [r3]
    7b00:	e51b3018 	ldr	r3, [fp, #-24]
    7b04:	e0822003 	add	r2, r2, r3
    7b08:	e59f3014 	ldr	r3, [pc, #20]	; 7b24 <_sbrk_r+0x6c>
    7b0c:	e5832000 	str	r2, [r3]
	
	return base;		/*  Return pointer to start of new heap area.	*/
    7b10:	e51b3010 	ldr	r3, [fp, #-16]
}
    7b14:	e1a00003 	mov	r0, r3
    7b18:	e24bd00c 	sub	sp, fp, #12
    7b1c:	e89d6800 	ldm	sp, {fp, sp, lr}
    7b20:	e12fff1e 	bx	lr
    7b24:	40001170 	.word	0x40001170
    7b28:	40004180 	.word	0x40004180

00007b2c <I2C0MasterHandler>:
** parameters:			None
** Returned value:		None
** 
*****************************************************************************/
void I2C0MasterHandler (void) __irq 
{
    7b2c:	e1a0c00d 	mov	ip, sp
    7b30:	e92dd800 	push	{fp, ip, lr, pc}
    7b34:	e24cb004 	sub	fp, ip, #4
    7b38:	e24dd004 	sub	sp, sp, #4
    BYTE StatValue;

    /* this handler deals with master read and master write only */
    StatValue = I20STAT;
    7b3c:	e3a0324e 	mov	r3, #-536870908	; 0xe0000004
    7b40:	e2833907 	add	r3, r3, #114688	; 0x1c000
    7b44:	e5933000 	ldr	r3, [r3]
    7b48:	e54b300d 	strb	r3, [fp, #-13]
    
    IENABLE;   
    switch ( StatValue )
    7b4c:	e55b300d 	ldrb	r3, [fp, #-13]
    7b50:	e2433008 	sub	r3, r3, #8
    7b54:	e3530050 	cmp	r3, #80	; 0x50
    7b58:	979ff103 	ldrls	pc, [pc, r3, lsl #2]
    7b5c:	ea000106 	b	7f7c <I2C0MasterHandler+0x450>
    7b60:	00007ca4 	.word	0x00007ca4
    7b64:	00007f7c 	.word	0x00007f7c
    7b68:	00007f7c 	.word	0x00007f7c
    7b6c:	00007f7c 	.word	0x00007f7c
    7b70:	00007f7c 	.word	0x00007f7c
    7b74:	00007f7c 	.word	0x00007f7c
    7b78:	00007f7c 	.word	0x00007f7c
    7b7c:	00007f7c 	.word	0x00007f7c
    7b80:	00007cdc 	.word	0x00007cdc
    7b84:	00007f7c 	.word	0x00007f7c
    7b88:	00007f7c 	.word	0x00007f7c
    7b8c:	00007f7c 	.word	0x00007f7c
    7b90:	00007f7c 	.word	0x00007f7c
    7b94:	00007f7c 	.word	0x00007f7c
    7b98:	00007f7c 	.word	0x00007f7c
    7b9c:	00007f7c 	.word	0x00007f7c
    7ba0:	00007d34 	.word	0x00007d34
    7ba4:	00007f7c 	.word	0x00007f7c
    7ba8:	00007f7c 	.word	0x00007f7c
    7bac:	00007f7c 	.word	0x00007f7c
    7bb0:	00007f7c 	.word	0x00007f7c
    7bb4:	00007f7c 	.word	0x00007f7c
    7bb8:	00007f7c 	.word	0x00007f7c
    7bbc:	00007f7c 	.word	0x00007f7c
    7bc0:	00007f58 	.word	0x00007f58
    7bc4:	00007f7c 	.word	0x00007f7c
    7bc8:	00007f7c 	.word	0x00007f7c
    7bcc:	00007f7c 	.word	0x00007f7c
    7bd0:	00007f7c 	.word	0x00007f7c
    7bd4:	00007f7c 	.word	0x00007f7c
    7bd8:	00007f7c 	.word	0x00007f7c
    7bdc:	00007f7c 	.word	0x00007f7c
    7be0:	00007d9c 	.word	0x00007d9c
    7be4:	00007f7c 	.word	0x00007f7c
    7be8:	00007f7c 	.word	0x00007f7c
    7bec:	00007f7c 	.word	0x00007f7c
    7bf0:	00007f7c 	.word	0x00007f7c
    7bf4:	00007f7c 	.word	0x00007f7c
    7bf8:	00007f7c 	.word	0x00007f7c
    7bfc:	00007f7c 	.word	0x00007f7c
    7c00:	00007d9c 	.word	0x00007d9c
    7c04:	00007f7c 	.word	0x00007f7c
    7c08:	00007f7c 	.word	0x00007f7c
    7c0c:	00007f7c 	.word	0x00007f7c
    7c10:	00007f7c 	.word	0x00007f7c
    7c14:	00007f7c 	.word	0x00007f7c
    7c18:	00007f7c 	.word	0x00007f7c
    7c1c:	00007f7c 	.word	0x00007f7c
    7c20:	00007f7c 	.word	0x00007f7c
    7c24:	00007f7c 	.word	0x00007f7c
    7c28:	00007f7c 	.word	0x00007f7c
    7c2c:	00007f7c 	.word	0x00007f7c
    7c30:	00007f7c 	.word	0x00007f7c
    7c34:	00007f7c 	.word	0x00007f7c
    7c38:	00007f7c 	.word	0x00007f7c
    7c3c:	00007f7c 	.word	0x00007f7c
    7c40:	00007ea0 	.word	0x00007ea0
    7c44:	00007f7c 	.word	0x00007f7c
    7c48:	00007f7c 	.word	0x00007f7c
    7c4c:	00007f7c 	.word	0x00007f7c
    7c50:	00007f7c 	.word	0x00007f7c
    7c54:	00007f7c 	.word	0x00007f7c
    7c58:	00007f7c 	.word	0x00007f7c
    7c5c:	00007f7c 	.word	0x00007f7c
    7c60:	00007f58 	.word	0x00007f58
    7c64:	00007f7c 	.word	0x00007f7c
    7c68:	00007f7c 	.word	0x00007f7c
    7c6c:	00007f7c 	.word	0x00007f7c
    7c70:	00007f7c 	.word	0x00007f7c
    7c74:	00007f7c 	.word	0x00007f7c
    7c78:	00007f7c 	.word	0x00007f7c
    7c7c:	00007f7c 	.word	0x00007f7c
    7c80:	00007eb8 	.word	0x00007eb8
    7c84:	00007f7c 	.word	0x00007f7c
    7c88:	00007f7c 	.word	0x00007f7c
    7c8c:	00007f7c 	.word	0x00007f7c
    7c90:	00007f7c 	.word	0x00007f7c
    7c94:	00007f7c 	.word	0x00007f7c
    7c98:	00007f7c 	.word	0x00007f7c
    7c9c:	00007f7c 	.word	0x00007f7c
    7ca0:	00007eb8 	.word	0x00007eb8
    {
	case 0x08:			/* A Start condition is issued. */
	I20DAT = I2CMasterBuffer[0];
    7ca4:	e3a0228e 	mov	r2, #-536870904	; 0xe0000008
    7ca8:	e2822907 	add	r2, r2, #114688	; 0x1c000
    7cac:	e59f32f8 	ldr	r3, [pc, #760]	; 7fac <I2C0MasterHandler+0x480>
    7cb0:	e5d33000 	ldrb	r3, [r3]
    7cb4:	e5823000 	str	r3, [r2]
	I20CONCLR = (I2CONCLR_SIC | I2CONCLR_STAC);
    7cb8:	e3a0320e 	mov	r3, #-536870912	; 0xe0000000
    7cbc:	e2833907 	add	r3, r3, #114688	; 0x1c000
    7cc0:	e2833018 	add	r3, r3, #24
    7cc4:	e3a02028 	mov	r2, #40	; 0x28
    7cc8:	e5832000 	str	r2, [r3]
	I2CMasterState = I2C_STARTED;
    7ccc:	e59f22dc 	ldr	r2, [pc, #732]	; 7fb0 <I2C0MasterHandler+0x484>
    7cd0:	e3a03001 	mov	r3, #1
    7cd4:	e5823000 	str	r3, [r2]
	break;
    7cd8:	ea0000ac 	b	7f90 <I2C0MasterHandler+0x464>
	
	case 0x10:			/* A repeated started is issued */
	if (  I2CCmd == GET_DEVICE_ID || I2CCmd == GET_TEMPERATURE )
    7cdc:	e59f32d0 	ldr	r3, [pc, #720]	; 7fb4 <I2C0MasterHandler+0x488>
    7ce0:	e5933000 	ldr	r3, [r3]
    7ce4:	e3530001 	cmp	r3, #1
    7ce8:	0a000003 	beq	7cfc <I2C0MasterHandler+0x1d0>
    7cec:	e59f32c0 	ldr	r3, [pc, #704]	; 7fb4 <I2C0MasterHandler+0x488>
    7cf0:	e5933000 	ldr	r3, [r3]
    7cf4:	e3530002 	cmp	r3, #2
    7cf8:	1a000004 	bne	7d10 <I2C0MasterHandler+0x1e4>
	{
	    I20DAT = I2CMasterBuffer[2];
    7cfc:	e3a0228e 	mov	r2, #-536870904	; 0xe0000008
    7d00:	e2822907 	add	r2, r2, #114688	; 0x1c000
    7d04:	e59f32a0 	ldr	r3, [pc, #672]	; 7fac <I2C0MasterHandler+0x480>
    7d08:	e5d33002 	ldrb	r3, [r3, #2]
    7d0c:	e5823000 	str	r3, [r2]
	}
	I20CONCLR = (I2CONCLR_SIC | I2CONCLR_STAC);
    7d10:	e3a0320e 	mov	r3, #-536870912	; 0xe0000000
    7d14:	e2833907 	add	r3, r3, #114688	; 0x1c000
    7d18:	e2833018 	add	r3, r3, #24
    7d1c:	e3a02028 	mov	r2, #40	; 0x28
    7d20:	e5832000 	str	r2, [r3]
	I2CMasterState = I2C_RESTARTED;
    7d24:	e59f2284 	ldr	r2, [pc, #644]	; 7fb0 <I2C0MasterHandler+0x484>
    7d28:	e3a03002 	mov	r3, #2
    7d2c:	e5823000 	str	r3, [r2]
	break;
    7d30:	ea000096 	b	7f90 <I2C0MasterHandler+0x464>
	
	case 0x18:			/* Regardless, it's a ACK */
	if ( I2CMasterState == I2C_STARTED )
    7d34:	e59f3274 	ldr	r3, [pc, #628]	; 7fb0 <I2C0MasterHandler+0x484>
    7d38:	e5933000 	ldr	r3, [r3]
    7d3c:	e3530001 	cmp	r3, #1
    7d40:	1a00000f 	bne	7d84 <I2C0MasterHandler+0x258>
	{
	    I20DAT = I2CMasterBuffer[1+WrIndex];
    7d44:	e3a0228e 	mov	r2, #-536870904	; 0xe0000008
    7d48:	e2822907 	add	r2, r2, #114688	; 0x1c000
    7d4c:	e59f3264 	ldr	r3, [pc, #612]	; 7fb8 <I2C0MasterHandler+0x48c>
    7d50:	e5933000 	ldr	r3, [r3]
    7d54:	e2831001 	add	r1, r3, #1
    7d58:	e59f324c 	ldr	r3, [pc, #588]	; 7fac <I2C0MasterHandler+0x480>
    7d5c:	e7d33001 	ldrb	r3, [r3, r1]
    7d60:	e5823000 	str	r3, [r2]
	    WrIndex++;
    7d64:	e59f324c 	ldr	r3, [pc, #588]	; 7fb8 <I2C0MasterHandler+0x48c>
    7d68:	e5933000 	ldr	r3, [r3]
    7d6c:	e2832001 	add	r2, r3, #1
    7d70:	e59f3240 	ldr	r3, [pc, #576]	; 7fb8 <I2C0MasterHandler+0x48c>
    7d74:	e5832000 	str	r2, [r3]
	    I2CMasterState = DATA_ACK;
    7d78:	e59f2230 	ldr	r2, [pc, #560]	; 7fb0 <I2C0MasterHandler+0x484>
    7d7c:	e3a03004 	mov	r3, #4
    7d80:	e5823000 	str	r3, [r2]
	}
	I20CONCLR = I2CONCLR_SIC;
    7d84:	e3a0320e 	mov	r3, #-536870912	; 0xe0000000
    7d88:	e2833907 	add	r3, r3, #114688	; 0x1c000
    7d8c:	e2833018 	add	r3, r3, #24
    7d90:	e3a02008 	mov	r2, #8
    7d94:	e5832000 	str	r2, [r3]
	break;
    7d98:	ea00007c 	b	7f90 <I2C0MasterHandler+0x464>
	
	case 0x28:	/* Data byte has been transmitted, regardless ACK or NACK */
	case 0x30:
	if ( WrIndex != I2CWriteLength )
    7d9c:	e59f3214 	ldr	r3, [pc, #532]	; 7fb8 <I2C0MasterHandler+0x48c>
    7da0:	e5932000 	ldr	r2, [r3]
    7da4:	e59f3210 	ldr	r3, [pc, #528]	; 7fbc <I2C0MasterHandler+0x490>
    7da8:	e5933000 	ldr	r3, [r3]
    7dac:	e1520003 	cmp	r2, r3
    7db0:	0a000025 	beq	7e4c <I2C0MasterHandler+0x320>
	{   
	    I20DAT = I2CMasterBuffer[1+WrIndex]; /* this should be the last one */
    7db4:	e3a0228e 	mov	r2, #-536870904	; 0xe0000008
    7db8:	e2822907 	add	r2, r2, #114688	; 0x1c000
    7dbc:	e59f31f4 	ldr	r3, [pc, #500]	; 7fb8 <I2C0MasterHandler+0x48c>
    7dc0:	e5933000 	ldr	r3, [r3]
    7dc4:	e2831001 	add	r1, r3, #1
    7dc8:	e59f31dc 	ldr	r3, [pc, #476]	; 7fac <I2C0MasterHandler+0x480>
    7dcc:	e7d33001 	ldrb	r3, [r3, r1]
    7dd0:	e5823000 	str	r3, [r2]
	    WrIndex++;
    7dd4:	e59f31dc 	ldr	r3, [pc, #476]	; 7fb8 <I2C0MasterHandler+0x48c>
    7dd8:	e5933000 	ldr	r3, [r3]
    7ddc:	e2832001 	add	r2, r3, #1
    7de0:	e59f31d0 	ldr	r3, [pc, #464]	; 7fb8 <I2C0MasterHandler+0x48c>
    7de4:	e5832000 	str	r2, [r3]
	    if ( WrIndex != I2CWriteLength )
    7de8:	e59f31c8 	ldr	r3, [pc, #456]	; 7fb8 <I2C0MasterHandler+0x48c>
    7dec:	e5932000 	ldr	r2, [r3]
    7df0:	e59f31c4 	ldr	r3, [pc, #452]	; 7fbc <I2C0MasterHandler+0x490>
    7df4:	e5933000 	ldr	r3, [r3]
    7df8:	e1520003 	cmp	r2, r3
    7dfc:	0a000003 	beq	7e10 <I2C0MasterHandler+0x2e4>
	    {   
		I2CMasterState = DATA_ACK;
    7e00:	e59f21a8 	ldr	r2, [pc, #424]	; 7fb0 <I2C0MasterHandler+0x484>
    7e04:	e3a03004 	mov	r3, #4
    7e08:	e5823000 	str	r3, [r2]
    7e0c:	ea00001d 	b	7e88 <I2C0MasterHandler+0x35c>
	    }
	    else
	    {
		I2CMasterState = DATA_NACK;
    7e10:	e59f2198 	ldr	r2, [pc, #408]	; 7fb0 <I2C0MasterHandler+0x484>
    7e14:	e3a03005 	mov	r3, #5
    7e18:	e5823000 	str	r3, [r2]
		if ( I2CReadLength != 0 )
    7e1c:	e59f319c 	ldr	r3, [pc, #412]	; 7fc0 <I2C0MasterHandler+0x494>
    7e20:	e5933000 	ldr	r3, [r3]
    7e24:	e3530000 	cmp	r3, #0
    7e28:	0a000016 	beq	7e88 <I2C0MasterHandler+0x35c>
		{
		    I20CONSET = I2CONSET_STA;	/* Set Repeated-start flag */
    7e2c:	e3a0320e 	mov	r3, #-536870912	; 0xe0000000
    7e30:	e2833907 	add	r3, r3, #114688	; 0x1c000
    7e34:	e3a02020 	mov	r2, #32
    7e38:	e5832000 	str	r2, [r3]
		    I2CMasterState = I2C_REPEATED_START;
    7e3c:	e59f216c 	ldr	r2, [pc, #364]	; 7fb0 <I2C0MasterHandler+0x484>
    7e40:	e3a03003 	mov	r3, #3
    7e44:	e5823000 	str	r3, [r2]
    7e48:	ea00000e 	b	7e88 <I2C0MasterHandler+0x35c>
		}
	    }
	}
	else
	{
	    if ( I2CReadLength != 0 )
    7e4c:	e59f316c 	ldr	r3, [pc, #364]	; 7fc0 <I2C0MasterHandler+0x494>
    7e50:	e5933000 	ldr	r3, [r3]
    7e54:	e3530000 	cmp	r3, #0
    7e58:	0a000007 	beq	7e7c <I2C0MasterHandler+0x350>
	    {
		I20CONSET = I2CONSET_STA;	/* Set Repeated-start flag */
    7e5c:	e3a0320e 	mov	r3, #-536870912	; 0xe0000000
    7e60:	e2833907 	add	r3, r3, #114688	; 0x1c000
    7e64:	e3a02020 	mov	r2, #32
    7e68:	e5832000 	str	r2, [r3]
		I2CMasterState = I2C_REPEATED_START;
    7e6c:	e59f213c 	ldr	r2, [pc, #316]	; 7fb0 <I2C0MasterHandler+0x484>
    7e70:	e3a03003 	mov	r3, #3
    7e74:	e5823000 	str	r3, [r2]
    7e78:	ea000002 	b	7e88 <I2C0MasterHandler+0x35c>
	    }
	    else
	    {
		I2CMasterState = DATA_NACK;
    7e7c:	e59f212c 	ldr	r2, [pc, #300]	; 7fb0 <I2C0MasterHandler+0x484>
    7e80:	e3a03005 	mov	r3, #5
    7e84:	e5823000 	str	r3, [r2]
	    }
	}
	I20CONCLR = I2CONCLR_SIC;
    7e88:	e3a0320e 	mov	r3, #-536870912	; 0xe0000000
    7e8c:	e2833907 	add	r3, r3, #114688	; 0x1c000
    7e90:	e2833018 	add	r3, r3, #24
    7e94:	e3a02008 	mov	r2, #8
    7e98:	e5832000 	str	r2, [r3]
	break;
    7e9c:	ea00003b 	b	7f90 <I2C0MasterHandler+0x464>
	
	case 0x40:	/* Master Receive, SLA_R has been sent */
	I20CONCLR = I2CONCLR_SIC;
    7ea0:	e3a0320e 	mov	r3, #-536870912	; 0xe0000000
    7ea4:	e2833907 	add	r3, r3, #114688	; 0x1c000
    7ea8:	e2833018 	add	r3, r3, #24
    7eac:	e3a02008 	mov	r2, #8
    7eb0:	e5832000 	str	r2, [r3]
	break;
    7eb4:	ea000035 	b	7f90 <I2C0MasterHandler+0x464>
	
	case 0x50:	/* Data byte has been received, regardless following ACK or NACK */
	case 0x58:
	I2CMasterBuffer[3+RdIndex] = I20DAT;
    7eb8:	e59f3104 	ldr	r3, [pc, #260]	; 7fc4 <I2C0MasterHandler+0x498>
    7ebc:	e5933000 	ldr	r3, [r3]
    7ec0:	e2831003 	add	r1, r3, #3
    7ec4:	e3a0328e 	mov	r3, #-536870904	; 0xe0000008
    7ec8:	e2833907 	add	r3, r3, #114688	; 0x1c000
    7ecc:	e5933000 	ldr	r3, [r3]
    7ed0:	e20330ff 	and	r3, r3, #255	; 0xff
    7ed4:	e59f20d0 	ldr	r2, [pc, #208]	; 7fac <I2C0MasterHandler+0x480>
    7ed8:	e7c23001 	strb	r3, [r2, r1]
	RdIndex++;
    7edc:	e59f30e0 	ldr	r3, [pc, #224]	; 7fc4 <I2C0MasterHandler+0x498>
    7ee0:	e5933000 	ldr	r3, [r3]
    7ee4:	e2832001 	add	r2, r3, #1
    7ee8:	e59f30d4 	ldr	r3, [pc, #212]	; 7fc4 <I2C0MasterHandler+0x498>
    7eec:	e5832000 	str	r2, [r3]
	if ( RdIndex != I2CReadLength )
    7ef0:	e59f30cc 	ldr	r3, [pc, #204]	; 7fc4 <I2C0MasterHandler+0x498>
    7ef4:	e5932000 	ldr	r2, [r3]
    7ef8:	e59f30c0 	ldr	r3, [pc, #192]	; 7fc0 <I2C0MasterHandler+0x494>
    7efc:	e5933000 	ldr	r3, [r3]
    7f00:	e1520003 	cmp	r2, r3
    7f04:	0a000003 	beq	7f18 <I2C0MasterHandler+0x3ec>
	{   
	    I2CMasterState = DATA_ACK;
    7f08:	e59f20a0 	ldr	r2, [pc, #160]	; 7fb0 <I2C0MasterHandler+0x484>
    7f0c:	e3a03004 	mov	r3, #4
    7f10:	e5823000 	str	r3, [r2]
    7f14:	ea000005 	b	7f30 <I2C0MasterHandler+0x404>
	}
	else
	{
	    RdIndex = 0;
    7f18:	e59f20a4 	ldr	r2, [pc, #164]	; 7fc4 <I2C0MasterHandler+0x498>
    7f1c:	e3a03000 	mov	r3, #0
    7f20:	e5823000 	str	r3, [r2]
	    I2CMasterState = DATA_NACK;
    7f24:	e59f2084 	ldr	r2, [pc, #132]	; 7fb0 <I2C0MasterHandler+0x484>
    7f28:	e3a03005 	mov	r3, #5
    7f2c:	e5823000 	str	r3, [r2]
	}
	I20CONSET = I2CONSET_AA;	/* assert ACK after data is received */
    7f30:	e3a0320e 	mov	r3, #-536870912	; 0xe0000000
    7f34:	e2833907 	add	r3, r3, #114688	; 0x1c000
    7f38:	e3a02004 	mov	r2, #4
    7f3c:	e5832000 	str	r2, [r3]
	I20CONCLR = I2CONCLR_SIC;
    7f40:	e3a0320e 	mov	r3, #-536870912	; 0xe0000000
    7f44:	e2833907 	add	r3, r3, #114688	; 0x1c000
    7f48:	e2833018 	add	r3, r3, #24
    7f4c:	e3a02008 	mov	r2, #8
    7f50:	e5832000 	str	r2, [r3]
	break;
    7f54:	ea00000d 	b	7f90 <I2C0MasterHandler+0x464>
	
	case 0x20:			/* regardless, it's a NACK */
	case 0x48:
	I20CONCLR = I2CONCLR_SIC;
    7f58:	e3a0320e 	mov	r3, #-536870912	; 0xe0000000
    7f5c:	e2833907 	add	r3, r3, #114688	; 0x1c000
    7f60:	e2833018 	add	r3, r3, #24
    7f64:	e3a02008 	mov	r2, #8
    7f68:	e5832000 	str	r2, [r3]
	I2CMasterState = DATA_NACK;
    7f6c:	e59f203c 	ldr	r2, [pc, #60]	; 7fb0 <I2C0MasterHandler+0x484>
    7f70:	e3a03005 	mov	r3, #5
    7f74:	e5823000 	str	r3, [r2]
	break;
    7f78:	ea000004 	b	7f90 <I2C0MasterHandler+0x464>
	
	case 0x38:			/* Arbitration lost, in this example, we don't
					deal with multiple master situation */
	default:
	I20CONCLR = I2CONCLR_SIC;	
    7f7c:	e3a0320e 	mov	r3, #-536870912	; 0xe0000000
    7f80:	e2833907 	add	r3, r3, #114688	; 0x1c000
    7f84:	e2833018 	add	r3, r3, #24
    7f88:	e3a02008 	mov	r2, #8
    7f8c:	e5832000 	str	r2, [r3]
	break;
    }
    
    IDISABLE;
    VICVectAddr = 0;		/* Acknowledge Interrupt */
    7f90:	e3a03000 	mov	r3, #0
    7f94:	e2433efd 	sub	r3, r3, #4048	; 0xfd0
    7f98:	e3a02000 	mov	r2, #0
    7f9c:	e5832000 	str	r2, [r3]

}
    7fa0:	e24bd00c 	sub	sp, fp, #12
    7fa4:	e89d6800 	ldm	sp, {fp, sp, lr}
    7fa8:	e12fff1e 	bx	lr
    7fac:	4000227c 	.word	0x4000227c
    7fb0:	40001174 	.word	0x40001174
    7fb4:	4000229c 	.word	0x4000229c
    7fb8:	40001184 	.word	0x40001184
    7fbc:	400022a0 	.word	0x400022a0
    7fc0:	40002254 	.word	0x40002254
    7fc4:	40001180 	.word	0x40001180

00007fc8 <I2C0_send_motordata>:


void I2C0_send_motordata(void)
{
    7fc8:	e1a0c00d 	mov	ip, sp
    7fcc:	e92dd800 	push	{fp, ip, lr, pc}
    7fd0:	e24cb004 	sub	fp, ip, #4
	WrIndex=0;
    7fd4:	e59f2080 	ldr	r2, [pc, #128]	; 805c <I2C0_send_motordata+0x94>
    7fd8:	e3a03000 	mov	r3, #0
    7fdc:	e5823000 	str	r3, [r2]
	RdIndex=0;
    7fe0:	e59f2078 	ldr	r2, [pc, #120]	; 8060 <I2C0_send_motordata+0x98>
    7fe4:	e3a03000 	mov	r3, #0
    7fe8:	e5823000 	str	r3, [r2]
	I2CWriteLength = 5;
    7fec:	e59f2070 	ldr	r2, [pc, #112]	; 8064 <I2C0_send_motordata+0x9c>
    7ff0:	e3a03005 	mov	r3, #5
    7ff4:	e5823000 	str	r3, [r2]
	I2CReadLength = 0;
    7ff8:	e59f2068 	ldr	r2, [pc, #104]	; 8068 <I2C0_send_motordata+0xa0>
    7ffc:	e3a03000 	mov	r3, #0
    8000:	e5823000 	str	r3, [r2]
    I2CMasterBuffer[0] = 0x02;
    8004:	e59f2060 	ldr	r2, [pc, #96]	; 806c <I2C0_send_motordata+0xa4>
    8008:	e3a03002 	mov	r3, #2
    800c:	e5c23000 	strb	r3, [r2]
    I2CMasterBuffer[1] = 100;
    8010:	e59f2054 	ldr	r2, [pc, #84]	; 806c <I2C0_send_motordata+0xa4>
    8014:	e3a03064 	mov	r3, #100	; 0x64
    8018:	e5c23001 	strb	r3, [r2, #1]
    I2CMasterBuffer[2] = 100;
    801c:	e59f2048 	ldr	r2, [pc, #72]	; 806c <I2C0_send_motordata+0xa4>
    8020:	e3a03064 	mov	r3, #100	; 0x64
    8024:	e5c23002 	strb	r3, [r2, #2]
    I2CMasterBuffer[3] = 100;
    8028:	e59f203c 	ldr	r2, [pc, #60]	; 806c <I2C0_send_motordata+0xa4>
    802c:	e3a03064 	mov	r3, #100	; 0x64
    8030:	e5c23003 	strb	r3, [r2, #3]
    I2CMasterBuffer[4] = 1;
    8034:	e59f2030 	ldr	r2, [pc, #48]	; 806c <I2C0_send_motordata+0xa4>
    8038:	e3a03001 	mov	r3, #1
    803c:	e5c23004 	strb	r3, [r2, #4]

    //I20CONSET = I2CONSET_STA;	/* Set Start flag */
    //if ( !I2CStart() ) I2CStop();
    I2CCmd = GET_TEMPERATURE;
    8040:	e59f2028 	ldr	r2, [pc, #40]	; 8070 <I2C0_send_motordata+0xa8>
    8044:	e3a03002 	mov	r3, #2
    8048:	e5823000 	str	r3, [r2]
	I2CEngine();
    804c:	eb000066 	bl	81ec <I2CEngine>
}
    8050:	e24bd00c 	sub	sp, fp, #12
    8054:	e89d6800 	ldm	sp, {fp, sp, lr}
    8058:	e12fff1e 	bx	lr
    805c:	40001184 	.word	0x40001184
    8060:	40001180 	.word	0x40001180
    8064:	400022a0 	.word	0x400022a0
    8068:	40002254 	.word	0x40002254
    806c:	4000227c 	.word	0x4000227c
    8070:	4000229c 	.word	0x4000229c

00008074 <I2CStart>:
** parameters:			None
** Returned value:		true or false, return false if timed out
** 
*****************************************************************************/
unsigned int I2CStart( void )
{
    8074:	e1a0c00d 	mov	ip, sp
    8078:	e92dd800 	push	{fp, ip, lr, pc}
    807c:	e24cb004 	sub	fp, ip, #4
    8080:	e24dd008 	sub	sp, sp, #8
    unsigned int timeout = 0;
    8084:	e3a03000 	mov	r3, #0
    8088:	e50b3014 	str	r3, [fp, #-20]
    unsigned int returnValue = FALSE;
    808c:	e3a03000 	mov	r3, #0
    8090:	e50b3010 	str	r3, [fp, #-16]
 
    /*--- Issue a start condition ---*/
    I20CONSET = I2CONSET_STA;	/* Set Start flag */
    8094:	e3a0320e 	mov	r3, #-536870912	; 0xe0000000
    8098:	e2833907 	add	r3, r3, #114688	; 0x1c000
    809c:	e3a02020 	mov	r2, #32
    80a0:	e5832000 	str	r2, [r3]
    
    /*--- Wait until START transmitted ---*/
    while( 1 )
    {
	if ( I2CMasterState == I2C_STARTED )
    80a4:	e59f3058 	ldr	r3, [pc, #88]	; 8104 <I2CStart+0x90>
    80a8:	e5933000 	ldr	r3, [r3]
    80ac:	e3530001 	cmp	r3, #1
    80b0:	1a000002 	bne	80c0 <I2CStart+0x4c>
	{
	    returnValue = TRUE;
    80b4:	e3a03001 	mov	r3, #1
    80b8:	e50b3010 	str	r3, [fp, #-16]
	    break;	
    80bc:	ea00000b 	b	80f0 <I2CStart+0x7c>
	}
	if ( timeout >= MAX_TIMEOUT )
    80c0:	e51b2014 	ldr	r2, [fp, #-20]
    80c4:	e3a03401 	mov	r3, #16777216	; 0x1000000
    80c8:	e2433002 	sub	r3, r3, #2
    80cc:	e1520003 	cmp	r2, r3
    80d0:	9a000002 	bls	80e0 <I2CStart+0x6c>
	{
	    returnValue = FALSE;
    80d4:	e3a03000 	mov	r3, #0
    80d8:	e50b3010 	str	r3, [fp, #-16]
	    break;
    80dc:	ea000003 	b	80f0 <I2CStart+0x7c>
	}
	timeout++;
    80e0:	e51b3014 	ldr	r3, [fp, #-20]
    80e4:	e2833001 	add	r3, r3, #1
    80e8:	e50b3014 	str	r3, [fp, #-20]
    }
    80ec:	eaffffec 	b	80a4 <I2CStart+0x30>
    return( returnValue );
    80f0:	e51b3010 	ldr	r3, [fp, #-16]
}
    80f4:	e1a00003 	mov	r0, r3
    80f8:	e24bd00c 	sub	sp, fp, #12
    80fc:	e89d6800 	ldm	sp, {fp, sp, lr}
    8100:	e12fff1e 	bx	lr
    8104:	40001174 	.word	0x40001174

00008108 <I2CStop>:
** parameters:			None
** Returned value:		true or never return
** 
*****************************************************************************/
unsigned int I2CStop( void )
{
    8108:	e1a0c00d 	mov	ip, sp
    810c:	e92dd800 	push	{fp, ip, lr, pc}
    8110:	e24cb004 	sub	fp, ip, #4
    I20CONSET = I2CONSET_STO;      /* Set Stop flag */ 
    8114:	e3a0320e 	mov	r3, #-536870912	; 0xe0000000
    8118:	e2833907 	add	r3, r3, #114688	; 0x1c000
    811c:	e3a02010 	mov	r2, #16
    8120:	e5832000 	str	r2, [r3]
    I20CONCLR = I2CONCLR_SIC;  /* Clear SI flag */ 
    8124:	e3a0320e 	mov	r3, #-536870912	; 0xe0000000
    8128:	e2833907 	add	r3, r3, #114688	; 0x1c000
    812c:	e2833018 	add	r3, r3, #24
    8130:	e3a02008 	mov	r2, #8
    8134:	e5832000 	str	r2, [r3]
            
    /*--- Wait for STOP detected ---*/
    while( I20CONSET & I2CONSET_STO );
    8138:	e3a0320e 	mov	r3, #-536870912	; 0xe0000000
    813c:	e2833907 	add	r3, r3, #114688	; 0x1c000
    8140:	e5933000 	ldr	r3, [r3]
    8144:	e2033010 	and	r3, r3, #16
    8148:	e3530000 	cmp	r3, #0
    814c:	1afffff9 	bne	8138 <I2CStop+0x30>
    return TRUE;
    8150:	e3a03001 	mov	r3, #1
}
    8154:	e1a00003 	mov	r0, r3
    8158:	e24bd00c 	sub	sp, fp, #12
    815c:	e89d6800 	ldm	sp, {fp, sp, lr}
    8160:	e12fff1e 	bx	lr

00008164 <I2CInit>:
** Returned value:		true or false, return false if the I2C
**				interrupt handler was not installed correctly
** 
*****************************************************************************/
void I2CInit( unsigned int I2cMode ) 
{
    8164:	e1a0c00d 	mov	ip, sp
    8168:	e92dd800 	push	{fp, ip, lr, pc}
    816c:	e24cb004 	sub	fp, ip, #4
    8170:	e24dd004 	sub	sp, sp, #4
    8174:	e50b0010 	str	r0, [fp, #-16]
    IODIR0|= 0x0C;	/* set port 0.2 and port 0.3 to output, high */
    8178:	e3a0228e 	mov	r2, #-536870904	; 0xe0000008
    817c:	e282290a 	add	r2, r2, #163840	; 0x28000
    8180:	e3a0328e 	mov	r3, #-536870904	; 0xe0000008
    8184:	e283390a 	add	r3, r3, #163840	; 0x28000
    8188:	e5933000 	ldr	r3, [r3]
    818c:	e383300c 	orr	r3, r3, #12
    8190:	e5823000 	str	r3, [r2]
    IOSET0 = 0x0C;
    8194:	e3a0324e 	mov	r3, #-536870908	; 0xe0000004
    8198:	e283390a 	add	r3, r3, #163840	; 0x28000
    819c:	e3a0200c 	mov	r2, #12
    81a0:	e5832000 	str	r2, [r3]

    /*--- Clear flags ---*/
    I20CONCLR = I2CONCLR_AAC | I2CONCLR_SIC | I2CONCLR_STAC | I2CONCLR_I2ENC;    
    81a4:	e3a0320e 	mov	r3, #-536870912	; 0xe0000000
    81a8:	e2833907 	add	r3, r3, #114688	; 0x1c000
    81ac:	e2833018 	add	r3, r3, #24
    81b0:	e3a0206c 	mov	r2, #108	; 0x6c
    81b4:	e5832000 	str	r2, [r3]

    /*--- Reset registers ---*/
    I20SCLL   = I2SCLL_SCLL;
    81b8:	e3a0320e 	mov	r3, #-536870912	; 0xe0000000
    81bc:	e2833907 	add	r3, r3, #114688	; 0x1c000
    81c0:	e2833014 	add	r3, r3, #20
    81c4:	e3a02080 	mov	r2, #128	; 0x80
    81c8:	e5832000 	str	r2, [r3]
    I20SCLH   = I2SCLH_SCLH;
    81cc:	e3a0320e 	mov	r3, #-536870912	; 0xe0000000
    81d0:	e2833907 	add	r3, r3, #114688	; 0x1c000
    81d4:	e2833010 	add	r3, r3, #16
    81d8:	e3a02080 	mov	r2, #128	; 0x80
    81dc:	e5832000 	str	r2, [r3]
}
    81e0:	e24bd00c 	sub	sp, fp, #12
    81e4:	e89d6800 	ldm	sp, {fp, sp, lr}
    81e8:	e12fff1e 	bx	lr

000081ec <I2CEngine>:
**				start condition can never be generated and
**				timed out. 
** 
*****************************************************************************/
unsigned int I2CEngine( void ) 
{
    81ec:	e1a0c00d 	mov	ip, sp
    81f0:	e92dd800 	push	{fp, ip, lr, pc}
    81f4:	e24cb004 	sub	fp, ip, #4
    81f8:	e24dd004 	sub	sp, sp, #4
    I2CMasterState = I2C_IDLE;
    81fc:	e59f206c 	ldr	r2, [pc, #108]	; 8270 <I2CEngine+0x84>
    8200:	e3a03000 	mov	r3, #0
    8204:	e5823000 	str	r3, [r2]
    RdIndex = 0;
    8208:	e59f2064 	ldr	r2, [pc, #100]	; 8274 <I2CEngine+0x88>
    820c:	e3a03000 	mov	r3, #0
    8210:	e5823000 	str	r3, [r2]
    WrIndex = 0;
    8214:	e59f205c 	ldr	r2, [pc, #92]	; 8278 <I2CEngine+0x8c>
    8218:	e3a03000 	mov	r3, #0
    821c:	e5823000 	str	r3, [r2]
    if ( I2CStart() != TRUE )
    8220:	ebffff93 	bl	8074 <I2CStart>
    8224:	e1a03000 	mov	r3, r0
    8228:	e3530001 	cmp	r3, #1
    822c:	0a000003 	beq	8240 <I2CEngine+0x54>
    {
		I2CStop();
    8230:	ebffffb4 	bl	8108 <I2CStop>
	return ( FALSE );
    8234:	e3a03000 	mov	r3, #0
    8238:	e50b3010 	str	r3, [fp, #-16]
    823c:	ea000006 	b	825c <I2CEngine+0x70>
    }
    while ( 1 )
    {
	if ( I2CMasterState == DATA_NACK )
    8240:	e59f3028 	ldr	r3, [pc, #40]	; 8270 <I2CEngine+0x84>
    8244:	e5933000 	ldr	r3, [r3]
    8248:	e3530005 	cmp	r3, #5
    824c:	1afffffb 	bne	8240 <I2CEngine+0x54>
	{
	    I2CStop();
    8250:	ebffffac 	bl	8108 <I2CStop>
	    break;
	}
    }    
    return ( TRUE );      
    8254:	e3a03001 	mov	r3, #1
    8258:	e50b3010 	str	r3, [fp, #-16]
	if ( I2CMasterState == DATA_NACK )
	{
	    I2CStop();
	    break;
	}
    }    
    825c:	e51b3010 	ldr	r3, [fp, #-16]
    return ( TRUE );      
}
    8260:	e1a00003 	mov	r0, r3
    8264:	e24bd00c 	sub	sp, fp, #12
    8268:	e89d6800 	ldm	sp, {fp, sp, lr}
    826c:	e12fff1e 	bx	lr
    8270:	40001174 	.word	0x40001174
    8274:	40001180 	.word	0x40001180
    8278:	40001184 	.word	0x40001184

0000827c <DefaultVICHandler>:
** Returned value:		None
** 
******************************************************************************/
// mthomas: inserted static to avoid gcc-warning
static void DefaultVICHandler (void) __irq 
{
    827c:	e1a0c00d 	mov	ip, sp
    8280:	e92dd800 	push	{fp, ip, lr, pc}
    8284:	e24cb004 	sub	fp, ip, #4
    /* if the IRQ is not installed into the VIC, and interrupt occurs, the
    default interrupt VIC address will be used. This could happen in a race 
    condition. For debugging, use this endless loop to trace back. */
    /* For more details, see Philips appnote AN10414 */
    VICVectAddr = 0;		/* Acknowledge Interrupt */ 
    8288:	e3a03000 	mov	r3, #0
    828c:	e2433efd 	sub	r3, r3, #4048	; 0xfd0
    8290:	e3a02000 	mov	r2, #0
    8294:	e5832000 	str	r2, [r3]
    while ( 1 );
    8298:	eafffffe 	b	8298 <DefaultVICHandler+0x1c>

0000829c <init_VIC>:
** parameters:			None
** Returned value:		None
** 
******************************************************************************/
void init_VIC(void) 
{
    829c:	e1a0c00d 	mov	ip, sp
    82a0:	e92dd800 	push	{fp, ip, lr, pc}
    82a4:	e24cb004 	sub	fp, ip, #4
    82a8:	e24dd00c 	sub	sp, sp, #12
    unsigned long i = 0;
    82ac:	e3a03000 	mov	r3, #0
    82b0:	e50b3018 	str	r3, [fp, #-24]
    unsigned long *vect_addr, *vect_cntl;
   	
    /* initialize VIC*/
    VICIntEnClr = 0xffffffff;
    82b4:	e3e03efe 	mvn	r3, #4064	; 0xfe0
    82b8:	e243300b 	sub	r3, r3, #11
    82bc:	e3e02000 	mvn	r2, #0
    82c0:	e5832000 	str	r2, [r3]
    VICVectAddr = 0;
    82c4:	e3a03000 	mov	r3, #0
    82c8:	e2433efd 	sub	r3, r3, #4048	; 0xfd0
    82cc:	e3a02000 	mov	r2, #0
    82d0:	e5832000 	str	r2, [r3]
    VICIntSelect = 0;
    82d4:	e3e03eff 	mvn	r3, #4080	; 0xff0
    82d8:	e2433003 	sub	r3, r3, #3
    82dc:	e3a02000 	mov	r2, #0
    82e0:	e5832000 	str	r2, [r3]

    /* set all the vector and vector control register to 0 */
    for ( i = 0; i < VIC_SIZE; i++ )
    82e4:	e3a03000 	mov	r3, #0
    82e8:	e50b3018 	str	r3, [fp, #-24]
    82ec:	ea000010 	b	8334 <init_VIC+0x98>
    {
	vect_addr = (unsigned long *)(VIC_BASE_ADDR + VECT_ADDR_INDEX + i*4);
    82f0:	e51b3018 	ldr	r3, [fp, #-24]
    82f4:	e1a03103 	lsl	r3, r3, #2
    82f8:	e2433c0f 	sub	r3, r3, #3840	; 0xf00
    82fc:	e50b3014 	str	r3, [fp, #-20]
	vect_cntl = (unsigned long *)(VIC_BASE_ADDR + VECT_CNTL_INDEX + i*4);
    8300:	e51b3018 	ldr	r3, [fp, #-24]
    8304:	e1a03103 	lsl	r3, r3, #2
    8308:	e2433c0e 	sub	r3, r3, #3584	; 0xe00
    830c:	e50b3010 	str	r3, [fp, #-16]
	*vect_addr = 0;	
    8310:	e51b2014 	ldr	r2, [fp, #-20]
    8314:	e3a03000 	mov	r3, #0
    8318:	e5823000 	str	r3, [r2]
	*vect_cntl = 0;
    831c:	e51b2010 	ldr	r2, [fp, #-16]
    8320:	e3a03000 	mov	r3, #0
    8324:	e5823000 	str	r3, [r2]
    VICIntEnClr = 0xffffffff;
    VICVectAddr = 0;
    VICIntSelect = 0;

    /* set all the vector and vector control register to 0 */
    for ( i = 0; i < VIC_SIZE; i++ )
    8328:	e51b3018 	ldr	r3, [fp, #-24]
    832c:	e2833001 	add	r3, r3, #1
    8330:	e50b3018 	str	r3, [fp, #-24]
    8334:	e51b3018 	ldr	r3, [fp, #-24]
    8338:	e353000f 	cmp	r3, #15
    833c:	9affffeb 	bls	82f0 <init_VIC+0x54>
	*vect_addr = 0;	
	*vect_cntl = 0;
    }

    /* Install the default VIC handler here */
    VICDefVectAddr = (unsigned long)DefaultVICHandler;   
    8340:	e3e03d3f 	mvn	r3, #4032	; 0xfc0
    8344:	e243300b 	sub	r3, r3, #11
    8348:	e59f200c 	ldr	r2, [pc, #12]	; 835c <init_VIC+0xc0>
    834c:	e5832000 	str	r2, [r3]
    return;
}
    8350:	e24bd00c 	sub	sp, fp, #12
    8354:	e89d6800 	ldm	sp, {fp, sp, lr}
    8358:	e12fff1e 	bx	lr
    835c:	0000827c 	.word	0x0000827c

00008360 <install_irq>:
** parameters:			Interrupt number and interrupt handler address
** Returned value:		true or false, when the table is full, return false
** 
******************************************************************************/
unsigned long install_irq( unsigned long IntNumber, void *HandlerAddr )
{
    8360:	e1a0c00d 	mov	ip, sp
    8364:	e92dd800 	push	{fp, ip, lr, pc}
    8368:	e24cb004 	sub	fp, ip, #4
    836c:	e24dd018 	sub	sp, sp, #24
    8370:	e50b001c 	str	r0, [fp, #-28]
    8374:	e50b1020 	str	r1, [fp, #-32]
    unsigned long i;
    unsigned long *vect_addr;
    unsigned long *vect_cntl;
      
    VICIntEnClr = 1 << IntNumber;	/* Disable Interrupt */
    8378:	e3e02efe 	mvn	r2, #4064	; 0xfe0
    837c:	e242200b 	sub	r2, r2, #11
    8380:	e51b101c 	ldr	r1, [fp, #-28]
    8384:	e3a03001 	mov	r3, #1
    8388:	e1a03113 	lsl	r3, r3, r1
    838c:	e5823000 	str	r3, [r2]
    
    for ( i = 0; i < VIC_SIZE; i++ )
    8390:	e3a03000 	mov	r3, #0
    8394:	e50b3018 	str	r3, [fp, #-24]
    8398:	ea000017 	b	83fc <install_irq+0x9c>
    {
	/* find first un-assigned VIC address for the handler */

	vect_addr = (unsigned long *)(VIC_BASE_ADDR + VECT_ADDR_INDEX + i*4);
    839c:	e51b3018 	ldr	r3, [fp, #-24]
    83a0:	e1a03103 	lsl	r3, r3, #2
    83a4:	e2433c0f 	sub	r3, r3, #3840	; 0xf00
    83a8:	e50b3014 	str	r3, [fp, #-20]
	vect_cntl = (unsigned long *)(VIC_BASE_ADDR + VECT_CNTL_INDEX + i*4);
    83ac:	e51b3018 	ldr	r3, [fp, #-24]
    83b0:	e1a03103 	lsl	r3, r3, #2
    83b4:	e2433c0e 	sub	r3, r3, #3584	; 0xe00
    83b8:	e50b3010 	str	r3, [fp, #-16]
	if ( *vect_addr == (unsigned long)NULL )
    83bc:	e51b3014 	ldr	r3, [fp, #-20]
    83c0:	e5933000 	ldr	r3, [r3]
    83c4:	e3530000 	cmp	r3, #0
    83c8:	1a000008 	bne	83f0 <install_irq+0x90>
	{
	    *vect_addr = (unsigned long)HandlerAddr;	/* set interrupt vector */
    83cc:	e51b3020 	ldr	r3, [fp, #-32]
    83d0:	e1a02003 	mov	r2, r3
    83d4:	e51b3014 	ldr	r3, [fp, #-20]
    83d8:	e5832000 	str	r2, [r3]
	    *vect_cntl = (unsigned long)(IRQ_SLOT_EN | IntNumber);
    83dc:	e51b301c 	ldr	r3, [fp, #-28]
    83e0:	e3832020 	orr	r2, r3, #32
    83e4:	e51b3010 	ldr	r3, [fp, #-16]
    83e8:	e5832000 	str	r2, [r3]
	    break;
    83ec:	ea000005 	b	8408 <install_irq+0xa8>
    unsigned long *vect_addr;
    unsigned long *vect_cntl;
      
    VICIntEnClr = 1 << IntNumber;	/* Disable Interrupt */
    
    for ( i = 0; i < VIC_SIZE; i++ )
    83f0:	e51b3018 	ldr	r3, [fp, #-24]
    83f4:	e2833001 	add	r3, r3, #1
    83f8:	e50b3018 	str	r3, [fp, #-24]
    83fc:	e51b3018 	ldr	r3, [fp, #-24]
    8400:	e353000f 	cmp	r3, #15
    8404:	9affffe4 	bls	839c <install_irq+0x3c>
	    *vect_addr = (unsigned long)HandlerAddr;	/* set interrupt vector */
	    *vect_cntl = (unsigned long)(IRQ_SLOT_EN | IntNumber);
	    break;
	}
    }
    if ( i == VIC_SIZE )
    8408:	e51b3018 	ldr	r3, [fp, #-24]
    840c:	e3530010 	cmp	r3, #16
    8410:	1a000002 	bne	8420 <install_irq+0xc0>
    {
	return( FALSE );		/* fatal error, can't find empty vector slot */
    8414:	e3a03000 	mov	r3, #0
    8418:	e50b3024 	str	r3, [fp, #-36]	; 0x24
    841c:	ea000007 	b	8440 <install_irq+0xe0>
    }
    VICIntEnable = 1 << IntNumber;	/* Enable Interrupt */
    8420:	e3a02000 	mov	r2, #0
    8424:	e2422eff 	sub	r2, r2, #4080	; 0xff0
    8428:	e51b101c 	ldr	r1, [fp, #-28]
    842c:	e3a03001 	mov	r3, #1
    8430:	e1a03113 	lsl	r3, r3, r1
    8434:	e5823000 	str	r3, [r2]
    return( TRUE );
    8438:	e3a03001 	mov	r3, #1
    843c:	e50b3024 	str	r3, [fp, #-36]	; 0x24
    8440:	e51b3024 	ldr	r3, [fp, #-36]	; 0x24
}
    8444:	e1a00003 	mov	r0, r3
    8448:	e24bd00c 	sub	sp, fp, #12
    844c:	e89d6800 	ldm	sp, {fp, sp, lr}
    8450:	e12fff1e 	bx	lr

00008454 <uninstall_irq>:
** Returned value:		true or false, when the interrupt number is not found, 
**				return false
** 
******************************************************************************/
unsigned long uninstall_irq( unsigned long IntNumber )
{
    8454:	e1a0c00d 	mov	ip, sp
    8458:	e92dd800 	push	{fp, ip, lr, pc}
    845c:	e24cb004 	sub	fp, ip, #4
    8460:	e24dd014 	sub	sp, sp, #20
    8464:	e50b001c 	str	r0, [fp, #-28]
    unsigned long i;
    unsigned long *vect_addr;
    unsigned long *vect_cntl;
      
    VICIntEnClr = 1 << IntNumber;	/* Disable Interrupt */
    8468:	e3e02efe 	mvn	r2, #4064	; 0xfe0
    846c:	e242200b 	sub	r2, r2, #11
    8470:	e51b101c 	ldr	r1, [fp, #-28]
    8474:	e3a03001 	mov	r3, #1
    8478:	e1a03113 	lsl	r3, r3, r1
    847c:	e5823000 	str	r3, [r2]
    
    for ( i = 0; i < VIC_SIZE; i++ )
    8480:	e3a03000 	mov	r3, #0
    8484:	e50b3018 	str	r3, [fp, #-24]
    8488:	ea000019 	b	84f4 <uninstall_irq+0xa0>
    {
	/* find first un-assigned VIC address for the handler */
	vect_addr = (unsigned long *)(VIC_BASE_ADDR + VECT_ADDR_INDEX + i*4);
    848c:	e51b3018 	ldr	r3, [fp, #-24]
    8490:	e1a03103 	lsl	r3, r3, #2
    8494:	e2433c0f 	sub	r3, r3, #3840	; 0xf00
    8498:	e50b3014 	str	r3, [fp, #-20]
	vect_cntl = (unsigned long *)(VIC_BASE_ADDR + VECT_CNTL_INDEX + i*4);
    849c:	e51b3018 	ldr	r3, [fp, #-24]
    84a0:	e1a03103 	lsl	r3, r3, #2
    84a4:	e2433c0e 	sub	r3, r3, #3584	; 0xe00
    84a8:	e50b3010 	str	r3, [fp, #-16]
	if ( (*vect_cntl & ~IRQ_SLOT_EN ) == IntNumber )
    84ac:	e51b3010 	ldr	r3, [fp, #-16]
    84b0:	e5933000 	ldr	r3, [r3]
    84b4:	e3c32020 	bic	r2, r3, #32
    84b8:	e51b301c 	ldr	r3, [fp, #-28]
    84bc:	e1520003 	cmp	r2, r3
    84c0:	1a000008 	bne	84e8 <uninstall_irq+0x94>
	{
	    *vect_addr = (unsigned long)NULL;	/* clear the VIC entry in the VIC table */
    84c4:	e51b2014 	ldr	r2, [fp, #-20]
    84c8:	e3a03000 	mov	r3, #0
    84cc:	e5823000 	str	r3, [r2]
	    *vect_cntl &= ~IRQ_SLOT_EN;	/* disable SLOT_EN bit */	
    84d0:	e51b3010 	ldr	r3, [fp, #-16]
    84d4:	e5933000 	ldr	r3, [r3]
    84d8:	e3c32020 	bic	r2, r3, #32
    84dc:	e51b3010 	ldr	r3, [fp, #-16]
    84e0:	e5832000 	str	r2, [r3]
	    break;
    84e4:	ea000005 	b	8500 <uninstall_irq+0xac>
    unsigned long *vect_addr;
    unsigned long *vect_cntl;
      
    VICIntEnClr = 1 << IntNumber;	/* Disable Interrupt */
    
    for ( i = 0; i < VIC_SIZE; i++ )
    84e8:	e51b3018 	ldr	r3, [fp, #-24]
    84ec:	e2833001 	add	r3, r3, #1
    84f0:	e50b3018 	str	r3, [fp, #-24]
    84f4:	e51b3018 	ldr	r3, [fp, #-24]
    84f8:	e353000f 	cmp	r3, #15
    84fc:	9affffe2 	bls	848c <uninstall_irq+0x38>
	    *vect_addr = (unsigned long)NULL;	/* clear the VIC entry in the VIC table */
	    *vect_cntl &= ~IRQ_SLOT_EN;	/* disable SLOT_EN bit */	
	    break;
	}
    }
    if ( i == VIC_SIZE )
    8500:	e51b3018 	ldr	r3, [fp, #-24]
    8504:	e3530010 	cmp	r3, #16
    8508:	1a000002 	bne	8518 <uninstall_irq+0xc4>
    {
	return( FALSE );		/* fatal error, can't find interrupt number 
    850c:	e3a03000 	mov	r3, #0
    8510:	e50b3020 	str	r3, [fp, #-32]
    8514:	ea000007 	b	8538 <uninstall_irq+0xe4>
					in vector slot */
    }
    VICIntEnable = 1 << IntNumber;	/* Enable Interrupt */
    8518:	e3a02000 	mov	r2, #0
    851c:	e2422eff 	sub	r2, r2, #4080	; 0xff0
    8520:	e51b101c 	ldr	r1, [fp, #-28]
    8524:	e3a03001 	mov	r3, #1
    8528:	e1a03113 	lsl	r3, r3, r1
    852c:	e5823000 	str	r3, [r2]
    return( TRUE );
    8530:	e3a03001 	mov	r3, #1
    8534:	e50b3020 	str	r3, [fp, #-32]
    8538:	e51b3020 	ldr	r3, [fp, #-32]
}
    853c:	e1a00003 	mov	r0, r3
    8540:	e24bd00c 	sub	sp, fp, #12
    8544:	e89d6800 	ldm	sp, {fp, sp, lr}
    8548:	e12fff1e 	bx	lr

0000854c <ADCInit>:
** parameters:			ADC clock rate
** Returned value:		true or false
**
*****************************************************************************/
unsigned int ADCInit( unsigned int ADC_Clk )
{
    854c:	e1a0c00d 	mov	ip, sp
    8550:	e92dd810 	push	{r4, fp, ip, lr, pc}
    8554:	e24cb004 	sub	fp, ip, #4
    8558:	e24dd004 	sub	sp, sp, #4
    855c:	e50b0014 	str	r0, [fp, #-20]
	   AD0CR = ( 0x01 ) | 	// SEL=1,select channel 0, 1 to 4 on ADC0
    8560:	e3a0420e 	mov	r4, #-536870912	; 0xe0000000
    8564:	e284490d 	add	r4, r4, #212992	; 0x34000
    8568:	e3a008e5 	mov	r0, #15007744	; 0xe50000
    856c:	e2400d79 	sub	r0, r0, #7744	; 0x1e40
    8570:	e51b1014 	ldr	r1, [fp, #-20]
    8574:	eb0027d7 	bl	124d8 <____udivsi3_from_arm>
    8578:	e1a03000 	mov	r3, r0
    857c:	e2433001 	sub	r3, r3, #1
    8580:	e1a03403 	lsl	r3, r3, #8
    8584:	e3833821 	orr	r3, r3, #2162688	; 0x210000
    8588:	e3833001 	orr	r3, r3, #1
    858c:	e5843000 	str	r3, [r4]
	( 0 << 22 ) |  		// TEST1:0 = 00
	( 0 << 24 ) |  		// START = 0 A/D conversion stops
	( 0 << 27 );		// EDGE = 0 (CAP/MAT singal falling,trigger A/D
				conversion) */

    AD1CR = ( 0x01 << 0 ) | 	// SEL=1,select channel 0, 0 to 7 on ADC1
    8590:	e3a0420e 	mov	r4, #-536870912	; 0xe0000000
    8594:	e2844806 	add	r4, r4, #393216	; 0x60000
    8598:	e3a008e5 	mov	r0, #15007744	; 0xe50000
    859c:	e2400d79 	sub	r0, r0, #7744	; 0x1e40
    85a0:	e51b1014 	ldr	r1, [fp, #-20]
    85a4:	eb0027cb 	bl	124d8 <____udivsi3_from_arm>
    85a8:	e1a03000 	mov	r3, r0
    85ac:	e2433001 	sub	r3, r3, #1
    85b0:	e1a03403 	lsl	r3, r3, #8
    85b4:	e3833602 	orr	r3, r3, #2097152	; 0x200000
    85b8:	e3833001 	orr	r3, r3, #1
    85bc:	e5843000 	str	r3, [r4]
    {
	return (FALSE);
    }
#endif

    return (TRUE);
    85c0:	e3a03001 	mov	r3, #1
}
    85c4:	e1a00003 	mov	r0, r3
    85c8:	e24bd010 	sub	sp, fp, #16
    85cc:	e89d6810 	ldm	sp, {r4, fp, sp, lr}
    85d0:	e12fff1e 	bx	lr

000085d4 <ADC0Read>:
** parameters:			Channel number
** Returned value:		Value read, if interrupt driven, return channel #
**
*****************************************************************************/
unsigned int ADC0Read( unsigned char channelNum )
{
    85d4:	e1a0c00d 	mov	ip, sp
    85d8:	e92dd800 	push	{fp, ip, lr, pc}
    85dc:	e24cb004 	sub	fp, ip, #4
    85e0:	e24dd014 	sub	sp, sp, #20
    85e4:	e1a03000 	mov	r3, r0
    85e8:	e54b301c 	strb	r3, [fp, #-28]
#if !ADC_INTERRUPT_FLAG
    unsigned int regVal, ADC_Data;
    volatile unsigned int timeout=0;
    85ec:	e3a03000 	mov	r3, #0
    85f0:	e50b3018 	str	r3, [fp, #-24]
#endif

    /* channel number is 0 through 7 */
    if ( channelNum >= ADC_NUM )
    85f4:	e55b301c 	ldrb	r3, [fp, #-28]
    85f8:	e3530007 	cmp	r3, #7
    85fc:	9a000001 	bls	8608 <ADC0Read+0x34>
    {
	channelNum = 0;		/* reset channel number to 0 */
    8600:	e3a03000 	mov	r3, #0
    8604:	e54b301c 	strb	r3, [fp, #-28]
    }
    AD0CR &= 0xFFFFFF00;
    8608:	e3a0220e 	mov	r2, #-536870912	; 0xe0000000
    860c:	e282290d 	add	r2, r2, #212992	; 0x34000
    8610:	e3a0320e 	mov	r3, #-536870912	; 0xe0000000
    8614:	e283390d 	add	r3, r3, #212992	; 0x34000
    8618:	e5933000 	ldr	r3, [r3]
    861c:	e3c330ff 	bic	r3, r3, #255	; 0xff
    8620:	e5823000 	str	r3, [r2]
    AD0CR |= (1 << 24) | (1 << channelNum);
    8624:	e3a0120e 	mov	r1, #-536870912	; 0xe0000000
    8628:	e281190d 	add	r1, r1, #212992	; 0x34000
    862c:	e3a0320e 	mov	r3, #-536870912	; 0xe0000000
    8630:	e283390d 	add	r3, r3, #212992	; 0x34000
    8634:	e5930000 	ldr	r0, [r3]
    8638:	e55b201c 	ldrb	r2, [fp, #-28]
    863c:	e3a03001 	mov	r3, #1
    8640:	e1a03213 	lsl	r3, r3, r2
    8644:	e1803003 	orr	r3, r0, r3
    8648:	e3833401 	orr	r3, r3, #16777216	; 0x1000000
    864c:	e5813000 	str	r3, [r1]
				/* switch channel,start A/D convert */
#if !ADC_INTERRUPT_FLAG
    while ( timeout++<5000 )			/* wait until end of A/D convert */
    8650:	ea000009 	b	867c <ADC0Read+0xa8>
    {
	regVal = *(volatile unsigned long *)(AD0_BASE_ADDR
    8654:	e55b301c 	ldrb	r3, [fp, #-28]
    8658:	e1a03103 	lsl	r3, r3, #2
    865c:	e283320e 	add	r3, r3, #-536870912	; 0xe0000000
    8660:	e283390d 	add	r3, r3, #212992	; 0x34000
    8664:	e2833010 	add	r3, r3, #16
    8668:	e5933000 	ldr	r3, [r3]
    866c:	e50b3014 	str	r3, [fp, #-20]
			+ ADC_OFFSET + ADC_INDEX * channelNum);
				/* read result of A/D conversion */
	if ( regVal & ADC_DONE )
    8670:	e51b3014 	ldr	r3, [fp, #-20]
    8674:	e3530000 	cmp	r3, #0
    8678:	ba00000a 	blt	86a8 <ADC0Read+0xd4>
    }
    AD0CR &= 0xFFFFFF00;
    AD0CR |= (1 << 24) | (1 << channelNum);
				/* switch channel,start A/D convert */
#if !ADC_INTERRUPT_FLAG
    while ( timeout++<5000 )			/* wait until end of A/D convert */
    867c:	e51b1018 	ldr	r1, [fp, #-24]
    8680:	e3a03d4e 	mov	r3, #4992	; 0x1380
    8684:	e2833007 	add	r3, r3, #7
    8688:	e1510003 	cmp	r1, r3
    868c:	83a03000 	movhi	r3, #0
    8690:	93a03001 	movls	r3, #1
    8694:	e20320ff 	and	r2, r3, #255	; 0xff
    8698:	e2813001 	add	r3, r1, #1
    869c:	e50b3018 	str	r3, [fp, #-24]
    86a0:	e3520000 	cmp	r2, #0
    86a4:	1affffea 	bne	8654 <ADC0Read+0x80>
	{
	    break;
	}
    }

    AD0CR &= 0xF8FFFFFF;	/* stop ADC now */
    86a8:	e3a0220e 	mov	r2, #-536870912	; 0xe0000000
    86ac:	e282290d 	add	r2, r2, #212992	; 0x34000
    86b0:	e3a0320e 	mov	r3, #-536870912	; 0xe0000000
    86b4:	e283390d 	add	r3, r3, #212992	; 0x34000
    86b8:	e5933000 	ldr	r3, [r3]
    86bc:	e3c33407 	bic	r3, r3, #117440512	; 0x7000000
    86c0:	e5823000 	str	r3, [r2]
    if ( regVal & ADC_OVERRUN )	/* save data when it's not overrun
    86c4:	e51b3014 	ldr	r3, [fp, #-20]
    86c8:	e2033101 	and	r3, r3, #1073741824	; 0x40000000
    86cc:	e3530000 	cmp	r3, #0
    86d0:	0a000002 	beq	86e0 <ADC0Read+0x10c>
				otherwise, return zero */
    {
	return ( 0 );
    86d4:	e3a03000 	mov	r3, #0
    86d8:	e50b3020 	str	r3, [fp, #-32]
    86dc:	ea000006 	b	86fc <ADC0Read+0x128>
    }
    ADC_Data = ( regVal >> 6 ) & 0x3FF;
    86e0:	e51b3014 	ldr	r3, [fp, #-20]
    86e4:	e1a03323 	lsr	r3, r3, #6
    86e8:	e1a03b03 	lsl	r3, r3, #22
    86ec:	e1a03b23 	lsr	r3, r3, #22
    86f0:	e50b3010 	str	r3, [fp, #-16]
    return ( ADC_Data );	/* return A/D conversion value */
    86f4:	e51b3010 	ldr	r3, [fp, #-16]
    86f8:	e50b3020 	str	r3, [fp, #-32]
    86fc:	e51b3020 	ldr	r3, [fp, #-32]
#else
    return ( channelNum );	/* if it's interrupt driven, the
				ADC reading is done inside the handler.
				so, return channel number */
#endif
}
    8700:	e1a00003 	mov	r0, r3
    8704:	e24bd00c 	sub	sp, fp, #12
    8708:	e89d6800 	ldm	sp, {fp, sp, lr}
    870c:	e12fff1e 	bx	lr

00008710 <ADC1Read>:
** parameters:			Channel number
** Returned value:		Value read, if interrupt driven, return channel #
**
*****************************************************************************/
unsigned int ADC1Read( unsigned char channelNum )
{
    8710:	e1a0c00d 	mov	ip, sp
    8714:	e92dd800 	push	{fp, ip, lr, pc}
    8718:	e24cb004 	sub	fp, ip, #4
    871c:	e24dd010 	sub	sp, sp, #16
    8720:	e1a03000 	mov	r3, r0
    8724:	e54b3018 	strb	r3, [fp, #-24]
    unsigned int regVal;
	unsigned int ADC_Data;
#endif

    /* channel number is 0 through 7 */
    if ( channelNum >= ADC_NUM )
    8728:	e55b3018 	ldrb	r3, [fp, #-24]
    872c:	e3530007 	cmp	r3, #7
    8730:	9a000001 	bls	873c <ADC1Read+0x2c>
    {
	channelNum = 0;		/* reset channel number to 0 */
    8734:	e3a03000 	mov	r3, #0
    8738:	e54b3018 	strb	r3, [fp, #-24]
    }
    AD1CR &= 0xFFFFFF00;
    873c:	e3a0220e 	mov	r2, #-536870912	; 0xe0000000
    8740:	e2822806 	add	r2, r2, #393216	; 0x60000
    8744:	e3a0320e 	mov	r3, #-536870912	; 0xe0000000
    8748:	e2833806 	add	r3, r3, #393216	; 0x60000
    874c:	e5933000 	ldr	r3, [r3]
    8750:	e3c330ff 	bic	r3, r3, #255	; 0xff
    8754:	e5823000 	str	r3, [r2]
    AD1CR |= (1 << 24) | (1 << channelNum);
    8758:	e3a0120e 	mov	r1, #-536870912	; 0xe0000000
    875c:	e2811806 	add	r1, r1, #393216	; 0x60000
    8760:	e3a0320e 	mov	r3, #-536870912	; 0xe0000000
    8764:	e2833806 	add	r3, r3, #393216	; 0x60000
    8768:	e5930000 	ldr	r0, [r3]
    876c:	e55b2018 	ldrb	r2, [fp, #-24]
    8770:	e3a03001 	mov	r3, #1
    8774:	e1a03213 	lsl	r3, r3, r2
    8778:	e1803003 	orr	r3, r0, r3
    877c:	e3833401 	orr	r3, r3, #16777216	; 0x1000000
    8780:	e5813000 	str	r3, [r1]
				/* switch channel,start A/D convert */
#if !ADC_INTERRUPT_FLAG
    while ( 1 )			/* wait until end of A/D convert */
    {
	regVal = *(volatile unsigned long *)(AD1_BASE_ADDR
    8784:	e55b3018 	ldrb	r3, [fp, #-24]
    8788:	e1a03103 	lsl	r3, r3, #2
    878c:	e283320e 	add	r3, r3, #-536870912	; 0xe0000000
    8790:	e2833806 	add	r3, r3, #393216	; 0x60000
    8794:	e2833010 	add	r3, r3, #16
    8798:	e5933000 	ldr	r3, [r3]
    879c:	e50b3014 	str	r3, [fp, #-20]
			+ ADC_OFFSET + ADC_INDEX * channelNum);
				/* read result of A/D conversion */
	if ( regVal & ADC_DONE )
    87a0:	e51b3014 	ldr	r3, [fp, #-20]
    87a4:	e3530000 	cmp	r3, #0
    87a8:	ba000000 	blt	87b0 <ADC1Read+0xa0>
	{
	    break;
	}
    }
    87ac:	eafffff4 	b	8784 <ADC1Read+0x74>

    AD1CR &= 0xF8FFFFFF;	/* stop ADC now */
    87b0:	e3a0220e 	mov	r2, #-536870912	; 0xe0000000
    87b4:	e2822806 	add	r2, r2, #393216	; 0x60000
    87b8:	e3a0320e 	mov	r3, #-536870912	; 0xe0000000
    87bc:	e2833806 	add	r3, r3, #393216	; 0x60000
    87c0:	e5933000 	ldr	r3, [r3]
    87c4:	e3c33407 	bic	r3, r3, #117440512	; 0x7000000
    87c8:	e5823000 	str	r3, [r2]
    if ( regVal & ADC_OVERRUN )	/* save data when it's not overrun
    87cc:	e51b3014 	ldr	r3, [fp, #-20]
    87d0:	e2033101 	and	r3, r3, #1073741824	; 0x40000000
    87d4:	e3530000 	cmp	r3, #0
    87d8:	0a000002 	beq	87e8 <ADC1Read+0xd8>
				otherwise, return zero */
    {
	return ( 0 );
    87dc:	e3a03000 	mov	r3, #0
    87e0:	e50b301c 	str	r3, [fp, #-28]
    87e4:	ea000006 	b	8804 <ADC1Read+0xf4>
    }

    ADC_Data = ( regVal >> 6 ) & 0x3FF;
    87e8:	e51b3014 	ldr	r3, [fp, #-20]
    87ec:	e1a03323 	lsr	r3, r3, #6
    87f0:	e1a03b03 	lsl	r3, r3, #22
    87f4:	e1a03b23 	lsr	r3, r3, #22
    87f8:	e50b3010 	str	r3, [fp, #-16]
    return ( ADC_Data );	/* return A/D conversion value */
    87fc:	e51b3010 	ldr	r3, [fp, #-16]
    8800:	e50b301c 	str	r3, [fp, #-28]
    8804:	e51b301c 	ldr	r3, [fp, #-28]
#else
    return ( channelNum );
#endif
}
    8808:	e1a00003 	mov	r0, r3
    880c:	e24bd00c 	sub	sp, fp, #12
    8810:	e89d6800 	ldm	sp, {fp, sp, lr}
    8814:	e12fff1e 	bx	lr

00008818 <ADC0triggerSampling>:

void ADC0triggerSampling(unsigned char selectChannels)
{
    8818:	e1a0c00d 	mov	ip, sp
    881c:	e92dd800 	push	{fp, ip, lr, pc}
    8820:	e24cb004 	sub	fp, ip, #4
    8824:	e24dd004 	sub	sp, sp, #4
    8828:	e1a03000 	mov	r3, r0
    882c:	e54b3010 	strb	r3, [fp, #-16]
	AD0CR |= (selectChannels);
    8830:	e3a0220e 	mov	r2, #-536870912	; 0xe0000000
    8834:	e282290d 	add	r2, r2, #212992	; 0x34000
    8838:	e3a0320e 	mov	r3, #-536870912	; 0xe0000000
    883c:	e283390d 	add	r3, r3, #212992	; 0x34000
    8840:	e5931000 	ldr	r1, [r3]
    8844:	e55b3010 	ldrb	r3, [fp, #-16]
    8848:	e1813003 	orr	r3, r1, r3
    884c:	e5823000 	str	r3, [r2]

}
    8850:	e24bd00c 	sub	sp, fp, #12
    8854:	e89d6800 	ldm	sp, {fp, sp, lr}
    8858:	e12fff1e 	bx	lr

0000885c <ADC0getSamplingResults>:

void ADC0getSamplingResults(unsigned char selectChannels, unsigned int * channelValues)
{
    885c:	e1a0c00d 	mov	ip, sp
    8860:	e92dd800 	push	{fp, ip, lr, pc}
    8864:	e24cb004 	sub	fp, ip, #4
    8868:	e24dd010 	sub	sp, sp, #16
    886c:	e1a03000 	mov	r3, r0
    8870:	e50b101c 	str	r1, [fp, #-28]
    8874:	e54b3018 	strb	r3, [fp, #-24]
	int i;
	//get last result from all selected channels
	for (i=0;i<8;i++)
    8878:	e3a03000 	mov	r3, #0
    887c:	e50b3014 	str	r3, [fp, #-20]
    8880:	ea000026 	b	8920 <ADC0getSamplingResults+0xc4>
		if (selectChannels&(1<<i))
    8884:	e55b2018 	ldrb	r2, [fp, #-24]
    8888:	e51b3014 	ldr	r3, [fp, #-20]
    888c:	e1a03352 	asr	r3, r2, r3
    8890:	e2033001 	and	r3, r3, #1
    8894:	e20330ff 	and	r3, r3, #255	; 0xff
    8898:	e3530000 	cmp	r3, #0
    889c:	0a00001c 	beq	8914 <ADC0getSamplingResults+0xb8>
		{
		    unsigned int regVal;

			regVal=*(volatile unsigned long *)(AD0_BASE_ADDR
    88a0:	e51b3014 	ldr	r3, [fp, #-20]
    88a4:	e1a03103 	lsl	r3, r3, #2
    88a8:	e283320e 	add	r3, r3, #-536870912	; 0xe0000000
    88ac:	e283390d 	add	r3, r3, #212992	; 0x34000
    88b0:	e2833010 	add	r3, r3, #16
    88b4:	e5933000 	ldr	r3, [r3]
    88b8:	e50b3010 	str	r3, [fp, #-16]
					+ ADC_OFFSET + ADC_INDEX * i);

			if ((regVal&(ADC_OVERRUN|ADC_DONE))==0)
    88bc:	e51b3010 	ldr	r3, [fp, #-16]
    88c0:	e2033103 	and	r3, r3, #-1073741824	; 0xc0000000
    88c4:	e3530000 	cmp	r3, #0
    88c8:	1a000007 	bne	88ec <ADC0getSamplingResults+0x90>
					channelValues[i]=0;
    88cc:	e51b3014 	ldr	r3, [fp, #-20]
    88d0:	e1a03103 	lsl	r3, r3, #2
    88d4:	e1a02003 	mov	r2, r3
    88d8:	e51b301c 	ldr	r3, [fp, #-28]
    88dc:	e0822003 	add	r2, r2, r3
    88e0:	e3a03000 	mov	r3, #0
    88e4:	e5823000 	str	r3, [r2]
    88e8:	ea000009 	b	8914 <ADC0getSamplingResults+0xb8>
			else
					channelValues[i]=( regVal >> 6 ) & 0x3FF;
    88ec:	e51b3014 	ldr	r3, [fp, #-20]
    88f0:	e1a03103 	lsl	r3, r3, #2
    88f4:	e1a02003 	mov	r2, r3
    88f8:	e51b301c 	ldr	r3, [fp, #-28]
    88fc:	e0822003 	add	r2, r2, r3
    8900:	e51b3010 	ldr	r3, [fp, #-16]
    8904:	e1a03323 	lsr	r3, r3, #6
    8908:	e1a03b03 	lsl	r3, r3, #22
    890c:	e1a03b23 	lsr	r3, r3, #22
    8910:	e5823000 	str	r3, [r2]

void ADC0getSamplingResults(unsigned char selectChannels, unsigned int * channelValues)
{
	int i;
	//get last result from all selected channels
	for (i=0;i<8;i++)
    8914:	e51b3014 	ldr	r3, [fp, #-20]
    8918:	e2833001 	add	r3, r3, #1
    891c:	e50b3014 	str	r3, [fp, #-20]
    8920:	e51b3014 	ldr	r3, [fp, #-20]
    8924:	e3530007 	cmp	r3, #7
    8928:	daffffd5 	ble	8884 <ADC0getSamplingResults+0x28>
			if ((regVal&(ADC_OVERRUN|ADC_DONE))==0)
					channelValues[i]=0;
			else
					channelValues[i]=( regVal >> 6 ) & 0x3FF;
		}
}
    892c:	e24bd00c 	sub	sp, fp, #12
    8930:	e89d6800 	ldm	sp, {fp, sp, lr}
    8934:	e12fff1e 	bx	lr

00008938 <SSPHandler>:
char data_sent_to_HL=1;

inline void SSPReceive(unsigned char);

void SSPHandler (void) __irq
{
    8938:	e1a0c00d 	mov	ip, sp
    893c:	e92dd800 	push	{fp, ip, lr, pc}
    8940:	e24cb004 	sub	fp, ip, #4
    8944:	e24dd008 	sub	sp, sp, #8
    unsigned short input_data;
//    unsigned char timeout=0;

    IENABLE;				/* handles nested interrupt */

    regValue = SSPMIS;
    8948:	e3a0320e 	mov	r3, #-536870912	; 0xe0000000
    894c:	e283391a 	add	r3, r3, #425984	; 0x68000
    8950:	e283301c 	add	r3, r3, #28
    8954:	e5933000 	ldr	r3, [r3]
    8958:	e50b3014 	str	r3, [fp, #-20]
    if ( regValue & SSPMIS_RORMIS )	/* Receive overrun interrupt */
    895c:	e51b3014 	ldr	r3, [fp, #-20]
    8960:	e2033001 	and	r3, r3, #1
    8964:	e20330ff 	and	r3, r3, #255	; 0xff
    8968:	e3530000 	cmp	r3, #0
    896c:	0a000004 	beq	8984 <SSPHandler+0x4c>
    {
		SSPICR = SSPICR_RORIC;		/* clear interrupt */
    8970:	e3a0320e 	mov	r3, #-536870912	; 0xe0000000
    8974:	e283391a 	add	r3, r3, #425984	; 0x68000
    8978:	e2833020 	add	r3, r3, #32
    897c:	e3a02001 	mov	r2, #1
    8980:	e5832000 	str	r2, [r3]
    }
    if ( regValue & SSPMIS_RTMIS )	/* Receive timeout interrupt */
    8984:	e51b3014 	ldr	r3, [fp, #-20]
    8988:	e2033002 	and	r3, r3, #2
    898c:	e3530000 	cmp	r3, #0
    8990:	0a000004 	beq	89a8 <SSPHandler+0x70>
    {
		SSPICR = SSPICR_RTIC;		/* clear interrupt */
    8994:	e3a0320e 	mov	r3, #-536870912	; 0xe0000000
    8998:	e283391a 	add	r3, r3, #425984	; 0x68000
    899c:	e2833020 	add	r3, r3, #32
    89a0:	e3a02002 	mov	r2, #2
    89a4:	e5832000 	str	r2, [r3]
    }

    if ( regValue & SSPMIS_RXMIS )	/* Rx at least half full */
    89a8:	e51b3014 	ldr	r3, [fp, #-20]
    89ac:	e2033004 	and	r3, r3, #4
    89b0:	e3530000 	cmp	r3, #0
    89b4:	0a000016 	beq	8a14 <SSPHandler+0xdc>
    {
    			/* receive until it's empty */
	while ( SSPSR & SSPSR_RNE )
    89b8:	ea00000f 	b	89fc <SSPHandler+0xc4>
	{
		input_data=SSPDR;
    89bc:	e3a0328e 	mov	r3, #-536870904	; 0xe0000008
    89c0:	e283391a 	add	r3, r3, #425984	; 0x68000
    89c4:	e5933000 	ldr	r3, [r3]
    89c8:	e14b30be 	strh	r3, [fp, #-14]
	    //SSPReceive(input_data&0xFF);
	    //SSPReceive(input_data>>8);

		SSP_rx_handler_HL(input_data&0xFF);
    89cc:	e15b30be 	ldrh	r3, [fp, #-14]
    89d0:	e20330ff 	and	r3, r3, #255	; 0xff
    89d4:	e20330ff 	and	r3, r3, #255	; 0xff
    89d8:	e1a00003 	mov	r0, r3
    89dc:	ebffe294 	bl	1434 <SSP_rx_handler_HL>
		SSP_rx_handler_HL(input_data>>8);
    89e0:	e15b30be 	ldrh	r3, [fp, #-14]
    89e4:	e1a03423 	lsr	r3, r3, #8
    89e8:	e1a03803 	lsl	r3, r3, #16
    89ec:	e1a03823 	lsr	r3, r3, #16
    89f0:	e20330ff 	and	r3, r3, #255	; 0xff
    89f4:	e1a00003 	mov	r0, r3
    89f8:	ebffe28d 	bl	1434 <SSP_rx_handler_HL>
    }

    if ( regValue & SSPMIS_RXMIS )	/* Rx at least half full */
    {
    			/* receive until it's empty */
	while ( SSPSR & SSPSR_RNE )
    89fc:	e3a032ce 	mov	r3, #-536870900	; 0xe000000c
    8a00:	e283391a 	add	r3, r3, #425984	; 0x68000
    8a04:	e5933000 	ldr	r3, [r3]
    8a08:	e2033004 	and	r3, r3, #4
    8a0c:	e3530000 	cmp	r3, #0
    8a10:	1affffe9 	bne	89bc <SSPHandler+0x84>
	//    while ( (!(SSPSR & SSPSR_BSY) )&&(timeout++<50) );
	}				/* interrupt will be cleared when */
					/* data register is read or written */
    }

    if ( regValue & SSPMIS_TXMIS )	/* Tx at least half empty */
    8a14:	e51b3014 	ldr	r3, [fp, #-20]
    8a18:	e2033008 	and	r3, r3, #8
    8a1c:	e3530000 	cmp	r3, #0
    8a20:	0a00002f 	beq	8ae4 <SSPHandler+0x1ac>
    {
	/* transmit until it's full */
	while ( (SSPSR & SSPSR_TNF) )
    8a24:	ea000028 	b	8acc <SSPHandler+0x194>
	{
	    if(CurrentTxIndex<SPIWR_num_bytes)
    8a28:	e59f30d0 	ldr	r3, [pc, #208]	; 8b00 <SSPHandler+0x1c8>
    8a2c:	e5933000 	ldr	r3, [r3]
    8a30:	e1a02003 	mov	r2, r3
    8a34:	e59f30c8 	ldr	r3, [pc, #200]	; 8b04 <SSPHandler+0x1cc>
    8a38:	e5933000 	ldr	r3, [r3]
    8a3c:	e1520003 	cmp	r2, r3
    8a40:	2a000014 	bcs	8a98 <SSPHandler+0x160>
	    {
	    	SSPDR = SPIWRData[CurrentTxIndex]|(SPIWRData[CurrentTxIndex+1]<<8);
    8a44:	e3a0128e 	mov	r1, #-536870904	; 0xe0000008
    8a48:	e281191a 	add	r1, r1, #425984	; 0x68000
    8a4c:	e59f30ac 	ldr	r3, [pc, #172]	; 8b00 <SSPHandler+0x1c8>
    8a50:	e5932000 	ldr	r2, [r3]
    8a54:	e59f30ac 	ldr	r3, [pc, #172]	; 8b08 <SSPHandler+0x1d0>
    8a58:	e7d33002 	ldrb	r3, [r3, r2]
    8a5c:	e1a00003 	mov	r0, r3
    8a60:	e59f3098 	ldr	r3, [pc, #152]	; 8b00 <SSPHandler+0x1c8>
    8a64:	e5933000 	ldr	r3, [r3]
    8a68:	e2832001 	add	r2, r3, #1
    8a6c:	e59f3094 	ldr	r3, [pc, #148]	; 8b08 <SSPHandler+0x1d0>
    8a70:	e7d33002 	ldrb	r3, [r3, r2]
    8a74:	e1a03403 	lsl	r3, r3, #8
    8a78:	e1803003 	orr	r3, r0, r3
    8a7c:	e5813000 	str	r3, [r1]
	    	CurrentTxIndex+=2;
    8a80:	e59f3078 	ldr	r3, [pc, #120]	; 8b00 <SSPHandler+0x1c8>
    8a84:	e5933000 	ldr	r3, [r3]
    8a88:	e2832002 	add	r2, r3, #2
    8a8c:	e59f306c 	ldr	r3, [pc, #108]	; 8b00 <SSPHandler+0x1c8>
    8a90:	e5832000 	str	r2, [r3]
    8a94:	ea00000c 	b	8acc <SSPHandler+0x194>
	    }
	    else
	    {
	    	CurrentTxIndex=0;
    8a98:	e59f2060 	ldr	r2, [pc, #96]	; 8b00 <SSPHandler+0x1c8>
    8a9c:	e3a03000 	mov	r3, #0
    8aa0:	e5823000 	str	r3, [r2]
	    	SPIWR_num_bytes=0;
    8aa4:	e59f2058 	ldr	r2, [pc, #88]	; 8b04 <SSPHandler+0x1cc>
    8aa8:	e3a03000 	mov	r3, #0
    8aac:	e5823000 	str	r3, [r2]
	    	data_sent_to_LL=1;
    8ab0:	e59f2054 	ldr	r2, [pc, #84]	; 8b0c <SSPHandler+0x1d4>
    8ab4:	e3a03001 	mov	r3, #1
    8ab8:	e5c23000 	strb	r3, [r2]
			SSPDR=0;
    8abc:	e3a0328e 	mov	r3, #-536870904	; 0xe0000008
    8ac0:	e283391a 	add	r3, r3, #425984	; 0x68000
    8ac4:	e3a02000 	mov	r2, #0
    8ac8:	e5832000 	str	r2, [r3]
    }

    if ( regValue & SSPMIS_TXMIS )	/* Tx at least half empty */
    {
	/* transmit until it's full */
	while ( (SSPSR & SSPSR_TNF) )
    8acc:	e3a032ce 	mov	r3, #-536870900	; 0xe000000c
    8ad0:	e283391a 	add	r3, r3, #425984	; 0x68000
    8ad4:	e5933000 	ldr	r3, [r3]
    8ad8:	e2033002 	and	r3, r3, #2
    8adc:	e3530000 	cmp	r3, #0
    8ae0:	1affffd0 	bne	8a28 <SSPHandler+0xf0>
	}				/* interrupt will be cleared when */
					/* data register is read or written */
    }

    IDISABLE;
    VICVectAddr = 0;		/* Acknowledge Interrupt */
    8ae4:	e3a03000 	mov	r3, #0
    8ae8:	e2433efd 	sub	r3, r3, #4048	; 0xfd0
    8aec:	e3a02000 	mov	r2, #0
    8af0:	e5832000 	str	r2, [r3]
}
    8af4:	e24bd00c 	sub	sp, fp, #12
    8af8:	e89d6800 	ldm	sp, {fp, sp, lr}
    8afc:	e12fff1e 	bx	lr
    8b00:	4000230c 	.word	0x4000230c
    8b04:	40002308 	.word	0x40002308
    8b08:	40002310 	.word	0x40002310
    8b0c:	40000225 	.word	0x40000225

00008b10 <LL_write_init>:

void LL_write_init(void)
{
    8b10:	e1a0c00d 	mov	ip, sp
    8b14:	e92dd800 	push	{fp, ip, lr, pc}
    8b18:	e24cb004 	sub	fp, ip, #4
		SPIWRData[0]='>';
    8b1c:	e59f2028 	ldr	r2, [pc, #40]	; 8b4c <LL_write_init+0x3c>
    8b20:	e3a0303e 	mov	r3, #62	; 0x3e
    8b24:	e5c23000 	strb	r3, [r2]
		SPIWRData[1]='*';
    8b28:	e59f201c 	ldr	r2, [pc, #28]	; 8b4c <LL_write_init+0x3c>
    8b2c:	e3a0302a 	mov	r3, #42	; 0x2a
    8b30:	e5c23001 	strb	r3, [r2, #1]
		SPIWRData[2]='>';
    8b34:	e59f2010 	ldr	r2, [pc, #16]	; 8b4c <LL_write_init+0x3c>
    8b38:	e3a0303e 	mov	r3, #62	; 0x3e
    8b3c:	e5c23002 	strb	r3, [r2, #2]
}
    8b40:	e24bd00c 	sub	sp, fp, #12
    8b44:	e89d6800 	ldm	sp, {fp, sp, lr}
    8b48:	e12fff1e 	bx	lr
    8b4c:	40002310 	.word	0x40002310

00008b50 <LL_write>:

int LL_write(unsigned char *data, unsigned short cnt, unsigned char PD )	//write data to high-level processor
{
    8b50:	e1a0c00d 	mov	ip, sp
    8b54:	e92dd800 	push	{fp, ip, lr, pc}
    8b58:	e24cb004 	sub	fp, ip, #4
    8b5c:	e24dd014 	sub	sp, sp, #20
    8b60:	e50b0014 	str	r0, [fp, #-20]
    8b64:	e1a03001 	mov	r3, r1
    8b68:	e14b31b8 	strh	r3, [fp, #-24]	; 0xffffffe8
    8b6c:	e1a03002 	mov	r3, r2
    8b70:	e54b301c 	strb	r3, [fp, #-28]
	unsigned int i;

	if(data_sent_to_LL)
    8b74:	e59f31d0 	ldr	r3, [pc, #464]	; 8d4c <LL_write+0x1fc>
    8b78:	e5d33000 	ldrb	r3, [r3]
    8b7c:	e3530000 	cmp	r3, #0
    8b80:	0a00001f 	beq	8c04 <LL_write+0xb4>
	{
		SPIWRData[3]=PD;
    8b84:	e59f31c4 	ldr	r3, [pc, #452]	; 8d50 <LL_write+0x200>
    8b88:	e55b201c 	ldrb	r2, [fp, #-28]
    8b8c:	e5c32003 	strb	r2, [r3, #3]
		for(i=0; i<cnt; i++)
    8b90:	e3a03000 	mov	r3, #0
    8b94:	e50b3010 	str	r3, [fp, #-16]
    8b98:	ea00000a 	b	8bc8 <LL_write+0x78>
		{
			SPIWRData[i+4]=data[i];
    8b9c:	e51b3010 	ldr	r3, [fp, #-16]
    8ba0:	e2831004 	add	r1, r3, #4
    8ba4:	e51b2010 	ldr	r2, [fp, #-16]
    8ba8:	e51b3014 	ldr	r3, [fp, #-20]
    8bac:	e0823003 	add	r3, r2, r3
    8bb0:	e5d33000 	ldrb	r3, [r3]
    8bb4:	e59f2194 	ldr	r2, [pc, #404]	; 8d50 <LL_write+0x200>
    8bb8:	e7c23001 	strb	r3, [r2, r1]
	unsigned int i;

	if(data_sent_to_LL)
	{
		SPIWRData[3]=PD;
		for(i=0; i<cnt; i++)
    8bbc:	e51b3010 	ldr	r3, [fp, #-16]
    8bc0:	e2833001 	add	r3, r3, #1
    8bc4:	e50b3010 	str	r3, [fp, #-16]
    8bc8:	e15b21b8 	ldrh	r2, [fp, #-24]	; 0xffffffe8
    8bcc:	e51b3010 	ldr	r3, [fp, #-16]
    8bd0:	e1520003 	cmp	r2, r3
    8bd4:	8afffff0 	bhi	8b9c <LL_write+0x4c>
		{
			SPIWRData[i+4]=data[i];
		}
		SPIWRData[cnt+4]=0;
    8bd8:	e15b31b8 	ldrh	r3, [fp, #-24]	; 0xffffffe8
    8bdc:	e2831004 	add	r1, r3, #4
    8be0:	e59f2168 	ldr	r2, [pc, #360]	; 8d50 <LL_write+0x200>
    8be4:	e3a03000 	mov	r3, #0
    8be8:	e7c23001 	strb	r3, [r2, r1]
		SPIWR_num_bytes=cnt+5;
    8bec:	e15b31b8 	ldrh	r3, [fp, #-24]	; 0xffffffe8
    8bf0:	e2833005 	add	r3, r3, #5
    8bf4:	e1a02003 	mov	r2, r3
    8bf8:	e59f3154 	ldr	r3, [pc, #340]	; 8d54 <LL_write+0x204>
    8bfc:	e5832000 	str	r2, [r3]
    8c00:	ea000047 	b	8d24 <LL_write+0x1d4>
	}
	else if(SPIWR_num_bytes+cnt<127)
    8c04:	e15b21b8 	ldrh	r2, [fp, #-24]	; 0xffffffe8
    8c08:	e59f3144 	ldr	r3, [pc, #324]	; 8d54 <LL_write+0x204>
    8c0c:	e5933000 	ldr	r3, [r3]
    8c10:	e0823003 	add	r3, r2, r3
    8c14:	e353007e 	cmp	r3, #126	; 0x7e
    8c18:	8a00003e 	bhi	8d18 <LL_write+0x1c8>
	{
		SPIWRData[SPIWR_num_bytes-1]='>';
    8c1c:	e59f3130 	ldr	r3, [pc, #304]	; 8d54 <LL_write+0x204>
    8c20:	e5933000 	ldr	r3, [r3]
    8c24:	e2431001 	sub	r1, r3, #1
    8c28:	e59f2120 	ldr	r2, [pc, #288]	; 8d50 <LL_write+0x200>
    8c2c:	e3a0303e 	mov	r3, #62	; 0x3e
    8c30:	e7c23001 	strb	r3, [r2, r1]
		SPIWRData[0+SPIWR_num_bytes]='*';
    8c34:	e59f3118 	ldr	r3, [pc, #280]	; 8d54 <LL_write+0x204>
    8c38:	e5931000 	ldr	r1, [r3]
    8c3c:	e59f210c 	ldr	r2, [pc, #268]	; 8d50 <LL_write+0x200>
    8c40:	e3a0302a 	mov	r3, #42	; 0x2a
    8c44:	e7c23001 	strb	r3, [r2, r1]
		SPIWRData[1+SPIWR_num_bytes]='>';
    8c48:	e59f3104 	ldr	r3, [pc, #260]	; 8d54 <LL_write+0x204>
    8c4c:	e5933000 	ldr	r3, [r3]
    8c50:	e2831001 	add	r1, r3, #1
    8c54:	e59f20f4 	ldr	r2, [pc, #244]	; 8d50 <LL_write+0x200>
    8c58:	e3a0303e 	mov	r3, #62	; 0x3e
    8c5c:	e7c23001 	strb	r3, [r2, r1]
		SPIWRData[2+SPIWR_num_bytes]=PD;
    8c60:	e59f30ec 	ldr	r3, [pc, #236]	; 8d54 <LL_write+0x204>
    8c64:	e5933000 	ldr	r3, [r3]
    8c68:	e2831002 	add	r1, r3, #2
    8c6c:	e59f20dc 	ldr	r2, [pc, #220]	; 8d50 <LL_write+0x200>
    8c70:	e55b301c 	ldrb	r3, [fp, #-28]
    8c74:	e7c23001 	strb	r3, [r2, r1]
		for(i=SPIWR_num_bytes; i<cnt+SPIWR_num_bytes; i++)
    8c78:	e59f30d4 	ldr	r3, [pc, #212]	; 8d54 <LL_write+0x204>
    8c7c:	e5933000 	ldr	r3, [r3]
    8c80:	e50b3010 	str	r3, [fp, #-16]
    8c84:	ea00000e 	b	8cc4 <LL_write+0x174>
		{
			SPIWRData[i+3]=data[i-SPIWR_num_bytes];
    8c88:	e51b3010 	ldr	r3, [fp, #-16]
    8c8c:	e2831003 	add	r1, r3, #3
    8c90:	e59f30bc 	ldr	r3, [pc, #188]	; 8d54 <LL_write+0x204>
    8c94:	e5932000 	ldr	r2, [r3]
    8c98:	e51b3010 	ldr	r3, [fp, #-16]
    8c9c:	e0623003 	rsb	r3, r2, r3
    8ca0:	e1a02003 	mov	r2, r3
    8ca4:	e51b3014 	ldr	r3, [fp, #-20]
    8ca8:	e0823003 	add	r3, r2, r3
    8cac:	e5d33000 	ldrb	r3, [r3]
    8cb0:	e59f2098 	ldr	r2, [pc, #152]	; 8d50 <LL_write+0x200>
    8cb4:	e7c23001 	strb	r3, [r2, r1]
	{
		SPIWRData[SPIWR_num_bytes-1]='>';
		SPIWRData[0+SPIWR_num_bytes]='*';
		SPIWRData[1+SPIWR_num_bytes]='>';
		SPIWRData[2+SPIWR_num_bytes]=PD;
		for(i=SPIWR_num_bytes; i<cnt+SPIWR_num_bytes; i++)
    8cb8:	e51b3010 	ldr	r3, [fp, #-16]
    8cbc:	e2833001 	add	r3, r3, #1
    8cc0:	e50b3010 	str	r3, [fp, #-16]
    8cc4:	e15b21b8 	ldrh	r2, [fp, #-24]	; 0xffffffe8
    8cc8:	e59f3084 	ldr	r3, [pc, #132]	; 8d54 <LL_write+0x204>
    8ccc:	e5933000 	ldr	r3, [r3]
    8cd0:	e0822003 	add	r2, r2, r3
    8cd4:	e51b3010 	ldr	r3, [fp, #-16]
    8cd8:	e1520003 	cmp	r2, r3
    8cdc:	8affffe9 	bhi	8c88 <LL_write+0x138>
		{
			SPIWRData[i+3]=data[i-SPIWR_num_bytes];
		}
		SPIWR_num_bytes+=cnt+5;
    8ce0:	e15b21b8 	ldrh	r2, [fp, #-24]	; 0xffffffe8
    8ce4:	e59f3068 	ldr	r3, [pc, #104]	; 8d54 <LL_write+0x204>
    8ce8:	e5933000 	ldr	r3, [r3]
    8cec:	e0823003 	add	r3, r2, r3
    8cf0:	e2832005 	add	r2, r3, #5
    8cf4:	e59f3058 	ldr	r3, [pc, #88]	; 8d54 <LL_write+0x204>
    8cf8:	e5832000 	str	r2, [r3]
		SPIWRData[SPIWR_num_bytes-1]=0;
    8cfc:	e59f3050 	ldr	r3, [pc, #80]	; 8d54 <LL_write+0x204>
    8d00:	e5933000 	ldr	r3, [r3]
    8d04:	e2431001 	sub	r1, r3, #1
    8d08:	e59f2040 	ldr	r2, [pc, #64]	; 8d50 <LL_write+0x200>
    8d0c:	e3a03000 	mov	r3, #0
    8d10:	e7c23001 	strb	r3, [r2, r1]
    8d14:	ea000002 	b	8d24 <LL_write+0x1d4>
	}
	else return(0);
    8d18:	e3a03000 	mov	r3, #0
    8d1c:	e50b3020 	str	r3, [fp, #-32]
    8d20:	ea000004 	b	8d38 <LL_write+0x1e8>
	data_sent_to_LL=0;
    8d24:	e59f3020 	ldr	r3, [pc, #32]	; 8d4c <LL_write+0x1fc>
    8d28:	e3a02000 	mov	r2, #0
    8d2c:	e5c32000 	strb	r2, [r3]

	return(1);
    8d30:	e3a03001 	mov	r3, #1
    8d34:	e50b3020 	str	r3, [fp, #-32]
    8d38:	e51b3020 	ldr	r3, [fp, #-32]
}
    8d3c:	e1a00003 	mov	r0, r3
    8d40:	e24bd00c 	sub	sp, fp, #12
    8d44:	e89d6800 	ldm	sp, {fp, sp, lr}
    8d48:	e12fff1e 	bx	lr
    8d4c:	40000225 	.word	0x40000225
    8d50:	40002310 	.word	0x40002310
    8d54:	40002308 	.word	0x40002308

00008d58 <PTU_init>:

struct CAMERA_PTU CAMERA_ptu;
struct CAMERA_COMMANDS CAMERA_Commands;

void PTU_init(void)
{
    8d58:	e1a0c00d 	mov	ip, sp
    8d5c:	e92dd800 	push	{fp, ip, lr, pc}
    8d60:	e24cb004 	sub	fp, ip, #4
#ifdef HUMMINGBIRD_ROLL_SERVO
#ifndef HUMMINGBIRD_ROLL_SERVO_ON_SSEL0
	PINSEL0&=~0x01;
	PINSEL0|=0x02;
#else
	PINSEL0|=0x8000;
    8d64:	e3a0220e 	mov	r2, #-536870912	; 0xe0000000
    8d68:	e282290b 	add	r2, r2, #180224	; 0x2c000
    8d6c:	e3a0320e 	mov	r3, #-536870912	; 0xe0000000
    8d70:	e283390b 	add	r3, r3, #180224	; 0x2c000
    8d74:	e5933000 	ldr	r3, [r3]
    8d78:	e3833902 	orr	r3, r3, #32768	; 0x8000
    8d7c:	e5823000 	str	r3, [r2]
	PINSEL0&=~0x4000;
    8d80:	e3a0220e 	mov	r2, #-536870912	; 0xe0000000
    8d84:	e282290b 	add	r2, r2, #180224	; 0x2c000
    8d88:	e3a0320e 	mov	r3, #-536870912	; 0xe0000000
    8d8c:	e283390b 	add	r3, r3, #180224	; 0x2c000
    8d90:	e5933000 	ldr	r3, [r3]
    8d94:	e3c33901 	bic	r3, r3, #16384	; 0x4000
    8d98:	e5823000 	str	r3, [r2]
#endif
#endif

#ifdef PELICAN_PTU

    CAMERA_ptu.servo_pitch_offset=61500;
    8d9c:	e59f207c 	ldr	r2, [pc, #124]	; 8e20 <PTU_init+0xc8>
    8da0:	e3a03a0f 	mov	r3, #61440	; 0xf000
    8da4:	e283303c 	add	r3, r3, #60	; 0x3c
    8da8:	e5823004 	str	r3, [r2, #4]
	CAMERA_ptu.servo_pitch_scale=54853;
    8dac:	e59f206c 	ldr	r2, [pc, #108]	; 8e20 <PTU_init+0xc8>
    8db0:	e3a03cd6 	mov	r3, #54784	; 0xd600
    8db4:	e2833045 	add	r3, r3, #69	; 0x45
    8db8:	e582300c 	str	r3, [r2, #12]
	CAMERA_ptu.servo_pitch_min=46000;
    8dbc:	e59f205c 	ldr	r2, [pc, #92]	; 8e20 <PTU_init+0xc8>
    8dc0:	e3a03cb3 	mov	r3, #45824	; 0xb300
    8dc4:	e28330b0 	add	r3, r3, #176	; 0xb0
    8dc8:	e5823010 	str	r3, [r2, #16]
	CAMERA_ptu.servo_pitch_max=128000;
    8dcc:	e59f204c 	ldr	r2, [pc, #76]	; 8e20 <PTU_init+0xc8>
    8dd0:	e3a03b7d 	mov	r3, #128000	; 0x1f400
    8dd4:	e5823014 	str	r3, [r2, #20]

	CAMERA_ptu.servo_roll_offset=82000;
    8dd8:	e59f2040 	ldr	r2, [pc, #64]	; 8e20 <PTU_init+0xc8>
    8ddc:	e3a03905 	mov	r3, #81920	; 0x14000
    8de0:	e2833050 	add	r3, r3, #80	; 0x50
    8de4:	e5823000 	str	r3, [r2]
	CAMERA_ptu.servo_roll_scale=220000;
    8de8:	e59f2030 	ldr	r2, [pc, #48]	; 8e20 <PTU_init+0xc8>
    8dec:	e3a03bd6 	mov	r3, #219136	; 0x35800
    8df0:	e2833e36 	add	r3, r3, #864	; 0x360
    8df4:	e5823008 	str	r3, [r2, #8]
	CAMERA_ptu.servo_roll_min=46000;
    8df8:	e59f2020 	ldr	r2, [pc, #32]	; 8e20 <PTU_init+0xc8>
    8dfc:	e3a03cb3 	mov	r3, #45824	; 0xb300
    8e00:	e28330b0 	add	r3, r3, #176	; 0xb0
    8e04:	e5823018 	str	r3, [r2, #24]
	CAMERA_ptu.servo_roll_max=128000;
    8e08:	e59f2010 	ldr	r2, [pc, #16]	; 8e20 <PTU_init+0xc8>
    8e0c:	e3a03b7d 	mov	r3, #128000	; 0x1f400
    8e10:	e582301c 	str	r3, [r2, #28]

#endif
}
    8e14:	e24bd00c 	sub	sp, fp, #12
    8e18:	e89d6800 	ldm	sp, {fp, sp, lr}
    8e1c:	e12fff1e 	bx	lr
    8e20:	4000241c 	.word	0x4000241c

00008e24 <PTU_update>:


void PTU_update(void)
{
    8e24:	e1a0c00d 	mov	ip, sp
    8e28:	e92dd800 	push	{fp, ip, lr, pc}
    8e2c:	e24cb004 	sub	fp, ip, #4
    8e30:	e24dd008 	sub	sp, sp, #8
	static int ptu_cnt=0;
	if(++ptu_cnt>9)	//generate 100Hz
    8e34:	e59f31cc 	ldr	r3, [pc, #460]	; 9008 <PTU_update+0x1e4>
    8e38:	e5933000 	ldr	r3, [r3]
    8e3c:	e2832001 	add	r2, r3, #1
    8e40:	e59f31c0 	ldr	r3, [pc, #448]	; 9008 <PTU_update+0x1e4>
    8e44:	e5832000 	str	r2, [r3]
    8e48:	e59f31b8 	ldr	r3, [pc, #440]	; 9008 <PTU_update+0x1e4>
    8e4c:	e5933000 	ldr	r3, [r3]
    8e50:	e3530009 	cmp	r3, #9
    8e54:	da000068 	ble	8ffc <PTU_update+0x1d8>
	{
		ptu_cnt=0;
    8e58:	e59f21a8 	ldr	r2, [pc, #424]	; 9008 <PTU_update+0x1e4>
    8e5c:	e3a03000 	mov	r3, #0
    8e60:	e5823000 	str	r3, [r2]
#ifdef CAMMOUNT_XCONFIG	//rotate pitch/roll tiltcompensation for 45
#ifndef CAM_FACING_FRONT_RIGHT
    angle_pitch=IMU_CalcData.angle_nick*707/1000+IMU_CalcData.angle_roll*707/1000;
    angle_roll=IMU_CalcData.angle_roll*707/1000-IMU_CalcData.angle_nick*707/1000;
#else
    angle_roll=IMU_CalcData.angle_nick*707/1000+IMU_CalcData.angle_roll*707/1000;
    8e64:	e59f31a0 	ldr	r3, [pc, #416]	; 900c <PTU_update+0x1e8>
    8e68:	e5931000 	ldr	r1, [r3]
    8e6c:	e1a03001 	mov	r3, r1
    8e70:	e1a03103 	lsl	r3, r3, #2
    8e74:	e0833001 	add	r3, r3, r1
    8e78:	e1a02103 	lsl	r2, r3, #2
    8e7c:	e0833002 	add	r3, r3, r2
    8e80:	e1a03103 	lsl	r3, r3, #2
    8e84:	e0833001 	add	r3, r3, r1
    8e88:	e1a02183 	lsl	r2, r3, #3
    8e8c:	e0631002 	rsb	r1, r3, r2
    8e90:	e59f3178 	ldr	r3, [pc, #376]	; 9010 <PTU_update+0x1ec>
    8e94:	e0c32391 	smull	r2, r3, r1, r3
    8e98:	e1a02343 	asr	r2, r3, #6
    8e9c:	e1a03fc1 	asr	r3, r1, #31
    8ea0:	e0630002 	rsb	r0, r3, r2
    8ea4:	e59f3160 	ldr	r3, [pc, #352]	; 900c <PTU_update+0x1e8>
    8ea8:	e5931004 	ldr	r1, [r3, #4]
    8eac:	e1a03001 	mov	r3, r1
    8eb0:	e1a03103 	lsl	r3, r3, #2
    8eb4:	e0833001 	add	r3, r3, r1
    8eb8:	e1a02103 	lsl	r2, r3, #2
    8ebc:	e0833002 	add	r3, r3, r2
    8ec0:	e1a03103 	lsl	r3, r3, #2
    8ec4:	e0833001 	add	r3, r3, r1
    8ec8:	e1a02183 	lsl	r2, r3, #3
    8ecc:	e0631002 	rsb	r1, r3, r2
    8ed0:	e59f3138 	ldr	r3, [pc, #312]	; 9010 <PTU_update+0x1ec>
    8ed4:	e0c32391 	smull	r2, r3, r1, r3
    8ed8:	e1a02343 	asr	r2, r3, #6
    8edc:	e1a03fc1 	asr	r3, r1, #31
    8ee0:	e0633002 	rsb	r3, r3, r2
    8ee4:	e0803003 	add	r3, r0, r3
    8ee8:	e50b3010 	str	r3, [fp, #-16]
    angle_pitch=-IMU_CalcData.angle_roll*707/1000+IMU_CalcData.angle_nick*707/1000;
    8eec:	e59f3118 	ldr	r3, [pc, #280]	; 900c <PTU_update+0x1e8>
    8ef0:	e5932004 	ldr	r2, [r3, #4]
    8ef4:	e1a03002 	mov	r3, r2
    8ef8:	e1a03b03 	lsl	r3, r3, #22
    8efc:	e0623003 	rsb	r3, r2, r3
    8f00:	e1a03103 	lsl	r3, r3, #2
    8f04:	e0833002 	add	r3, r3, r2
    8f08:	e1a03103 	lsl	r3, r3, #2
    8f0c:	e0833002 	add	r3, r3, r2
    8f10:	e1a03203 	lsl	r3, r3, #4
    8f14:	e0623003 	rsb	r3, r2, r3
    8f18:	e1a03103 	lsl	r3, r3, #2
    8f1c:	e0831002 	add	r1, r3, r2
    8f20:	e59f30e8 	ldr	r3, [pc, #232]	; 9010 <PTU_update+0x1ec>
    8f24:	e0c32391 	smull	r2, r3, r1, r3
    8f28:	e1a02343 	asr	r2, r3, #6
    8f2c:	e1a03fc1 	asr	r3, r1, #31
    8f30:	e0630002 	rsb	r0, r3, r2
    8f34:	e59f30d0 	ldr	r3, [pc, #208]	; 900c <PTU_update+0x1e8>
    8f38:	e5931000 	ldr	r1, [r3]
    8f3c:	e1a03001 	mov	r3, r1
    8f40:	e1a03103 	lsl	r3, r3, #2
    8f44:	e0833001 	add	r3, r3, r1
    8f48:	e1a02103 	lsl	r2, r3, #2
    8f4c:	e0833002 	add	r3, r3, r2
    8f50:	e1a03103 	lsl	r3, r3, #2
    8f54:	e0833001 	add	r3, r3, r1
    8f58:	e1a02183 	lsl	r2, r3, #3
    8f5c:	e0631002 	rsb	r1, r3, r2
    8f60:	e59f30a8 	ldr	r3, [pc, #168]	; 9010 <PTU_update+0x1ec>
    8f64:	e0c32391 	smull	r2, r3, r1, r3
    8f68:	e1a02343 	asr	r2, r3, #6
    8f6c:	e1a03fc1 	asr	r3, r1, #31
    8f70:	e0633002 	rsb	r3, r3, r2
    8f74:	e0803003 	add	r3, r0, r3
    8f78:	e50b3014 	str	r3, [fp, #-20]
		if(LL_1khz_attitude_data.RC_data[4]>192) cam_angle_pitch+=200;
		else if(LL_1khz_attitude_data.RC_data[4]<64) cam_angle_pitch-=200;
		if(cam_angle_pitch>55000) cam_angle_pitch=55000;
		if(cam_angle_pitch<-55000) cam_angle_pitch=-55000;
#else
		cam_angle_pitch=CAMERA_Commands.desired_angle_pitch;
    8f7c:	e59f3090 	ldr	r3, [pc, #144]	; 9014 <PTU_update+0x1f0>
    8f80:	e5932004 	ldr	r2, [r3, #4]
    8f84:	e59f308c 	ldr	r3, [pc, #140]	; 9018 <PTU_update+0x1f4>
    8f88:	e5832000 	str	r2, [r3]
		if(cam_angle_pitch<-90000) cam_angle_pitch=-90000;
		else if(cam_angle_pitch>0) cam_angle_pitch=0;
#endif
#endif

		if(CAMERA_Commands.status&0x02)	//no tilt compensation
    8f8c:	e59f3080 	ldr	r3, [pc, #128]	; 9014 <PTU_update+0x1f0>
    8f90:	e1d330b0 	ldrh	r3, [r3]
    8f94:	e2033002 	and	r3, r3, #2
    8f98:	e3530000 	cmp	r3, #0
    8f9c:	0a000009 	beq	8fc8 <PTU_update+0x1a4>
		{
			SERVO_pitch_move((CAMERA_OFFSET_HUMMINGBIRD_PITCH+cam_angle_pitch)*HUMMINGBIRD_SERVO_DIRECTION_PITCH);
    8fa0:	e59f3070 	ldr	r3, [pc, #112]	; 9018 <PTU_update+0x1f4>
    8fa4:	e5933000 	ldr	r3, [r3]
    8fa8:	e1a00003 	mov	r0, r3
    8fac:	eb00001a 	bl	901c <SERVO_pitch_move>
			SERVO_roll_move((CAMERA_OFFSET_HUMMINGBIRD_ROLL+CAMERA_Commands.desired_angle_roll)*HUMMINGBIRD_SERVO_DIRECTION_ROLL);
    8fb0:	e59f305c 	ldr	r3, [pc, #92]	; 9014 <PTU_update+0x1f0>
    8fb4:	e5933008 	ldr	r3, [r3, #8]
    8fb8:	e2633000 	rsb	r3, r3, #0
    8fbc:	e1a00003 	mov	r0, r3
    8fc0:	eb00004f 	bl	9104 <SERVO_roll_move>
    8fc4:	ea00000c 	b	8ffc <PTU_update+0x1d8>
		}
		else
		{
			SERVO_pitch_move((CAMERA_OFFSET_HUMMINGBIRD_PITCH+cam_angle_pitch+angle_pitch)*HUMMINGBIRD_SERVO_DIRECTION_PITCH);
    8fc8:	e59f3048 	ldr	r3, [pc, #72]	; 9018 <PTU_update+0x1f4>
    8fcc:	e5932000 	ldr	r2, [r3]
    8fd0:	e51b3014 	ldr	r3, [fp, #-20]
    8fd4:	e0823003 	add	r3, r2, r3
    8fd8:	e1a00003 	mov	r0, r3
    8fdc:	eb00000e 	bl	901c <SERVO_pitch_move>
			SERVO_roll_move((CAMERA_OFFSET_HUMMINGBIRD_ROLL+CAMERA_Commands.desired_angle_roll+angle_roll)*HUMMINGBIRD_SERVO_DIRECTION_ROLL);
    8fe0:	e59f302c 	ldr	r3, [pc, #44]	; 9014 <PTU_update+0x1f0>
    8fe4:	e5932008 	ldr	r2, [r3, #8]
    8fe8:	e51b3010 	ldr	r3, [fp, #-16]
    8fec:	e0823003 	add	r3, r2, r3
    8ff0:	e2633000 	rsb	r3, r3, #0
    8ff4:	e1a00003 	mov	r0, r3
    8ff8:	eb000041 	bl	9104 <SERVO_roll_move>
		}
#endif
	}
}
    8ffc:	e24bd00c 	sub	sp, fp, #12
    9000:	e89d6800 	ldm	sp, {fp, sp, lr}
    9004:	e12fff1e 	bx	lr
    9008:	40001198 	.word	0x40001198
    900c:	4000205c 	.word	0x4000205c
    9010:	10624dd3 	.word	0x10624dd3
    9014:	40002410 	.word	0x40002410
    9018:	40001194 	.word	0x40001194

0000901c <SERVO_pitch_move>:


void SERVO_pitch_move (int angle)
{
    901c:	e1a0c00d 	mov	ip, sp
    9020:	e92dd800 	push	{fp, ip, lr, pc}
    9024:	e24cb004 	sub	fp, ip, #4
    9028:	e24dd008 	sub	sp, sp, #8
    902c:	e50b0014 	str	r0, [fp, #-20]
    unsigned int value;
    value=CAMERA_ptu.servo_pitch_offset+(angle/10)*CAMERA_ptu.servo_pitch_scale/9000;	//9000
    9030:	e59f30c0 	ldr	r3, [pc, #192]	; 90f8 <SERVO_pitch_move+0xdc>
    9034:	e5930004 	ldr	r0, [r3, #4]
    9038:	e51b1014 	ldr	r1, [fp, #-20]
    903c:	e59f30b8 	ldr	r3, [pc, #184]	; 90fc <SERVO_pitch_move+0xe0>
    9040:	e0c32391 	smull	r2, r3, r1, r3
    9044:	e1a02143 	asr	r2, r3, #2
    9048:	e1a03fc1 	asr	r3, r1, #31
    904c:	e0632002 	rsb	r2, r3, r2
    9050:	e59f30a0 	ldr	r3, [pc, #160]	; 90f8 <SERVO_pitch_move+0xdc>
    9054:	e593300c 	ldr	r3, [r3, #12]
    9058:	e0010293 	mul	r1, r3, r2
    905c:	e59f309c 	ldr	r3, [pc, #156]	; 9100 <SERVO_pitch_move+0xe4>
    9060:	e0c32391 	smull	r2, r3, r1, r3
    9064:	e1a02643 	asr	r2, r3, #12
    9068:	e1a03fc1 	asr	r3, r1, #31
    906c:	e0633002 	rsb	r3, r3, r2
    9070:	e0803003 	add	r3, r0, r3
    9074:	e50b3010 	str	r3, [fp, #-16]

    if(value>CAMERA_ptu.servo_pitch_max) value=CAMERA_ptu.servo_pitch_max;
    9078:	e59f3078 	ldr	r3, [pc, #120]	; 90f8 <SERVO_pitch_move+0xdc>
    907c:	e5933014 	ldr	r3, [r3, #20]
    9080:	e1a02003 	mov	r2, r3
    9084:	e51b3010 	ldr	r3, [fp, #-16]
    9088:	e1520003 	cmp	r2, r3
    908c:	2a000003 	bcs	90a0 <SERVO_pitch_move+0x84>
    9090:	e59f3060 	ldr	r3, [pc, #96]	; 90f8 <SERVO_pitch_move+0xdc>
    9094:	e5933014 	ldr	r3, [r3, #20]
    9098:	e50b3010 	str	r3, [fp, #-16]
    909c:	ea000008 	b	90c4 <SERVO_pitch_move+0xa8>
    else if(value<CAMERA_ptu.servo_pitch_min) value=CAMERA_ptu.servo_pitch_min;
    90a0:	e59f3050 	ldr	r3, [pc, #80]	; 90f8 <SERVO_pitch_move+0xdc>
    90a4:	e5933010 	ldr	r3, [r3, #16]
    90a8:	e1a02003 	mov	r2, r3
    90ac:	e51b3010 	ldr	r3, [fp, #-16]
    90b0:	e1520003 	cmp	r2, r3
    90b4:	9a000002 	bls	90c4 <SERVO_pitch_move+0xa8>
    90b8:	e59f3038 	ldr	r3, [pc, #56]	; 90f8 <SERVO_pitch_move+0xdc>
    90bc:	e5933010 	ldr	r3, [r3, #16]
    90c0:	e50b3010 	str	r3, [fp, #-16]

    PWMMR5 = value;
    90c4:	e3a0320e 	mov	r3, #-536870912	; 0xe0000000
    90c8:	e2833905 	add	r3, r3, #81920	; 0x14000
    90cc:	e2833044 	add	r3, r3, #68	; 0x44
    90d0:	e51b2010 	ldr	r2, [fp, #-16]
    90d4:	e5832000 	str	r2, [r3]
    PWMLER = LER5_EN|LER1_EN|LER2_EN;
    90d8:	e3a0320e 	mov	r3, #-536870912	; 0xe0000000
    90dc:	e2833905 	add	r3, r3, #81920	; 0x14000
    90e0:	e2833050 	add	r3, r3, #80	; 0x50
    90e4:	e3a02026 	mov	r2, #38	; 0x26
    90e8:	e5832000 	str	r2, [r3]
}
    90ec:	e24bd00c 	sub	sp, fp, #12
    90f0:	e89d6800 	ldm	sp, {fp, sp, lr}
    90f4:	e12fff1e 	bx	lr
    90f8:	4000241c 	.word	0x4000241c
    90fc:	66666667 	.word	0x66666667
    9100:	7482296b 	.word	0x7482296b

00009104 <SERVO_roll_move>:

void SERVO_roll_move (int angle)
{
    9104:	e1a0c00d 	mov	ip, sp
    9108:	e92dd800 	push	{fp, ip, lr, pc}
    910c:	e24cb004 	sub	fp, ip, #4
    9110:	e24dd008 	sub	sp, sp, #8
    9114:	e50b0014 	str	r0, [fp, #-20]
    int value;
    value=CAMERA_ptu.servo_roll_offset+(angle/10)*CAMERA_ptu.servo_roll_scale/9000;	//9000
    9118:	e59f30b8 	ldr	r3, [pc, #184]	; 91d8 <SERVO_roll_move+0xd4>
    911c:	e5930000 	ldr	r0, [r3]
    9120:	e51b1014 	ldr	r1, [fp, #-20]
    9124:	e59f30b0 	ldr	r3, [pc, #176]	; 91dc <SERVO_roll_move+0xd8>
    9128:	e0c32391 	smull	r2, r3, r1, r3
    912c:	e1a02143 	asr	r2, r3, #2
    9130:	e1a03fc1 	asr	r3, r1, #31
    9134:	e0632002 	rsb	r2, r3, r2
    9138:	e59f3098 	ldr	r3, [pc, #152]	; 91d8 <SERVO_roll_move+0xd4>
    913c:	e5933008 	ldr	r3, [r3, #8]
    9140:	e0010293 	mul	r1, r3, r2
    9144:	e59f3094 	ldr	r3, [pc, #148]	; 91e0 <SERVO_roll_move+0xdc>
    9148:	e0c32391 	smull	r2, r3, r1, r3
    914c:	e1a02643 	asr	r2, r3, #12
    9150:	e1a03fc1 	asr	r3, r1, #31
    9154:	e0633002 	rsb	r3, r3, r2
    9158:	e0803003 	add	r3, r0, r3
    915c:	e50b3010 	str	r3, [fp, #-16]

    if(value>CAMERA_ptu.servo_roll_max) value=CAMERA_ptu.servo_roll_max;
    9160:	e59f3070 	ldr	r3, [pc, #112]	; 91d8 <SERVO_roll_move+0xd4>
    9164:	e593201c 	ldr	r2, [r3, #28]
    9168:	e51b3010 	ldr	r3, [fp, #-16]
    916c:	e1520003 	cmp	r2, r3
    9170:	aa000003 	bge	9184 <SERVO_roll_move+0x80>
    9174:	e59f305c 	ldr	r3, [pc, #92]	; 91d8 <SERVO_roll_move+0xd4>
    9178:	e593301c 	ldr	r3, [r3, #28]
    917c:	e50b3010 	str	r3, [fp, #-16]
    9180:	ea000007 	b	91a4 <SERVO_roll_move+0xa0>
    else if(value<CAMERA_ptu.servo_roll_min) value=CAMERA_ptu.servo_roll_min;
    9184:	e59f304c 	ldr	r3, [pc, #76]	; 91d8 <SERVO_roll_move+0xd4>
    9188:	e5932018 	ldr	r2, [r3, #24]
    918c:	e51b3010 	ldr	r3, [fp, #-16]
    9190:	e1520003 	cmp	r2, r3
    9194:	da000002 	ble	91a4 <SERVO_roll_move+0xa0>
    9198:	e59f3038 	ldr	r3, [pc, #56]	; 91d8 <SERVO_roll_move+0xd4>
    919c:	e5933018 	ldr	r3, [r3, #24]
    91a0:	e50b3010 	str	r3, [fp, #-16]

#ifdef HUMMINGBIRD_ROLL_SERVO_ON_SSEL0
    PWMMR2 = value;
    91a4:	e3a0320e 	mov	r3, #-536870912	; 0xe0000000
    91a8:	e2833905 	add	r3, r3, #81920	; 0x14000
    91ac:	e2833020 	add	r3, r3, #32
    91b0:	e51b2010 	ldr	r2, [fp, #-16]
    91b4:	e5832000 	str	r2, [r3]
#else
    PWMMR1 = value;
#endif
    PWMLER = LER5_EN|LER1_EN|LER2_EN;
    91b8:	e3a0320e 	mov	r3, #-536870912	; 0xe0000000
    91bc:	e2833905 	add	r3, r3, #81920	; 0x14000
    91c0:	e2833050 	add	r3, r3, #80	; 0x50
    91c4:	e3a02026 	mov	r2, #38	; 0x26
    91c8:	e5832000 	str	r2, [r3]
}
    91cc:	e24bd00c 	sub	sp, fp, #12
    91d0:	e89d6800 	ldm	sp, {fp, sp, lr}
    91d4:	e12fff1e 	bx	lr
    91d8:	4000241c 	.word	0x4000241c
    91dc:	66666667 	.word	0x66666667
    91e0:	7482296b 	.word	0x7482296b

000091e4 <memcpy>:
    91e4:	b530      	push	{r4, r5, lr}
    91e6:	1c05      	adds	r5, r0, #0
    91e8:	1c14      	adds	r4, r2, #0
    91ea:	2a0f      	cmp	r2, #15
    91ec:	d904      	bls.n	91f8 <memcpy+0x14>
    91ee:	1c0a      	adds	r2, r1, #0
    91f0:	432a      	orrs	r2, r5
    91f2:	2303      	movs	r3, #3
    91f4:	421a      	tst	r2, r3
    91f6:	d00b      	beq.n	9210 <memcpy+0x2c>
    91f8:	1e62      	subs	r2, r4, #1
    91fa:	d305      	bcc.n	9208 <memcpy+0x24>
    91fc:	780b      	ldrb	r3, [r1, #0]
    91fe:	3101      	adds	r1, #1
    9200:	7003      	strb	r3, [r0, #0]
    9202:	3001      	adds	r0, #1
    9204:	3a01      	subs	r2, #1
    9206:	d2f9      	bcs.n	91fc <memcpy+0x18>
    9208:	1c28      	adds	r0, r5, #0
    920a:	bc30      	pop	{r4, r5}
    920c:	bc02      	pop	{r1}
    920e:	4708      	bx	r1
    9210:	1c2a      	adds	r2, r5, #0
    9212:	680b      	ldr	r3, [r1, #0]
    9214:	6013      	str	r3, [r2, #0]
    9216:	684b      	ldr	r3, [r1, #4]
    9218:	6053      	str	r3, [r2, #4]
    921a:	688b      	ldr	r3, [r1, #8]
    921c:	6093      	str	r3, [r2, #8]
    921e:	68cb      	ldr	r3, [r1, #12]
    9220:	3c10      	subs	r4, #16
    9222:	60d3      	str	r3, [r2, #12]
    9224:	3110      	adds	r1, #16
    9226:	3210      	adds	r2, #16
    9228:	2c0f      	cmp	r4, #15
    922a:	d8f2      	bhi.n	9212 <memcpy+0x2e>
    922c:	2c03      	cmp	r4, #3
    922e:	d904      	bls.n	923a <memcpy+0x56>
    9230:	c908      	ldmia	r1!, {r3}
    9232:	3c04      	subs	r4, #4
    9234:	c208      	stmia	r2!, {r3}
    9236:	2c03      	cmp	r4, #3
    9238:	d8fa      	bhi.n	9230 <memcpy+0x4c>
    923a:	1c10      	adds	r0, r2, #0
    923c:	e7dc      	b.n	91f8 <memcpy+0x14>
    923e:	46c0      	nop			; (mov r8, r8)

00009240 <memset>:
    9240:	b530      	push	{r4, r5, lr}
    9242:	1c04      	adds	r4, r0, #0
    9244:	23ff      	movs	r3, #255	; 0xff
    9246:	1c10      	adds	r0, r2, #0
    9248:	1c0d      	adds	r5, r1, #0
    924a:	1c22      	adds	r2, r4, #0
    924c:	401d      	ands	r5, r3
    924e:	2803      	cmp	r0, #3
    9250:	d902      	bls.n	9258 <memset+0x18>
    9252:	2303      	movs	r3, #3
    9254:	421c      	tst	r4, r3
    9256:	d00a      	beq.n	926e <memset+0x2e>
    9258:	1e43      	subs	r3, r0, #1
    925a:	d304      	bcc.n	9266 <memset+0x26>
    925c:	1c29      	adds	r1, r5, #0
    925e:	7011      	strb	r1, [r2, #0]
    9260:	3201      	adds	r2, #1
    9262:	3b01      	subs	r3, #1
    9264:	d2fb      	bcs.n	925e <memset+0x1e>
    9266:	1c20      	adds	r0, r4, #0
    9268:	bc30      	pop	{r4, r5}
    926a:	bc02      	pop	{r1}
    926c:	4708      	bx	r1
    926e:	022b      	lsls	r3, r5, #8
    9270:	1c2a      	adds	r2, r5, #0
    9272:	431a      	orrs	r2, r3
    9274:	0413      	lsls	r3, r2, #16
    9276:	1c21      	adds	r1, r4, #0
    9278:	431a      	orrs	r2, r3
    927a:	280f      	cmp	r0, #15
    927c:	d909      	bls.n	9292 <memset+0x52>
    927e:	3810      	subs	r0, #16
    9280:	600a      	str	r2, [r1, #0]
    9282:	604a      	str	r2, [r1, #4]
    9284:	608a      	str	r2, [r1, #8]
    9286:	60ca      	str	r2, [r1, #12]
    9288:	3110      	adds	r1, #16
    928a:	280f      	cmp	r0, #15
    928c:	d8f7      	bhi.n	927e <memset+0x3e>
    928e:	2803      	cmp	r0, #3
    9290:	d903      	bls.n	929a <memset+0x5a>
    9292:	3804      	subs	r0, #4
    9294:	c104      	stmia	r1!, {r2}
    9296:	2803      	cmp	r0, #3
    9298:	d8fb      	bhi.n	9292 <memset+0x52>
    929a:	1c0a      	adds	r2, r1, #0
    929c:	e7dc      	b.n	9258 <memset+0x18>
    929e:	46c0      	nop			; (mov r8, r8)

000092a0 <__aeabi_uidiv>:
    92a0:	2900      	cmp	r1, #0
    92a2:	d034      	beq.n	930e <__aeabi_uidiv+0x6e>
    92a4:	2301      	movs	r3, #1
    92a6:	2200      	movs	r2, #0
    92a8:	b410      	push	{r4}
    92aa:	4288      	cmp	r0, r1
    92ac:	d32c      	bcc.n	9308 <__aeabi_uidiv+0x68>
    92ae:	2401      	movs	r4, #1
    92b0:	0724      	lsls	r4, r4, #28
    92b2:	42a1      	cmp	r1, r4
    92b4:	d204      	bcs.n	92c0 <__aeabi_uidiv+0x20>
    92b6:	4281      	cmp	r1, r0
    92b8:	d202      	bcs.n	92c0 <__aeabi_uidiv+0x20>
    92ba:	0109      	lsls	r1, r1, #4
    92bc:	011b      	lsls	r3, r3, #4
    92be:	e7f8      	b.n	92b2 <__aeabi_uidiv+0x12>
    92c0:	00e4      	lsls	r4, r4, #3
    92c2:	42a1      	cmp	r1, r4
    92c4:	d204      	bcs.n	92d0 <__aeabi_uidiv+0x30>
    92c6:	4281      	cmp	r1, r0
    92c8:	d202      	bcs.n	92d0 <__aeabi_uidiv+0x30>
    92ca:	0049      	lsls	r1, r1, #1
    92cc:	005b      	lsls	r3, r3, #1
    92ce:	e7f8      	b.n	92c2 <__aeabi_uidiv+0x22>
    92d0:	4288      	cmp	r0, r1
    92d2:	d301      	bcc.n	92d8 <__aeabi_uidiv+0x38>
    92d4:	1a40      	subs	r0, r0, r1
    92d6:	431a      	orrs	r2, r3
    92d8:	084c      	lsrs	r4, r1, #1
    92da:	42a0      	cmp	r0, r4
    92dc:	d302      	bcc.n	92e4 <__aeabi_uidiv+0x44>
    92de:	1b00      	subs	r0, r0, r4
    92e0:	085c      	lsrs	r4, r3, #1
    92e2:	4322      	orrs	r2, r4
    92e4:	088c      	lsrs	r4, r1, #2
    92e6:	42a0      	cmp	r0, r4
    92e8:	d302      	bcc.n	92f0 <__aeabi_uidiv+0x50>
    92ea:	1b00      	subs	r0, r0, r4
    92ec:	089c      	lsrs	r4, r3, #2
    92ee:	4322      	orrs	r2, r4
    92f0:	08cc      	lsrs	r4, r1, #3
    92f2:	42a0      	cmp	r0, r4
    92f4:	d302      	bcc.n	92fc <__aeabi_uidiv+0x5c>
    92f6:	1b00      	subs	r0, r0, r4
    92f8:	08dc      	lsrs	r4, r3, #3
    92fa:	4322      	orrs	r2, r4
    92fc:	2800      	cmp	r0, #0
    92fe:	d003      	beq.n	9308 <__aeabi_uidiv+0x68>
    9300:	091b      	lsrs	r3, r3, #4
    9302:	d001      	beq.n	9308 <__aeabi_uidiv+0x68>
    9304:	0909      	lsrs	r1, r1, #4
    9306:	e7e3      	b.n	92d0 <__aeabi_uidiv+0x30>
    9308:	1c10      	adds	r0, r2, #0
    930a:	bc10      	pop	{r4}
    930c:	4770      	bx	lr
    930e:	b502      	push	{r1, lr}
    9310:	f000 f85e 	bl	93d0 <__aeabi_idiv0>
    9314:	2000      	movs	r0, #0
    9316:	bc06      	pop	{r1, r2}
    9318:	4710      	bx	r2
    931a:	46c0      	nop			; (mov r8, r8)

0000931c <__aeabi_uidivmod>:
    931c:	b503      	push	{r0, r1, lr}
    931e:	f7ff ffbf 	bl	92a0 <__aeabi_uidiv>
    9322:	bc0e      	pop	{r1, r2, r3}
    9324:	4342      	muls	r2, r0
    9326:	1a89      	subs	r1, r1, r2
    9328:	4718      	bx	r3
    932a:	46c0      	nop			; (mov r8, r8)

0000932c <__aeabi_idiv>:
    932c:	2900      	cmp	r1, #0
    932e:	d041      	beq.n	93b4 <__aeabi_idiv+0x88>
    9330:	b410      	push	{r4}
    9332:	1c04      	adds	r4, r0, #0
    9334:	404c      	eors	r4, r1
    9336:	46a4      	mov	ip, r4
    9338:	2301      	movs	r3, #1
    933a:	2200      	movs	r2, #0
    933c:	2900      	cmp	r1, #0
    933e:	d500      	bpl.n	9342 <__aeabi_idiv+0x16>
    9340:	4249      	negs	r1, r1
    9342:	2800      	cmp	r0, #0
    9344:	d500      	bpl.n	9348 <__aeabi_idiv+0x1c>
    9346:	4240      	negs	r0, r0
    9348:	4288      	cmp	r0, r1
    934a:	d32c      	bcc.n	93a6 <__aeabi_idiv+0x7a>
    934c:	2401      	movs	r4, #1
    934e:	0724      	lsls	r4, r4, #28
    9350:	42a1      	cmp	r1, r4
    9352:	d204      	bcs.n	935e <__aeabi_idiv+0x32>
    9354:	4281      	cmp	r1, r0
    9356:	d202      	bcs.n	935e <__aeabi_idiv+0x32>
    9358:	0109      	lsls	r1, r1, #4
    935a:	011b      	lsls	r3, r3, #4
    935c:	e7f8      	b.n	9350 <__aeabi_idiv+0x24>
    935e:	00e4      	lsls	r4, r4, #3
    9360:	42a1      	cmp	r1, r4
    9362:	d204      	bcs.n	936e <__aeabi_idiv+0x42>
    9364:	4281      	cmp	r1, r0
    9366:	d202      	bcs.n	936e <__aeabi_idiv+0x42>
    9368:	0049      	lsls	r1, r1, #1
    936a:	005b      	lsls	r3, r3, #1
    936c:	e7f8      	b.n	9360 <__aeabi_idiv+0x34>
    936e:	4288      	cmp	r0, r1
    9370:	d301      	bcc.n	9376 <__aeabi_idiv+0x4a>
    9372:	1a40      	subs	r0, r0, r1
    9374:	431a      	orrs	r2, r3
    9376:	084c      	lsrs	r4, r1, #1
    9378:	42a0      	cmp	r0, r4
    937a:	d302      	bcc.n	9382 <__aeabi_idiv+0x56>
    937c:	1b00      	subs	r0, r0, r4
    937e:	085c      	lsrs	r4, r3, #1
    9380:	4322      	orrs	r2, r4
    9382:	088c      	lsrs	r4, r1, #2
    9384:	42a0      	cmp	r0, r4
    9386:	d302      	bcc.n	938e <__aeabi_idiv+0x62>
    9388:	1b00      	subs	r0, r0, r4
    938a:	089c      	lsrs	r4, r3, #2
    938c:	4322      	orrs	r2, r4
    938e:	08cc      	lsrs	r4, r1, #3
    9390:	42a0      	cmp	r0, r4
    9392:	d302      	bcc.n	939a <__aeabi_idiv+0x6e>
    9394:	1b00      	subs	r0, r0, r4
    9396:	08dc      	lsrs	r4, r3, #3
    9398:	4322      	orrs	r2, r4
    939a:	2800      	cmp	r0, #0
    939c:	d003      	beq.n	93a6 <__aeabi_idiv+0x7a>
    939e:	091b      	lsrs	r3, r3, #4
    93a0:	d001      	beq.n	93a6 <__aeabi_idiv+0x7a>
    93a2:	0909      	lsrs	r1, r1, #4
    93a4:	e7e3      	b.n	936e <__aeabi_idiv+0x42>
    93a6:	1c10      	adds	r0, r2, #0
    93a8:	4664      	mov	r4, ip
    93aa:	2c00      	cmp	r4, #0
    93ac:	d500      	bpl.n	93b0 <__aeabi_idiv+0x84>
    93ae:	4240      	negs	r0, r0
    93b0:	bc10      	pop	{r4}
    93b2:	4770      	bx	lr
    93b4:	b502      	push	{r1, lr}
    93b6:	f000 f80b 	bl	93d0 <__aeabi_idiv0>
    93ba:	2000      	movs	r0, #0
    93bc:	bc06      	pop	{r1, r2}
    93be:	4710      	bx	r2

000093c0 <__aeabi_idivmod>:
    93c0:	b503      	push	{r0, r1, lr}
    93c2:	f7ff ffb3 	bl	932c <__aeabi_idiv>
    93c6:	bc0e      	pop	{r1, r2, r3}
    93c8:	4342      	muls	r2, r0
    93ca:	1a89      	subs	r1, r1, r2
    93cc:	4718      	bx	r3
    93ce:	46c0      	nop			; (mov r8, r8)

000093d0 <__aeabi_idiv0>:
    93d0:	4770      	bx	lr
    93d2:	46c0      	nop			; (mov r8, r8)

000093d4 <__aeabi_drsub>:
    93d4:	e2200102 	eor	r0, r0, #-2147483648	; 0x80000000
    93d8:	ea000000 	b	93e0 <__adddf3>

000093dc <__aeabi_dsub>:
    93dc:	e2222102 	eor	r2, r2, #-2147483648	; 0x80000000

000093e0 <__adddf3>:
    93e0:	e92d4030 	push	{r4, r5, lr}
    93e4:	e1a04080 	lsl	r4, r0, #1
    93e8:	e1a05082 	lsl	r5, r2, #1
    93ec:	e1340005 	teq	r4, r5
    93f0:	01310003 	teqeq	r1, r3
    93f4:	1194c001 	orrsne	ip, r4, r1
    93f8:	1195c003 	orrsne	ip, r5, r3
    93fc:	11f0cac4 	mvnsne	ip, r4, asr #21
    9400:	11f0cac5 	mvnsne	ip, r5, asr #21
    9404:	0a00008c 	beq	963c <__adddf3+0x25c>
    9408:	e1a04aa4 	lsr	r4, r4, #21
    940c:	e0745aa5 	rsbs	r5, r4, r5, lsr #21
    9410:	b2655000 	rsblt	r5, r5, #0
    9414:	da000006 	ble	9434 <__adddf3+0x54>
    9418:	e0844005 	add	r4, r4, r5
    941c:	e0213003 	eor	r3, r1, r3
    9420:	e0202002 	eor	r2, r0, r2
    9424:	e0231001 	eor	r1, r3, r1
    9428:	e0220000 	eor	r0, r2, r0
    942c:	e0213003 	eor	r3, r1, r3
    9430:	e0202002 	eor	r2, r0, r2
    9434:	e3550036 	cmp	r5, #54	; 0x36
    9438:	88bd4030 	pophi	{r4, r5, lr}
    943c:	812fff1e 	bxhi	lr
    9440:	e3100102 	tst	r0, #-2147483648	; 0x80000000
    9444:	e1a00600 	lsl	r0, r0, #12
    9448:	e3a0c601 	mov	ip, #1048576	; 0x100000
    944c:	e18c0620 	orr	r0, ip, r0, lsr #12
    9450:	0a000001 	beq	945c <__adddf3+0x7c>
    9454:	e2711000 	rsbs	r1, r1, #0
    9458:	e2e00000 	rsc	r0, r0, #0
    945c:	e3120102 	tst	r2, #-2147483648	; 0x80000000
    9460:	e1a02602 	lsl	r2, r2, #12
    9464:	e18c2622 	orr	r2, ip, r2, lsr #12
    9468:	0a000001 	beq	9474 <__adddf3+0x94>
    946c:	e2733000 	rsbs	r3, r3, #0
    9470:	e2e22000 	rsc	r2, r2, #0
    9474:	e1340005 	teq	r4, r5
    9478:	0a000069 	beq	9624 <__adddf3+0x244>
    947c:	e2444001 	sub	r4, r4, #1
    9480:	e275e020 	rsbs	lr, r5, #32
    9484:	ba000005 	blt	94a0 <__adddf3+0xc0>
    9488:	e1a0ce13 	lsl	ip, r3, lr
    948c:	e0911533 	adds	r1, r1, r3, lsr r5
    9490:	e2a00000 	adc	r0, r0, #0
    9494:	e0911e12 	adds	r1, r1, r2, lsl lr
    9498:	e0b00552 	adcs	r0, r0, r2, asr r5
    949c:	ea000006 	b	94bc <__adddf3+0xdc>
    94a0:	e2455020 	sub	r5, r5, #32
    94a4:	e28ee020 	add	lr, lr, #32
    94a8:	e3530001 	cmp	r3, #1
    94ac:	e1a0ce12 	lsl	ip, r2, lr
    94b0:	238cc002 	orrcs	ip, ip, #2
    94b4:	e0911552 	adds	r1, r1, r2, asr r5
    94b8:	e0b00fc2 	adcs	r0, r0, r2, asr #31
    94bc:	e2005102 	and	r5, r0, #-2147483648	; 0x80000000
    94c0:	5a000002 	bpl	94d0 <__adddf3+0xf0>
    94c4:	e27cc000 	rsbs	ip, ip, #0
    94c8:	e2f11000 	rscs	r1, r1, #0
    94cc:	e2e00000 	rsc	r0, r0, #0
    94d0:	e3500601 	cmp	r0, #1048576	; 0x100000
    94d4:	3a00000f 	bcc	9518 <__adddf3+0x138>
    94d8:	e3500602 	cmp	r0, #2097152	; 0x200000
    94dc:	3a000006 	bcc	94fc <__adddf3+0x11c>
    94e0:	e1b000a0 	lsrs	r0, r0, #1
    94e4:	e1b01061 	rrxs	r1, r1
    94e8:	e1a0c06c 	rrx	ip, ip
    94ec:	e2844001 	add	r4, r4, #1
    94f0:	e1a02a84 	lsl	r2, r4, #21
    94f4:	e3720501 	cmn	r2, #4194304	; 0x400000
    94f8:	2a00006b 	bcs	96ac <__adddf3+0x2cc>
    94fc:	e35c0102 	cmp	ip, #-2147483648	; 0x80000000
    9500:	01b0c0a1 	lsrseq	ip, r1, #1
    9504:	e2b11000 	adcs	r1, r1, #0
    9508:	e0a00a04 	adc	r0, r0, r4, lsl #20
    950c:	e1800005 	orr	r0, r0, r5
    9510:	e8bd4030 	pop	{r4, r5, lr}
    9514:	e12fff1e 	bx	lr
    9518:	e1b0c08c 	lsls	ip, ip, #1
    951c:	e0b11001 	adcs	r1, r1, r1
    9520:	e0a00000 	adc	r0, r0, r0
    9524:	e3100601 	tst	r0, #1048576	; 0x100000
    9528:	e2444001 	sub	r4, r4, #1
    952c:	1afffff2 	bne	94fc <__adddf3+0x11c>
    9530:	e3300000 	teq	r0, #0
    9534:	13a03014 	movne	r3, #20
    9538:	03a03034 	moveq	r3, #52	; 0x34
    953c:	01a00001 	moveq	r0, r1
    9540:	03a01000 	moveq	r1, #0
    9544:	e1a02000 	mov	r2, r0
    9548:	e3520801 	cmp	r2, #65536	; 0x10000
    954c:	21a02822 	lsrcs	r2, r2, #16
    9550:	22433010 	subcs	r3, r3, #16
    9554:	e3520c01 	cmp	r2, #256	; 0x100
    9558:	21a02422 	lsrcs	r2, r2, #8
    955c:	22433008 	subcs	r3, r3, #8
    9560:	e3520010 	cmp	r2, #16
    9564:	21a02222 	lsrcs	r2, r2, #4
    9568:	22433004 	subcs	r3, r3, #4
    956c:	e3520004 	cmp	r2, #4
    9570:	22433002 	subcs	r3, r3, #2
    9574:	304330a2 	subcc	r3, r3, r2, lsr #1
    9578:	e04331a2 	sub	r3, r3, r2, lsr #3
    957c:	e2532020 	subs	r2, r3, #32
    9580:	aa000007 	bge	95a4 <__adddf3+0x1c4>
    9584:	e292200c 	adds	r2, r2, #12
    9588:	da000004 	ble	95a0 <__adddf3+0x1c0>
    958c:	e282c014 	add	ip, r2, #20
    9590:	e262200c 	rsb	r2, r2, #12
    9594:	e1a01c10 	lsl	r1, r0, ip
    9598:	e1a00230 	lsr	r0, r0, r2
    959c:	ea000004 	b	95b4 <__adddf3+0x1d4>
    95a0:	e2822014 	add	r2, r2, #20
    95a4:	d262c020 	rsble	ip, r2, #32
    95a8:	e1a00210 	lsl	r0, r0, r2
    95ac:	d1800c31 	orrle	r0, r0, r1, lsr ip
    95b0:	d1a01211 	lslle	r1, r1, r2
    95b4:	e0544003 	subs	r4, r4, r3
    95b8:	a0800a04 	addge	r0, r0, r4, lsl #20
    95bc:	a1800005 	orrge	r0, r0, r5
    95c0:	a8bd4030 	popge	{r4, r5, lr}
    95c4:	a12fff1e 	bxge	lr
    95c8:	e1e04004 	mvn	r4, r4
    95cc:	e254401f 	subs	r4, r4, #31
    95d0:	aa00000f 	bge	9614 <__adddf3+0x234>
    95d4:	e294400c 	adds	r4, r4, #12
    95d8:	ca000006 	bgt	95f8 <__adddf3+0x218>
    95dc:	e2844014 	add	r4, r4, #20
    95e0:	e2642020 	rsb	r2, r4, #32
    95e4:	e1a01431 	lsr	r1, r1, r4
    95e8:	e1811210 	orr	r1, r1, r0, lsl r2
    95ec:	e1850430 	orr	r0, r5, r0, lsr r4
    95f0:	e8bd4030 	pop	{r4, r5, lr}
    95f4:	e12fff1e 	bx	lr
    95f8:	e264400c 	rsb	r4, r4, #12
    95fc:	e2642020 	rsb	r2, r4, #32
    9600:	e1a01231 	lsr	r1, r1, r2
    9604:	e1811410 	orr	r1, r1, r0, lsl r4
    9608:	e1a00005 	mov	r0, r5
    960c:	e8bd4030 	pop	{r4, r5, lr}
    9610:	e12fff1e 	bx	lr
    9614:	e1a01430 	lsr	r1, r0, r4
    9618:	e1a00005 	mov	r0, r5
    961c:	e8bd4030 	pop	{r4, r5, lr}
    9620:	e12fff1e 	bx	lr
    9624:	e3340000 	teq	r4, #0
    9628:	e2222601 	eor	r2, r2, #1048576	; 0x100000
    962c:	02200601 	eoreq	r0, r0, #1048576	; 0x100000
    9630:	02844001 	addeq	r4, r4, #1
    9634:	12455001 	subne	r5, r5, #1
    9638:	eaffff8f 	b	947c <__adddf3+0x9c>
    963c:	e1f0cac4 	mvns	ip, r4, asr #21
    9640:	11f0cac5 	mvnsne	ip, r5, asr #21
    9644:	0a00001d 	beq	96c0 <__adddf3+0x2e0>
    9648:	e1340005 	teq	r4, r5
    964c:	01310003 	teqeq	r1, r3
    9650:	0a000004 	beq	9668 <__adddf3+0x288>
    9654:	e3340000 	teq	r4, #0
    9658:	01a00002 	moveq	r0, r2
    965c:	01a01003 	moveq	r1, r3
    9660:	e8bd4030 	pop	{r4, r5, lr}
    9664:	e12fff1e 	bx	lr
    9668:	e1300002 	teq	r0, r2
    966c:	13a00000 	movne	r0, #0
    9670:	13a01000 	movne	r1, #0
    9674:	18bd4030 	popne	{r4, r5, lr}
    9678:	112fff1e 	bxne	lr
    967c:	e1b0caa4 	lsrs	ip, r4, #21
    9680:	1a000004 	bne	9698 <__adddf3+0x2b8>
    9684:	e1b01081 	lsls	r1, r1, #1
    9688:	e0b00000 	adcs	r0, r0, r0
    968c:	23800102 	orrcs	r0, r0, #-2147483648	; 0x80000000
    9690:	e8bd4030 	pop	{r4, r5, lr}
    9694:	e12fff1e 	bx	lr
    9698:	e2944501 	adds	r4, r4, #4194304	; 0x400000
    969c:	32800601 	addcc	r0, r0, #1048576	; 0x100000
    96a0:	38bd4030 	popcc	{r4, r5, lr}
    96a4:	312fff1e 	bxcc	lr
    96a8:	e2005102 	and	r5, r0, #-2147483648	; 0x80000000
    96ac:	e385047f 	orr	r0, r5, #2130706432	; 0x7f000000
    96b0:	e380060f 	orr	r0, r0, #15728640	; 0xf00000
    96b4:	e3a01000 	mov	r1, #0
    96b8:	e8bd4030 	pop	{r4, r5, lr}
    96bc:	e12fff1e 	bx	lr
    96c0:	e1f0cac4 	mvns	ip, r4, asr #21
    96c4:	11a00002 	movne	r0, r2
    96c8:	11a01003 	movne	r1, r3
    96cc:	01f0cac5 	mvnseq	ip, r5, asr #21
    96d0:	11a02000 	movne	r2, r0
    96d4:	11a03001 	movne	r3, r1
    96d8:	e1914600 	orrs	r4, r1, r0, lsl #12
    96dc:	01935602 	orrseq	r5, r3, r2, lsl #12
    96e0:	01300002 	teqeq	r0, r2
    96e4:	13800702 	orrne	r0, r0, #524288	; 0x80000
    96e8:	e8bd4030 	pop	{r4, r5, lr}
    96ec:	e12fff1e 	bx	lr

000096f0 <__aeabi_ui2d>:
    96f0:	e3300000 	teq	r0, #0
    96f4:	03a01000 	moveq	r1, #0
    96f8:	012fff1e 	bxeq	lr
    96fc:	e92d4030 	push	{r4, r5, lr}
    9700:	e3a04b01 	mov	r4, #1024	; 0x400
    9704:	e2844032 	add	r4, r4, #50	; 0x32
    9708:	e3a05000 	mov	r5, #0
    970c:	e1a01000 	mov	r1, r0
    9710:	e3a00000 	mov	r0, #0
    9714:	eaffff85 	b	9530 <__adddf3+0x150>

00009718 <__aeabi_i2d>:
    9718:	e3300000 	teq	r0, #0
    971c:	03a01000 	moveq	r1, #0
    9720:	012fff1e 	bxeq	lr
    9724:	e92d4030 	push	{r4, r5, lr}
    9728:	e3a04b01 	mov	r4, #1024	; 0x400
    972c:	e2844032 	add	r4, r4, #50	; 0x32
    9730:	e2105102 	ands	r5, r0, #-2147483648	; 0x80000000
    9734:	42600000 	rsbmi	r0, r0, #0
    9738:	e1a01000 	mov	r1, r0
    973c:	e3a00000 	mov	r0, #0
    9740:	eaffff7a 	b	9530 <__adddf3+0x150>

00009744 <__aeabi_f2d>:
    9744:	e1b02080 	lsls	r2, r0, #1
    9748:	e1a001c2 	asr	r0, r2, #3
    974c:	e1a00060 	rrx	r0, r0
    9750:	e1a01e02 	lsl	r1, r2, #28
    9754:	121234ff 	andsne	r3, r2, #-16777216	; 0xff000000
    9758:	133304ff 	teqne	r3, #-16777216	; 0xff000000
    975c:	1220030e 	eorne	r0, r0, #939524096	; 0x38000000
    9760:	112fff1e 	bxne	lr
    9764:	e3320000 	teq	r2, #0
    9768:	133304ff 	teqne	r3, #-16777216	; 0xff000000
    976c:	012fff1e 	bxeq	lr
    9770:	e92d4030 	push	{r4, r5, lr}
    9774:	e3a04d0e 	mov	r4, #896	; 0x380
    9778:	e2005102 	and	r5, r0, #-2147483648	; 0x80000000
    977c:	e3c00102 	bic	r0, r0, #-2147483648	; 0x80000000
    9780:	eaffff6a 	b	9530 <__adddf3+0x150>

00009784 <__aeabi_ul2d>:
    9784:	e1902001 	orrs	r2, r0, r1
    9788:	012fff1e 	bxeq	lr
    978c:	e92d4030 	push	{r4, r5, lr}
    9790:	e3a05000 	mov	r5, #0
    9794:	ea000006 	b	97b4 <__aeabi_l2d+0x1c>

00009798 <__aeabi_l2d>:
    9798:	e1902001 	orrs	r2, r0, r1
    979c:	012fff1e 	bxeq	lr
    97a0:	e92d4030 	push	{r4, r5, lr}
    97a4:	e2115102 	ands	r5, r1, #-2147483648	; 0x80000000
    97a8:	5a000001 	bpl	97b4 <__aeabi_l2d+0x1c>
    97ac:	e2700000 	rsbs	r0, r0, #0
    97b0:	e2e11000 	rsc	r1, r1, #0
    97b4:	e3a04b01 	mov	r4, #1024	; 0x400
    97b8:	e2844032 	add	r4, r4, #50	; 0x32
    97bc:	e1a0c000 	mov	ip, r0
    97c0:	e1a00001 	mov	r0, r1
    97c4:	e1a0100c 	mov	r1, ip
    97c8:	e1b0cb20 	lsrs	ip, r0, #22
    97cc:	0affff3f 	beq	94d0 <__adddf3+0xf0>
    97d0:	e3a02003 	mov	r2, #3
    97d4:	e1b0c1ac 	lsrs	ip, ip, #3
    97d8:	12822003 	addne	r2, r2, #3
    97dc:	e1b0c1ac 	lsrs	ip, ip, #3
    97e0:	12822003 	addne	r2, r2, #3
    97e4:	e08221ac 	add	r2, r2, ip, lsr #3
    97e8:	e2623020 	rsb	r3, r2, #32
    97ec:	e1a0c311 	lsl	ip, r1, r3
    97f0:	e1a01231 	lsr	r1, r1, r2
    97f4:	e1811310 	orr	r1, r1, r0, lsl r3
    97f8:	e1a00230 	lsr	r0, r0, r2
    97fc:	e0844002 	add	r4, r4, r2
    9800:	eaffff32 	b	94d0 <__adddf3+0xf0>

00009804 <__aeabi_dmul>:
    9804:	e92d4070 	push	{r4, r5, r6, lr}
    9808:	e3a0c0ff 	mov	ip, #255	; 0xff
    980c:	e38ccc07 	orr	ip, ip, #1792	; 0x700
    9810:	e01c4a20 	ands	r4, ip, r0, lsr #20
    9814:	101c5a22 	andsne	r5, ip, r2, lsr #20
    9818:	1134000c 	teqne	r4, ip
    981c:	1135000c 	teqne	r5, ip
    9820:	0b000075 	bleq	99fc <__aeabi_dmul+0x1f8>
    9824:	e0844005 	add	r4, r4, r5
    9828:	e0206002 	eor	r6, r0, r2
    982c:	e1c00a8c 	bic	r0, r0, ip, lsl #21
    9830:	e1c22a8c 	bic	r2, r2, ip, lsl #21
    9834:	e1915600 	orrs	r5, r1, r0, lsl #12
    9838:	11935602 	orrsne	r5, r3, r2, lsl #12
    983c:	e3800601 	orr	r0, r0, #1048576	; 0x100000
    9840:	e3822601 	orr	r2, r2, #1048576	; 0x100000
    9844:	0a00001d 	beq	98c0 <__aeabi_dmul+0xbc>
    9848:	e08ec391 	umull	ip, lr, r1, r3
    984c:	e3a05000 	mov	r5, #0
    9850:	e0a5e390 	umlal	lr, r5, r0, r3
    9854:	e2063102 	and	r3, r6, #-2147483648	; 0x80000000
    9858:	e0a5e291 	umlal	lr, r5, r1, r2
    985c:	e3a06000 	mov	r6, #0
    9860:	e0a65290 	umlal	r5, r6, r0, r2
    9864:	e33c0000 	teq	ip, #0
    9868:	138ee001 	orrne	lr, lr, #1
    986c:	e24440ff 	sub	r4, r4, #255	; 0xff
    9870:	e3560c02 	cmp	r6, #512	; 0x200
    9874:	e2c44c03 	sbc	r4, r4, #768	; 0x300
    9878:	2a000002 	bcs	9888 <__aeabi_dmul+0x84>
    987c:	e1b0e08e 	lsls	lr, lr, #1
    9880:	e0b55005 	adcs	r5, r5, r5
    9884:	e0a66006 	adc	r6, r6, r6
    9888:	e1830586 	orr	r0, r3, r6, lsl #11
    988c:	e1800aa5 	orr	r0, r0, r5, lsr #21
    9890:	e1a01585 	lsl	r1, r5, #11
    9894:	e1811aae 	orr	r1, r1, lr, lsr #21
    9898:	e1a0e58e 	lsl	lr, lr, #11
    989c:	e254c0fd 	subs	ip, r4, #253	; 0xfd
    98a0:	835c0c07 	cmphi	ip, #1792	; 0x700
    98a4:	8a000011 	bhi	98f0 <__aeabi_dmul+0xec>
    98a8:	e35e0102 	cmp	lr, #-2147483648	; 0x80000000
    98ac:	01b0e0a1 	lsrseq	lr, r1, #1
    98b0:	e2b11000 	adcs	r1, r1, #0
    98b4:	e0a00a04 	adc	r0, r0, r4, lsl #20
    98b8:	e8bd4070 	pop	{r4, r5, r6, lr}
    98bc:	e12fff1e 	bx	lr
    98c0:	e2066102 	and	r6, r6, #-2147483648	; 0x80000000
    98c4:	e1860000 	orr	r0, r6, r0
    98c8:	e1811003 	orr	r1, r1, r3
    98cc:	e0200002 	eor	r0, r0, r2
    98d0:	e05440ac 	subs	r4, r4, ip, lsr #1
    98d4:	c074500c 	rsbsgt	r5, r4, ip
    98d8:	c1800a04 	orrgt	r0, r0, r4, lsl #20
    98dc:	c8bd4070 	popgt	{r4, r5, r6, lr}
    98e0:	c12fff1e 	bxgt	lr
    98e4:	e3800601 	orr	r0, r0, #1048576	; 0x100000
    98e8:	e3a0e000 	mov	lr, #0
    98ec:	e2544001 	subs	r4, r4, #1
    98f0:	ca00005d 	bgt	9a6c <__aeabi_dmul+0x268>
    98f4:	e3740036 	cmn	r4, #54	; 0x36
    98f8:	d3a01000 	movle	r1, #0
    98fc:	d2000102 	andle	r0, r0, #-2147483648	; 0x80000000
    9900:	d8bd4070 	pople	{r4, r5, r6, lr}
    9904:	d12fff1e 	bxle	lr
    9908:	e2644000 	rsb	r4, r4, #0
    990c:	e2544020 	subs	r4, r4, #32
    9910:	aa00001a 	bge	9980 <__aeabi_dmul+0x17c>
    9914:	e294400c 	adds	r4, r4, #12
    9918:	ca00000c 	bgt	9950 <__aeabi_dmul+0x14c>
    991c:	e2844014 	add	r4, r4, #20
    9920:	e2645020 	rsb	r5, r4, #32
    9924:	e1a03511 	lsl	r3, r1, r5
    9928:	e1a01431 	lsr	r1, r1, r4
    992c:	e1811510 	orr	r1, r1, r0, lsl r5
    9930:	e2002102 	and	r2, r0, #-2147483648	; 0x80000000
    9934:	e3c00102 	bic	r0, r0, #-2147483648	; 0x80000000
    9938:	e0911fa3 	adds	r1, r1, r3, lsr #31
    993c:	e0a20430 	adc	r0, r2, r0, lsr r4
    9940:	e19ee083 	orrs	lr, lr, r3, lsl #1
    9944:	01c11fa3 	biceq	r1, r1, r3, lsr #31
    9948:	e8bd4070 	pop	{r4, r5, r6, lr}
    994c:	e12fff1e 	bx	lr
    9950:	e264400c 	rsb	r4, r4, #12
    9954:	e2645020 	rsb	r5, r4, #32
    9958:	e1a03411 	lsl	r3, r1, r4
    995c:	e1a01531 	lsr	r1, r1, r5
    9960:	e1811410 	orr	r1, r1, r0, lsl r4
    9964:	e2000102 	and	r0, r0, #-2147483648	; 0x80000000
    9968:	e0911fa3 	adds	r1, r1, r3, lsr #31
    996c:	e2a00000 	adc	r0, r0, #0
    9970:	e19ee083 	orrs	lr, lr, r3, lsl #1
    9974:	01c11fa3 	biceq	r1, r1, r3, lsr #31
    9978:	e8bd4070 	pop	{r4, r5, r6, lr}
    997c:	e12fff1e 	bx	lr
    9980:	e2645020 	rsb	r5, r4, #32
    9984:	e18ee511 	orr	lr, lr, r1, lsl r5
    9988:	e1a03431 	lsr	r3, r1, r4
    998c:	e1833510 	orr	r3, r3, r0, lsl r5
    9990:	e1a01430 	lsr	r1, r0, r4
    9994:	e2000102 	and	r0, r0, #-2147483648	; 0x80000000
    9998:	e1c11430 	bic	r1, r1, r0, lsr r4
    999c:	e0811fa3 	add	r1, r1, r3, lsr #31
    99a0:	e19ee083 	orrs	lr, lr, r3, lsl #1
    99a4:	01c11fa3 	biceq	r1, r1, r3, lsr #31
    99a8:	e8bd4070 	pop	{r4, r5, r6, lr}
    99ac:	e12fff1e 	bx	lr
    99b0:	e3340000 	teq	r4, #0
    99b4:	1a000008 	bne	99dc <__aeabi_dmul+0x1d8>
    99b8:	e2006102 	and	r6, r0, #-2147483648	; 0x80000000
    99bc:	e1b01081 	lsls	r1, r1, #1
    99c0:	e0a00000 	adc	r0, r0, r0
    99c4:	e3100601 	tst	r0, #1048576	; 0x100000
    99c8:	02444001 	subeq	r4, r4, #1
    99cc:	0afffffa 	beq	99bc <__aeabi_dmul+0x1b8>
    99d0:	e1800006 	orr	r0, r0, r6
    99d4:	e3350000 	teq	r5, #0
    99d8:	11a0f00e 	movne	pc, lr
    99dc:	e2026102 	and	r6, r2, #-2147483648	; 0x80000000
    99e0:	e1b03083 	lsls	r3, r3, #1
    99e4:	e0a22002 	adc	r2, r2, r2
    99e8:	e3120601 	tst	r2, #1048576	; 0x100000
    99ec:	02455001 	subeq	r5, r5, #1
    99f0:	0afffffa 	beq	99e0 <__aeabi_dmul+0x1dc>
    99f4:	e1822006 	orr	r2, r2, r6
    99f8:	e1a0f00e 	mov	pc, lr
    99fc:	e134000c 	teq	r4, ip
    9a00:	e00c5a22 	and	r5, ip, r2, lsr #20
    9a04:	1135000c 	teqne	r5, ip
    9a08:	0a000007 	beq	9a2c <__aeabi_dmul+0x228>
    9a0c:	e1916080 	orrs	r6, r1, r0, lsl #1
    9a10:	11936082 	orrsne	r6, r3, r2, lsl #1
    9a14:	1affffe5 	bne	99b0 <__aeabi_dmul+0x1ac>
    9a18:	e0200002 	eor	r0, r0, r2
    9a1c:	e2000102 	and	r0, r0, #-2147483648	; 0x80000000
    9a20:	e3a01000 	mov	r1, #0
    9a24:	e8bd4070 	pop	{r4, r5, r6, lr}
    9a28:	e12fff1e 	bx	lr
    9a2c:	e1916080 	orrs	r6, r1, r0, lsl #1
    9a30:	01a01003 	moveq	r1, r3
    9a34:	01a00002 	moveq	r0, r2
    9a38:	11936082 	orrsne	r6, r3, r2, lsl #1
    9a3c:	0a000010 	beq	9a84 <__aeabi_dmul+0x280>
    9a40:	e134000c 	teq	r4, ip
    9a44:	1a000001 	bne	9a50 <__aeabi_dmul+0x24c>
    9a48:	e1916600 	orrs	r6, r1, r0, lsl #12
    9a4c:	1a00000c 	bne	9a84 <__aeabi_dmul+0x280>
    9a50:	e135000c 	teq	r5, ip
    9a54:	1a000003 	bne	9a68 <__aeabi_dmul+0x264>
    9a58:	e1936602 	orrs	r6, r3, r2, lsl #12
    9a5c:	11a01003 	movne	r1, r3
    9a60:	11a00002 	movne	r0, r2
    9a64:	1a000006 	bne	9a84 <__aeabi_dmul+0x280>
    9a68:	e0200002 	eor	r0, r0, r2
    9a6c:	e2000102 	and	r0, r0, #-2147483648	; 0x80000000
    9a70:	e380047f 	orr	r0, r0, #2130706432	; 0x7f000000
    9a74:	e380060f 	orr	r0, r0, #15728640	; 0xf00000
    9a78:	e3a01000 	mov	r1, #0
    9a7c:	e8bd4070 	pop	{r4, r5, r6, lr}
    9a80:	e12fff1e 	bx	lr
    9a84:	e380047f 	orr	r0, r0, #2130706432	; 0x7f000000
    9a88:	e380073e 	orr	r0, r0, #16252928	; 0xf80000
    9a8c:	e8bd4070 	pop	{r4, r5, r6, lr}
    9a90:	e12fff1e 	bx	lr

00009a94 <__aeabi_ddiv>:
    9a94:	e92d4070 	push	{r4, r5, r6, lr}
    9a98:	e3a0c0ff 	mov	ip, #255	; 0xff
    9a9c:	e38ccc07 	orr	ip, ip, #1792	; 0x700
    9aa0:	e01c4a20 	ands	r4, ip, r0, lsr #20
    9aa4:	101c5a22 	andsne	r5, ip, r2, lsr #20
    9aa8:	1134000c 	teqne	r4, ip
    9aac:	1135000c 	teqne	r5, ip
    9ab0:	0b00005e 	bleq	9c30 <__aeabi_ddiv+0x19c>
    9ab4:	e0444005 	sub	r4, r4, r5
    9ab8:	e020e002 	eor	lr, r0, r2
    9abc:	e1935602 	orrs	r5, r3, r2, lsl #12
    9ac0:	e1a00600 	lsl	r0, r0, #12
    9ac4:	0a00004c 	beq	9bfc <__aeabi_ddiv+0x168>
    9ac8:	e1a02602 	lsl	r2, r2, #12
    9acc:	e3a05201 	mov	r5, #268435456	; 0x10000000
    9ad0:	e1852222 	orr	r2, r5, r2, lsr #4
    9ad4:	e1822c23 	orr	r2, r2, r3, lsr #24
    9ad8:	e1a03403 	lsl	r3, r3, #8
    9adc:	e1855220 	orr	r5, r5, r0, lsr #4
    9ae0:	e1855c21 	orr	r5, r5, r1, lsr #24
    9ae4:	e1a06401 	lsl	r6, r1, #8
    9ae8:	e20e0102 	and	r0, lr, #-2147483648	; 0x80000000
    9aec:	e1550002 	cmp	r5, r2
    9af0:	01560003 	cmpeq	r6, r3
    9af4:	e2a440fd 	adc	r4, r4, #253	; 0xfd
    9af8:	e2844c03 	add	r4, r4, #768	; 0x300
    9afc:	2a000001 	bcs	9b08 <__aeabi_ddiv+0x74>
    9b00:	e1b020a2 	lsrs	r2, r2, #1
    9b04:	e1a03063 	rrx	r3, r3
    9b08:	e0566003 	subs	r6, r6, r3
    9b0c:	e0c55002 	sbc	r5, r5, r2
    9b10:	e1b020a2 	lsrs	r2, r2, #1
    9b14:	e1a03063 	rrx	r3, r3
    9b18:	e3a01601 	mov	r1, #1048576	; 0x100000
    9b1c:	e3a0c702 	mov	ip, #524288	; 0x80000
    9b20:	e056e003 	subs	lr, r6, r3
    9b24:	e0d5e002 	sbcs	lr, r5, r2
    9b28:	20466003 	subcs	r6, r6, r3
    9b2c:	21a0500e 	movcs	r5, lr
    9b30:	2181100c 	orrcs	r1, r1, ip
    9b34:	e1b020a2 	lsrs	r2, r2, #1
    9b38:	e1a03063 	rrx	r3, r3
    9b3c:	e056e003 	subs	lr, r6, r3
    9b40:	e0d5e002 	sbcs	lr, r5, r2
    9b44:	20466003 	subcs	r6, r6, r3
    9b48:	21a0500e 	movcs	r5, lr
    9b4c:	218110ac 	orrcs	r1, r1, ip, lsr #1
    9b50:	e1b020a2 	lsrs	r2, r2, #1
    9b54:	e1a03063 	rrx	r3, r3
    9b58:	e056e003 	subs	lr, r6, r3
    9b5c:	e0d5e002 	sbcs	lr, r5, r2
    9b60:	20466003 	subcs	r6, r6, r3
    9b64:	21a0500e 	movcs	r5, lr
    9b68:	2181112c 	orrcs	r1, r1, ip, lsr #2
    9b6c:	e1b020a2 	lsrs	r2, r2, #1
    9b70:	e1a03063 	rrx	r3, r3
    9b74:	e056e003 	subs	lr, r6, r3
    9b78:	e0d5e002 	sbcs	lr, r5, r2
    9b7c:	20466003 	subcs	r6, r6, r3
    9b80:	21a0500e 	movcs	r5, lr
    9b84:	218111ac 	orrcs	r1, r1, ip, lsr #3
    9b88:	e195e006 	orrs	lr, r5, r6
    9b8c:	0a00000d 	beq	9bc8 <__aeabi_ddiv+0x134>
    9b90:	e1a05205 	lsl	r5, r5, #4
    9b94:	e1855e26 	orr	r5, r5, r6, lsr #28
    9b98:	e1a06206 	lsl	r6, r6, #4
    9b9c:	e1a02182 	lsl	r2, r2, #3
    9ba0:	e1822ea3 	orr	r2, r2, r3, lsr #29
    9ba4:	e1a03183 	lsl	r3, r3, #3
    9ba8:	e1b0c22c 	lsrs	ip, ip, #4
    9bac:	1affffdb 	bne	9b20 <__aeabi_ddiv+0x8c>
    9bb0:	e3100601 	tst	r0, #1048576	; 0x100000
    9bb4:	1a000006 	bne	9bd4 <__aeabi_ddiv+0x140>
    9bb8:	e1800001 	orr	r0, r0, r1
    9bbc:	e3a01000 	mov	r1, #0
    9bc0:	e3a0c102 	mov	ip, #-2147483648	; 0x80000000
    9bc4:	eaffffd5 	b	9b20 <__aeabi_ddiv+0x8c>
    9bc8:	e3100601 	tst	r0, #1048576	; 0x100000
    9bcc:	01800001 	orreq	r0, r0, r1
    9bd0:	03a01000 	moveq	r1, #0
    9bd4:	e254c0fd 	subs	ip, r4, #253	; 0xfd
    9bd8:	835c0c07 	cmphi	ip, #1792	; 0x700
    9bdc:	8affff43 	bhi	98f0 <__aeabi_dmul+0xec>
    9be0:	e055c002 	subs	ip, r5, r2
    9be4:	0056c003 	subseq	ip, r6, r3
    9be8:	01b0c0a1 	lsrseq	ip, r1, #1
    9bec:	e2b11000 	adcs	r1, r1, #0
    9bf0:	e0a00a04 	adc	r0, r0, r4, lsl #20
    9bf4:	e8bd4070 	pop	{r4, r5, r6, lr}
    9bf8:	e12fff1e 	bx	lr
    9bfc:	e20ee102 	and	lr, lr, #-2147483648	; 0x80000000
    9c00:	e18e0620 	orr	r0, lr, r0, lsr #12
    9c04:	e09440ac 	adds	r4, r4, ip, lsr #1
    9c08:	c074500c 	rsbsgt	r5, r4, ip
    9c0c:	c1800a04 	orrgt	r0, r0, r4, lsl #20
    9c10:	c8bd4070 	popgt	{r4, r5, r6, lr}
    9c14:	c12fff1e 	bxgt	lr
    9c18:	e3800601 	orr	r0, r0, #1048576	; 0x100000
    9c1c:	e3a0e000 	mov	lr, #0
    9c20:	e2544001 	subs	r4, r4, #1
    9c24:	eaffff31 	b	98f0 <__aeabi_dmul+0xec>
    9c28:	e185e006 	orr	lr, r5, r6
    9c2c:	eaffff2f 	b	98f0 <__aeabi_dmul+0xec>
    9c30:	e00c5a22 	and	r5, ip, r2, lsr #20
    9c34:	e134000c 	teq	r4, ip
    9c38:	0135000c 	teqeq	r5, ip
    9c3c:	0affff90 	beq	9a84 <__aeabi_dmul+0x280>
    9c40:	e134000c 	teq	r4, ip
    9c44:	1a000006 	bne	9c64 <__aeabi_ddiv+0x1d0>
    9c48:	e1914600 	orrs	r4, r1, r0, lsl #12
    9c4c:	1affff8c 	bne	9a84 <__aeabi_dmul+0x280>
    9c50:	e135000c 	teq	r5, ip
    9c54:	1affff83 	bne	9a68 <__aeabi_dmul+0x264>
    9c58:	e1a01003 	mov	r1, r3
    9c5c:	e1a00002 	mov	r0, r2
    9c60:	eaffff87 	b	9a84 <__aeabi_dmul+0x280>
    9c64:	e135000c 	teq	r5, ip
    9c68:	1a000004 	bne	9c80 <__aeabi_ddiv+0x1ec>
    9c6c:	e1935602 	orrs	r5, r3, r2, lsl #12
    9c70:	0affff68 	beq	9a18 <__aeabi_dmul+0x214>
    9c74:	e1a01003 	mov	r1, r3
    9c78:	e1a00002 	mov	r0, r2
    9c7c:	eaffff80 	b	9a84 <__aeabi_dmul+0x280>
    9c80:	e1916080 	orrs	r6, r1, r0, lsl #1
    9c84:	11936082 	orrsne	r6, r3, r2, lsl #1
    9c88:	1affff48 	bne	99b0 <__aeabi_dmul+0x1ac>
    9c8c:	e1914080 	orrs	r4, r1, r0, lsl #1
    9c90:	1affff74 	bne	9a68 <__aeabi_dmul+0x264>
    9c94:	e1935082 	orrs	r5, r3, r2, lsl #1
    9c98:	1affff5e 	bne	9a18 <__aeabi_dmul+0x214>
    9c9c:	eaffff78 	b	9a84 <__aeabi_dmul+0x280>

00009ca0 <__gedf2>:
    9ca0:	e3e0c000 	mvn	ip, #0
    9ca4:	ea000002 	b	9cb4 <__cmpdf2+0x4>

00009ca8 <__ledf2>:
    9ca8:	e3a0c001 	mov	ip, #1
    9cac:	ea000000 	b	9cb4 <__cmpdf2+0x4>

00009cb0 <__cmpdf2>:
    9cb0:	e3a0c001 	mov	ip, #1
    9cb4:	e50dc004 	str	ip, [sp, #-4]
    9cb8:	e1a0c080 	lsl	ip, r0, #1
    9cbc:	e1f0cacc 	mvns	ip, ip, asr #21
    9cc0:	e1a0c082 	lsl	ip, r2, #1
    9cc4:	11f0cacc 	mvnsne	ip, ip, asr #21
    9cc8:	0a00000d 	beq	9d04 <__cmpdf2+0x54>
    9ccc:	e191c080 	orrs	ip, r1, r0, lsl #1
    9cd0:	0193c082 	orrseq	ip, r3, r2, lsl #1
    9cd4:	11300002 	teqne	r0, r2
    9cd8:	01310003 	teqeq	r1, r3
    9cdc:	03a00000 	moveq	r0, #0
    9ce0:	012fff1e 	bxeq	lr
    9ce4:	e3700000 	cmn	r0, #0
    9ce8:	e1300002 	teq	r0, r2
    9cec:	51500002 	cmppl	r0, r2
    9cf0:	01510003 	cmpeq	r1, r3
    9cf4:	21a00fc2 	asrcs	r0, r2, #31
    9cf8:	31e00fc2 	mvncc	r0, r2, asr #31
    9cfc:	e3800001 	orr	r0, r0, #1
    9d00:	e12fff1e 	bx	lr
    9d04:	e1a0c080 	lsl	ip, r0, #1
    9d08:	e1f0cacc 	mvns	ip, ip, asr #21
    9d0c:	1a000001 	bne	9d18 <__cmpdf2+0x68>
    9d10:	e191c600 	orrs	ip, r1, r0, lsl #12
    9d14:	1a000004 	bne	9d2c <__cmpdf2+0x7c>
    9d18:	e1a0c082 	lsl	ip, r2, #1
    9d1c:	e1f0cacc 	mvns	ip, ip, asr #21
    9d20:	1affffe9 	bne	9ccc <__cmpdf2+0x1c>
    9d24:	e193c602 	orrs	ip, r3, r2, lsl #12
    9d28:	0affffe7 	beq	9ccc <__cmpdf2+0x1c>
    9d2c:	e51d0004 	ldr	r0, [sp, #-4]
    9d30:	e12fff1e 	bx	lr

00009d34 <__aeabi_cdrcmple>:
    9d34:	e1a0c000 	mov	ip, r0
    9d38:	e1a00002 	mov	r0, r2
    9d3c:	e1a0200c 	mov	r2, ip
    9d40:	e1a0c001 	mov	ip, r1
    9d44:	e1a01003 	mov	r1, r3
    9d48:	e1a0300c 	mov	r3, ip
    9d4c:	eaffffff 	b	9d50 <__aeabi_cdcmpeq>

00009d50 <__aeabi_cdcmpeq>:
    9d50:	e92d4001 	push	{r0, lr}
    9d54:	ebffffd5 	bl	9cb0 <__cmpdf2>
    9d58:	e3500000 	cmp	r0, #0
    9d5c:	43700000 	cmnmi	r0, #0
    9d60:	e8bd4001 	pop	{r0, lr}
    9d64:	e12fff1e 	bx	lr

00009d68 <__aeabi_dcmpeq>:
    9d68:	e52de008 	str	lr, [sp, #-8]!
    9d6c:	ebfffff7 	bl	9d50 <__aeabi_cdcmpeq>
    9d70:	03a00001 	moveq	r0, #1
    9d74:	13a00000 	movne	r0, #0
    9d78:	e49de008 	ldr	lr, [sp], #8
    9d7c:	e12fff1e 	bx	lr

00009d80 <__aeabi_dcmplt>:
    9d80:	e52de008 	str	lr, [sp, #-8]!
    9d84:	ebfffff1 	bl	9d50 <__aeabi_cdcmpeq>
    9d88:	33a00001 	movcc	r0, #1
    9d8c:	23a00000 	movcs	r0, #0
    9d90:	e49de008 	ldr	lr, [sp], #8
    9d94:	e12fff1e 	bx	lr

00009d98 <__aeabi_dcmple>:
    9d98:	e52de008 	str	lr, [sp, #-8]!
    9d9c:	ebffffeb 	bl	9d50 <__aeabi_cdcmpeq>
    9da0:	93a00001 	movls	r0, #1
    9da4:	83a00000 	movhi	r0, #0
    9da8:	e49de008 	ldr	lr, [sp], #8
    9dac:	e12fff1e 	bx	lr

00009db0 <__aeabi_dcmpge>:
    9db0:	e52de008 	str	lr, [sp, #-8]!
    9db4:	ebffffde 	bl	9d34 <__aeabi_cdrcmple>
    9db8:	93a00001 	movls	r0, #1
    9dbc:	83a00000 	movhi	r0, #0
    9dc0:	e49de008 	ldr	lr, [sp], #8
    9dc4:	e12fff1e 	bx	lr

00009dc8 <__aeabi_dcmpgt>:
    9dc8:	e52de008 	str	lr, [sp, #-8]!
    9dcc:	ebffffd8 	bl	9d34 <__aeabi_cdrcmple>
    9dd0:	33a00001 	movcc	r0, #1
    9dd4:	23a00000 	movcs	r0, #0
    9dd8:	e49de008 	ldr	lr, [sp], #8
    9ddc:	e12fff1e 	bx	lr

00009de0 <__aeabi_d2iz>:
    9de0:	e1a02080 	lsl	r2, r0, #1
    9de4:	e2922602 	adds	r2, r2, #2097152	; 0x200000
    9de8:	2a00000c 	bcs	9e20 <__aeabi_d2iz+0x40>
    9dec:	5a000009 	bpl	9e18 <__aeabi_d2iz+0x38>
    9df0:	e3e03e3e 	mvn	r3, #992	; 0x3e0
    9df4:	e0532ac2 	subs	r2, r3, r2, asr #21
    9df8:	9a00000a 	bls	9e28 <__aeabi_d2iz+0x48>
    9dfc:	e1a03580 	lsl	r3, r0, #11
    9e00:	e3833102 	orr	r3, r3, #-2147483648	; 0x80000000
    9e04:	e1833aa1 	orr	r3, r3, r1, lsr #21
    9e08:	e3100102 	tst	r0, #-2147483648	; 0x80000000
    9e0c:	e1a00233 	lsr	r0, r3, r2
    9e10:	12600000 	rsbne	r0, r0, #0
    9e14:	e12fff1e 	bx	lr
    9e18:	e3a00000 	mov	r0, #0
    9e1c:	e12fff1e 	bx	lr
    9e20:	e1911600 	orrs	r1, r1, r0, lsl #12
    9e24:	1a000002 	bne	9e34 <__aeabi_d2iz+0x54>
    9e28:	e2100102 	ands	r0, r0, #-2147483648	; 0x80000000
    9e2c:	03e00102 	mvneq	r0, #-2147483648	; 0x80000000
    9e30:	e12fff1e 	bx	lr
    9e34:	e3a00000 	mov	r0, #0
    9e38:	e12fff1e 	bx	lr

00009e3c <__aeabi_frsub>:
    9e3c:	e2200102 	eor	r0, r0, #-2147483648	; 0x80000000
    9e40:	ea000000 	b	9e48 <__addsf3>

00009e44 <__aeabi_fsub>:
    9e44:	e2211102 	eor	r1, r1, #-2147483648	; 0x80000000

00009e48 <__addsf3>:
    9e48:	e1b02080 	lsls	r2, r0, #1
    9e4c:	11b03081 	lslsne	r3, r1, #1
    9e50:	11320003 	teqne	r2, r3
    9e54:	11f0cc42 	mvnsne	ip, r2, asr #24
    9e58:	11f0cc43 	mvnsne	ip, r3, asr #24
    9e5c:	0a000047 	beq	9f80 <__addsf3+0x138>
    9e60:	e1a02c22 	lsr	r2, r2, #24
    9e64:	e0723c23 	rsbs	r3, r2, r3, lsr #24
    9e68:	c0822003 	addgt	r2, r2, r3
    9e6c:	c0201001 	eorgt	r1, r0, r1
    9e70:	c0210000 	eorgt	r0, r1, r0
    9e74:	c0201001 	eorgt	r1, r0, r1
    9e78:	b2633000 	rsblt	r3, r3, #0
    9e7c:	e3530019 	cmp	r3, #25
    9e80:	812fff1e 	bxhi	lr
    9e84:	e3100102 	tst	r0, #-2147483648	; 0x80000000
    9e88:	e3800502 	orr	r0, r0, #8388608	; 0x800000
    9e8c:	e3c004ff 	bic	r0, r0, #-16777216	; 0xff000000
    9e90:	12600000 	rsbne	r0, r0, #0
    9e94:	e3110102 	tst	r1, #-2147483648	; 0x80000000
    9e98:	e3811502 	orr	r1, r1, #8388608	; 0x800000
    9e9c:	e3c114ff 	bic	r1, r1, #-16777216	; 0xff000000
    9ea0:	12611000 	rsbne	r1, r1, #0
    9ea4:	e1320003 	teq	r2, r3
    9ea8:	0a00002e 	beq	9f68 <__addsf3+0x120>
    9eac:	e2422001 	sub	r2, r2, #1
    9eb0:	e0900351 	adds	r0, r0, r1, asr r3
    9eb4:	e2633020 	rsb	r3, r3, #32
    9eb8:	e1a01311 	lsl	r1, r1, r3
    9ebc:	e2003102 	and	r3, r0, #-2147483648	; 0x80000000
    9ec0:	5a000001 	bpl	9ecc <__addsf3+0x84>
    9ec4:	e2711000 	rsbs	r1, r1, #0
    9ec8:	e2e00000 	rsc	r0, r0, #0
    9ecc:	e3500502 	cmp	r0, #8388608	; 0x800000
    9ed0:	3a00000b 	bcc	9f04 <__addsf3+0xbc>
    9ed4:	e3500401 	cmp	r0, #16777216	; 0x1000000
    9ed8:	3a000004 	bcc	9ef0 <__addsf3+0xa8>
    9edc:	e1b000a0 	lsrs	r0, r0, #1
    9ee0:	e1a01061 	rrx	r1, r1
    9ee4:	e2822001 	add	r2, r2, #1
    9ee8:	e35200fe 	cmp	r2, #254	; 0xfe
    9eec:	2a000038 	bcs	9fd4 <__addsf3+0x18c>
    9ef0:	e3510102 	cmp	r1, #-2147483648	; 0x80000000
    9ef4:	e0a00b82 	adc	r0, r0, r2, lsl #23
    9ef8:	03c00001 	biceq	r0, r0, #1
    9efc:	e1800003 	orr	r0, r0, r3
    9f00:	e12fff1e 	bx	lr
    9f04:	e1b01081 	lsls	r1, r1, #1
    9f08:	e0a00000 	adc	r0, r0, r0
    9f0c:	e3100502 	tst	r0, #8388608	; 0x800000
    9f10:	e2422001 	sub	r2, r2, #1
    9f14:	1afffff5 	bne	9ef0 <__addsf3+0xa8>
    9f18:	e1b0c620 	lsrs	ip, r0, #12
    9f1c:	01a00600 	lsleq	r0, r0, #12
    9f20:	0242200c 	subeq	r2, r2, #12
    9f24:	e31008ff 	tst	r0, #16711680	; 0xff0000
    9f28:	01a00400 	lsleq	r0, r0, #8
    9f2c:	02422008 	subeq	r2, r2, #8
    9f30:	e310060f 	tst	r0, #15728640	; 0xf00000
    9f34:	01a00200 	lsleq	r0, r0, #4
    9f38:	02422004 	subeq	r2, r2, #4
    9f3c:	e3100503 	tst	r0, #12582912	; 0xc00000
    9f40:	01a00100 	lsleq	r0, r0, #2
    9f44:	02422002 	subeq	r2, r2, #2
    9f48:	e3500502 	cmp	r0, #8388608	; 0x800000
    9f4c:	31a00080 	lslcc	r0, r0, #1
    9f50:	e2d22000 	sbcs	r2, r2, #0
    9f54:	a0800b82 	addge	r0, r0, r2, lsl #23
    9f58:	b2622000 	rsblt	r2, r2, #0
    9f5c:	a1800003 	orrge	r0, r0, r3
    9f60:	b1830230 	orrlt	r0, r3, r0, lsr r2
    9f64:	e12fff1e 	bx	lr
    9f68:	e3320000 	teq	r2, #0
    9f6c:	e2211502 	eor	r1, r1, #8388608	; 0x800000
    9f70:	02200502 	eoreq	r0, r0, #8388608	; 0x800000
    9f74:	02822001 	addeq	r2, r2, #1
    9f78:	12433001 	subne	r3, r3, #1
    9f7c:	eaffffca 	b	9eac <__addsf3+0x64>
    9f80:	e1a03081 	lsl	r3, r1, #1
    9f84:	e1f0cc42 	mvns	ip, r2, asr #24
    9f88:	11f0cc43 	mvnsne	ip, r3, asr #24
    9f8c:	0a000013 	beq	9fe0 <__addsf3+0x198>
    9f90:	e1320003 	teq	r2, r3
    9f94:	0a000002 	beq	9fa4 <__addsf3+0x15c>
    9f98:	e3320000 	teq	r2, #0
    9f9c:	01a00001 	moveq	r0, r1
    9fa0:	e12fff1e 	bx	lr
    9fa4:	e1300001 	teq	r0, r1
    9fa8:	13a00000 	movne	r0, #0
    9fac:	112fff1e 	bxne	lr
    9fb0:	e31204ff 	tst	r2, #-16777216	; 0xff000000
    9fb4:	1a000002 	bne	9fc4 <__addsf3+0x17c>
    9fb8:	e1b00080 	lsls	r0, r0, #1
    9fbc:	23800102 	orrcs	r0, r0, #-2147483648	; 0x80000000
    9fc0:	e12fff1e 	bx	lr
    9fc4:	e2922402 	adds	r2, r2, #33554432	; 0x2000000
    9fc8:	32800502 	addcc	r0, r0, #8388608	; 0x800000
    9fcc:	312fff1e 	bxcc	lr
    9fd0:	e2003102 	and	r3, r0, #-2147483648	; 0x80000000
    9fd4:	e383047f 	orr	r0, r3, #2130706432	; 0x7f000000
    9fd8:	e3800502 	orr	r0, r0, #8388608	; 0x800000
    9fdc:	e12fff1e 	bx	lr
    9fe0:	e1f02c42 	mvns	r2, r2, asr #24
    9fe4:	11a00001 	movne	r0, r1
    9fe8:	01f03c43 	mvnseq	r3, r3, asr #24
    9fec:	11a01000 	movne	r1, r0
    9ff0:	e1b02480 	lsls	r2, r0, #9
    9ff4:	01b03481 	lslseq	r3, r1, #9
    9ff8:	01300001 	teqeq	r0, r1
    9ffc:	13800501 	orrne	r0, r0, #4194304	; 0x400000
    a000:	e12fff1e 	bx	lr

0000a004 <__aeabi_ui2f>:
    a004:	e3a03000 	mov	r3, #0
    a008:	ea000001 	b	a014 <__aeabi_i2f+0x8>

0000a00c <__aeabi_i2f>:
    a00c:	e2103102 	ands	r3, r0, #-2147483648	; 0x80000000
    a010:	42600000 	rsbmi	r0, r0, #0
    a014:	e1b0c000 	movs	ip, r0
    a018:	012fff1e 	bxeq	lr
    a01c:	e383344b 	orr	r3, r3, #1258291200	; 0x4b000000
    a020:	e1a01000 	mov	r1, r0
    a024:	e3a00000 	mov	r0, #0
    a028:	ea00000f 	b	a06c <__aeabi_l2f+0x30>

0000a02c <__aeabi_ul2f>:
    a02c:	e1902001 	orrs	r2, r0, r1
    a030:	012fff1e 	bxeq	lr
    a034:	e3a03000 	mov	r3, #0
    a038:	ea000005 	b	a054 <__aeabi_l2f+0x18>

0000a03c <__aeabi_l2f>:
    a03c:	e1902001 	orrs	r2, r0, r1
    a040:	012fff1e 	bxeq	lr
    a044:	e2113102 	ands	r3, r1, #-2147483648	; 0x80000000
    a048:	5a000001 	bpl	a054 <__aeabi_l2f+0x18>
    a04c:	e2700000 	rsbs	r0, r0, #0
    a050:	e2e11000 	rsc	r1, r1, #0
    a054:	e1b0c001 	movs	ip, r1
    a058:	01a0c000 	moveq	ip, r0
    a05c:	01a01000 	moveq	r1, r0
    a060:	03a00000 	moveq	r0, #0
    a064:	e383345b 	orr	r3, r3, #1526726656	; 0x5b000000
    a068:	02433201 	subeq	r3, r3, #268435456	; 0x10000000
    a06c:	e2433502 	sub	r3, r3, #8388608	; 0x800000
    a070:	e3a02017 	mov	r2, #23
    a074:	e35c0801 	cmp	ip, #65536	; 0x10000
    a078:	21a0c82c 	lsrcs	ip, ip, #16
    a07c:	22422010 	subcs	r2, r2, #16
    a080:	e35c0c01 	cmp	ip, #256	; 0x100
    a084:	21a0c42c 	lsrcs	ip, ip, #8
    a088:	22422008 	subcs	r2, r2, #8
    a08c:	e35c0010 	cmp	ip, #16
    a090:	21a0c22c 	lsrcs	ip, ip, #4
    a094:	22422004 	subcs	r2, r2, #4
    a098:	e35c0004 	cmp	ip, #4
    a09c:	22422002 	subcs	r2, r2, #2
    a0a0:	304220ac 	subcc	r2, r2, ip, lsr #1
    a0a4:	e05221ac 	subs	r2, r2, ip, lsr #3
    a0a8:	e0433b82 	sub	r3, r3, r2, lsl #23
    a0ac:	ba000006 	blt	a0cc <__aeabi_l2f+0x90>
    a0b0:	e0833211 	add	r3, r3, r1, lsl r2
    a0b4:	e1a0c210 	lsl	ip, r0, r2
    a0b8:	e2622020 	rsb	r2, r2, #32
    a0bc:	e35c0102 	cmp	ip, #-2147483648	; 0x80000000
    a0c0:	e0a30230 	adc	r0, r3, r0, lsr r2
    a0c4:	03c00001 	biceq	r0, r0, #1
    a0c8:	e12fff1e 	bx	lr
    a0cc:	e2822020 	add	r2, r2, #32
    a0d0:	e1a0c211 	lsl	ip, r1, r2
    a0d4:	e2622020 	rsb	r2, r2, #32
    a0d8:	e190008c 	orrs	r0, r0, ip, lsl #1
    a0dc:	e0a30231 	adc	r0, r3, r1, lsr r2
    a0e0:	01c00fac 	biceq	r0, r0, ip, lsr #31
    a0e4:	e12fff1e 	bx	lr

0000a0e8 <__aeabi_fmul>:
    a0e8:	e3a0c0ff 	mov	ip, #255	; 0xff
    a0ec:	e01c2ba0 	ands	r2, ip, r0, lsr #23
    a0f0:	101c3ba1 	andsne	r3, ip, r1, lsr #23
    a0f4:	1132000c 	teqne	r2, ip
    a0f8:	1133000c 	teqne	r3, ip
    a0fc:	0a00003e 	beq	a1fc <__aeabi_fmul+0x114>
    a100:	e0822003 	add	r2, r2, r3
    a104:	e020c001 	eor	ip, r0, r1
    a108:	e1b00480 	lsls	r0, r0, #9
    a10c:	11b01481 	lslsne	r1, r1, #9
    a110:	0a000010 	beq	a158 <__aeabi_fmul+0x70>
    a114:	e3a03302 	mov	r3, #134217728	; 0x8000000
    a118:	e18302a0 	orr	r0, r3, r0, lsr #5
    a11c:	e18312a1 	orr	r1, r3, r1, lsr #5
    a120:	e0813190 	umull	r3, r1, r0, r1
    a124:	e20c0102 	and	r0, ip, #-2147483648	; 0x80000000
    a128:	e3510502 	cmp	r1, #8388608	; 0x800000
    a12c:	31a01081 	lslcc	r1, r1, #1
    a130:	31811fa3 	orrcc	r1, r1, r3, lsr #31
    a134:	31a03083 	lslcc	r3, r3, #1
    a138:	e1800001 	orr	r0, r0, r1
    a13c:	e2c2207f 	sbc	r2, r2, #127	; 0x7f
    a140:	e35200fd 	cmp	r2, #253	; 0xfd
    a144:	8a00000f 	bhi	a188 <__aeabi_fmul+0xa0>
    a148:	e3530102 	cmp	r3, #-2147483648	; 0x80000000
    a14c:	e0a00b82 	adc	r0, r0, r2, lsl #23
    a150:	03c00001 	biceq	r0, r0, #1
    a154:	e12fff1e 	bx	lr
    a158:	e3300000 	teq	r0, #0
    a15c:	e20cc102 	and	ip, ip, #-2147483648	; 0x80000000
    a160:	01a01481 	lsleq	r1, r1, #9
    a164:	e18c04a0 	orr	r0, ip, r0, lsr #9
    a168:	e18004a1 	orr	r0, r0, r1, lsr #9
    a16c:	e252207f 	subs	r2, r2, #127	; 0x7f
    a170:	c27230ff 	rsbsgt	r3, r2, #255	; 0xff
    a174:	c1800b82 	orrgt	r0, r0, r2, lsl #23
    a178:	c12fff1e 	bxgt	lr
    a17c:	e3800502 	orr	r0, r0, #8388608	; 0x800000
    a180:	e3a03000 	mov	r3, #0
    a184:	e2522001 	subs	r2, r2, #1
    a188:	ca000035 	bgt	a264 <__aeabi_fmul+0x17c>
    a18c:	e3720019 	cmn	r2, #25
    a190:	d2000102 	andle	r0, r0, #-2147483648	; 0x80000000
    a194:	d12fff1e 	bxle	lr
    a198:	e2622000 	rsb	r2, r2, #0
    a19c:	e1b01080 	lsls	r1, r0, #1
    a1a0:	e1a01231 	lsr	r1, r1, r2
    a1a4:	e2622020 	rsb	r2, r2, #32
    a1a8:	e1a0c210 	lsl	ip, r0, r2
    a1ac:	e1b00061 	rrxs	r0, r1
    a1b0:	e2a00000 	adc	r0, r0, #0
    a1b4:	e193308c 	orrs	r3, r3, ip, lsl #1
    a1b8:	01c00fac 	biceq	r0, r0, ip, lsr #31
    a1bc:	e12fff1e 	bx	lr
    a1c0:	e3320000 	teq	r2, #0
    a1c4:	e200c102 	and	ip, r0, #-2147483648	; 0x80000000
    a1c8:	01a00080 	lsleq	r0, r0, #1
    a1cc:	03100502 	tsteq	r0, #8388608	; 0x800000
    a1d0:	02422001 	subeq	r2, r2, #1
    a1d4:	0afffffb 	beq	a1c8 <__aeabi_fmul+0xe0>
    a1d8:	e180000c 	orr	r0, r0, ip
    a1dc:	e3330000 	teq	r3, #0
    a1e0:	e201c102 	and	ip, r1, #-2147483648	; 0x80000000
    a1e4:	01a01081 	lsleq	r1, r1, #1
    a1e8:	03110502 	tsteq	r1, #8388608	; 0x800000
    a1ec:	02433001 	subeq	r3, r3, #1
    a1f0:	0afffffb 	beq	a1e4 <__aeabi_fmul+0xfc>
    a1f4:	e181100c 	orr	r1, r1, ip
    a1f8:	eaffffc0 	b	a100 <__aeabi_fmul+0x18>
    a1fc:	e00c3ba1 	and	r3, ip, r1, lsr #23
    a200:	e132000c 	teq	r2, ip
    a204:	1133000c 	teqne	r3, ip
    a208:	0a000005 	beq	a224 <__aeabi_fmul+0x13c>
    a20c:	e3d0c102 	bics	ip, r0, #-2147483648	; 0x80000000
    a210:	13d1c102 	bicsne	ip, r1, #-2147483648	; 0x80000000
    a214:	1affffe9 	bne	a1c0 <__aeabi_fmul+0xd8>
    a218:	e0200001 	eor	r0, r0, r1
    a21c:	e2000102 	and	r0, r0, #-2147483648	; 0x80000000
    a220:	e12fff1e 	bx	lr
    a224:	e3300000 	teq	r0, #0
    a228:	13300102 	teqne	r0, #-2147483648	; 0x80000000
    a22c:	01a00001 	moveq	r0, r1
    a230:	13310000 	teqne	r1, #0
    a234:	13310102 	teqne	r1, #-2147483648	; 0x80000000
    a238:	0a00000d 	beq	a274 <__aeabi_fmul+0x18c>
    a23c:	e132000c 	teq	r2, ip
    a240:	1a000001 	bne	a24c <__aeabi_fmul+0x164>
    a244:	e1b02480 	lsls	r2, r0, #9
    a248:	1a000009 	bne	a274 <__aeabi_fmul+0x18c>
    a24c:	e133000c 	teq	r3, ip
    a250:	1a000002 	bne	a260 <__aeabi_fmul+0x178>
    a254:	e1b03481 	lsls	r3, r1, #9
    a258:	11a00001 	movne	r0, r1
    a25c:	1a000004 	bne	a274 <__aeabi_fmul+0x18c>
    a260:	e0200001 	eor	r0, r0, r1
    a264:	e2000102 	and	r0, r0, #-2147483648	; 0x80000000
    a268:	e380047f 	orr	r0, r0, #2130706432	; 0x7f000000
    a26c:	e3800502 	orr	r0, r0, #8388608	; 0x800000
    a270:	e12fff1e 	bx	lr
    a274:	e380047f 	orr	r0, r0, #2130706432	; 0x7f000000
    a278:	e3800503 	orr	r0, r0, #12582912	; 0xc00000
    a27c:	e12fff1e 	bx	lr

0000a280 <__aeabi_fdiv>:
    a280:	e3a0c0ff 	mov	ip, #255	; 0xff
    a284:	e01c2ba0 	ands	r2, ip, r0, lsr #23
    a288:	101c3ba1 	andsne	r3, ip, r1, lsr #23
    a28c:	1132000c 	teqne	r2, ip
    a290:	1133000c 	teqne	r3, ip
    a294:	0a00003a 	beq	a384 <__aeabi_fdiv+0x104>
    a298:	e0422003 	sub	r2, r2, r3
    a29c:	e020c001 	eor	ip, r0, r1
    a2a0:	e1b01481 	lsls	r1, r1, #9
    a2a4:	e1a00480 	lsl	r0, r0, #9
    a2a8:	0a00001c 	beq	a320 <__aeabi_fdiv+0xa0>
    a2ac:	e3a03201 	mov	r3, #268435456	; 0x10000000
    a2b0:	e1831221 	orr	r1, r3, r1, lsr #4
    a2b4:	e1833220 	orr	r3, r3, r0, lsr #4
    a2b8:	e20c0102 	and	r0, ip, #-2147483648	; 0x80000000
    a2bc:	e1530001 	cmp	r3, r1
    a2c0:	31a03083 	lslcc	r3, r3, #1
    a2c4:	e2a2207d 	adc	r2, r2, #125	; 0x7d
    a2c8:	e3a0c502 	mov	ip, #8388608	; 0x800000
    a2cc:	e1530001 	cmp	r3, r1
    a2d0:	20433001 	subcs	r3, r3, r1
    a2d4:	2180000c 	orrcs	r0, r0, ip
    a2d8:	e15300a1 	cmp	r3, r1, lsr #1
    a2dc:	204330a1 	subcs	r3, r3, r1, lsr #1
    a2e0:	218000ac 	orrcs	r0, r0, ip, lsr #1
    a2e4:	e1530121 	cmp	r3, r1, lsr #2
    a2e8:	20433121 	subcs	r3, r3, r1, lsr #2
    a2ec:	2180012c 	orrcs	r0, r0, ip, lsr #2
    a2f0:	e15301a1 	cmp	r3, r1, lsr #3
    a2f4:	204331a1 	subcs	r3, r3, r1, lsr #3
    a2f8:	218001ac 	orrcs	r0, r0, ip, lsr #3
    a2fc:	e1b03203 	lsls	r3, r3, #4
    a300:	11b0c22c 	lsrsne	ip, ip, #4
    a304:	1afffff0 	bne	a2cc <__aeabi_fdiv+0x4c>
    a308:	e35200fd 	cmp	r2, #253	; 0xfd
    a30c:	8affff9d 	bhi	a188 <__aeabi_fmul+0xa0>
    a310:	e1530001 	cmp	r3, r1
    a314:	e0a00b82 	adc	r0, r0, r2, lsl #23
    a318:	03c00001 	biceq	r0, r0, #1
    a31c:	e12fff1e 	bx	lr
    a320:	e20cc102 	and	ip, ip, #-2147483648	; 0x80000000
    a324:	e18c04a0 	orr	r0, ip, r0, lsr #9
    a328:	e292207f 	adds	r2, r2, #127	; 0x7f
    a32c:	c27230ff 	rsbsgt	r3, r2, #255	; 0xff
    a330:	c1800b82 	orrgt	r0, r0, r2, lsl #23
    a334:	c12fff1e 	bxgt	lr
    a338:	e3800502 	orr	r0, r0, #8388608	; 0x800000
    a33c:	e3a03000 	mov	r3, #0
    a340:	e2522001 	subs	r2, r2, #1
    a344:	eaffff8f 	b	a188 <__aeabi_fmul+0xa0>
    a348:	e3320000 	teq	r2, #0
    a34c:	e200c102 	and	ip, r0, #-2147483648	; 0x80000000
    a350:	01a00080 	lsleq	r0, r0, #1
    a354:	03100502 	tsteq	r0, #8388608	; 0x800000
    a358:	02422001 	subeq	r2, r2, #1
    a35c:	0afffffb 	beq	a350 <__aeabi_fdiv+0xd0>
    a360:	e180000c 	orr	r0, r0, ip
    a364:	e3330000 	teq	r3, #0
    a368:	e201c102 	and	ip, r1, #-2147483648	; 0x80000000
    a36c:	01a01081 	lsleq	r1, r1, #1
    a370:	03110502 	tsteq	r1, #8388608	; 0x800000
    a374:	02433001 	subeq	r3, r3, #1
    a378:	0afffffb 	beq	a36c <__aeabi_fdiv+0xec>
    a37c:	e181100c 	orr	r1, r1, ip
    a380:	eaffffc4 	b	a298 <__aeabi_fdiv+0x18>
    a384:	e00c3ba1 	and	r3, ip, r1, lsr #23
    a388:	e132000c 	teq	r2, ip
    a38c:	1a000005 	bne	a3a8 <__aeabi_fdiv+0x128>
    a390:	e1b02480 	lsls	r2, r0, #9
    a394:	1affffb6 	bne	a274 <__aeabi_fmul+0x18c>
    a398:	e133000c 	teq	r3, ip
    a39c:	1affffaf 	bne	a260 <__aeabi_fmul+0x178>
    a3a0:	e1a00001 	mov	r0, r1
    a3a4:	eaffffb2 	b	a274 <__aeabi_fmul+0x18c>
    a3a8:	e133000c 	teq	r3, ip
    a3ac:	1a000003 	bne	a3c0 <__aeabi_fdiv+0x140>
    a3b0:	e1b03481 	lsls	r3, r1, #9
    a3b4:	0affff97 	beq	a218 <__aeabi_fmul+0x130>
    a3b8:	e1a00001 	mov	r0, r1
    a3bc:	eaffffac 	b	a274 <__aeabi_fmul+0x18c>
    a3c0:	e3d0c102 	bics	ip, r0, #-2147483648	; 0x80000000
    a3c4:	13d1c102 	bicsne	ip, r1, #-2147483648	; 0x80000000
    a3c8:	1affffde 	bne	a348 <__aeabi_fdiv+0xc8>
    a3cc:	e3d02102 	bics	r2, r0, #-2147483648	; 0x80000000
    a3d0:	1affffa2 	bne	a260 <__aeabi_fmul+0x178>
    a3d4:	e3d13102 	bics	r3, r1, #-2147483648	; 0x80000000
    a3d8:	1affff8e 	bne	a218 <__aeabi_fmul+0x130>
    a3dc:	eaffffa4 	b	a274 <__aeabi_fmul+0x18c>

0000a3e0 <__gesf2>:
    a3e0:	e3e0c000 	mvn	ip, #0
    a3e4:	ea000002 	b	a3f4 <__cmpsf2+0x4>

0000a3e8 <__lesf2>:
    a3e8:	e3a0c001 	mov	ip, #1
    a3ec:	ea000000 	b	a3f4 <__cmpsf2+0x4>

0000a3f0 <__cmpsf2>:
    a3f0:	e3a0c001 	mov	ip, #1
    a3f4:	e50dc004 	str	ip, [sp, #-4]
    a3f8:	e1a02080 	lsl	r2, r0, #1
    a3fc:	e1a03081 	lsl	r3, r1, #1
    a400:	e1f0cc42 	mvns	ip, r2, asr #24
    a404:	11f0cc43 	mvnsne	ip, r3, asr #24
    a408:	0a000006 	beq	a428 <__cmpsf2+0x38>
    a40c:	e192c0a3 	orrs	ip, r2, r3, lsr #1
    a410:	11300001 	teqne	r0, r1
    a414:	50520003 	subspl	r0, r2, r3
    a418:	81a00fc1 	asrhi	r0, r1, #31
    a41c:	31e00fc1 	mvncc	r0, r1, asr #31
    a420:	13800001 	orrne	r0, r0, #1
    a424:	e12fff1e 	bx	lr
    a428:	e1f0cc42 	mvns	ip, r2, asr #24
    a42c:	1a000001 	bne	a438 <__cmpsf2+0x48>
    a430:	e1b0c480 	lsls	ip, r0, #9
    a434:	1a000003 	bne	a448 <__cmpsf2+0x58>
    a438:	e1f0cc43 	mvns	ip, r3, asr #24
    a43c:	1afffff2 	bne	a40c <__cmpsf2+0x1c>
    a440:	e1b0c481 	lsls	ip, r1, #9
    a444:	0afffff0 	beq	a40c <__cmpsf2+0x1c>
    a448:	e51d0004 	ldr	r0, [sp, #-4]
    a44c:	e12fff1e 	bx	lr

0000a450 <__aeabi_cfrcmple>:
    a450:	e1a0c000 	mov	ip, r0
    a454:	e1a00001 	mov	r0, r1
    a458:	e1a0100c 	mov	r1, ip
    a45c:	eaffffff 	b	a460 <__aeabi_cfcmpeq>

0000a460 <__aeabi_cfcmpeq>:
    a460:	e92d400f 	push	{r0, r1, r2, r3, lr}
    a464:	ebffffe1 	bl	a3f0 <__cmpsf2>
    a468:	e3500000 	cmp	r0, #0
    a46c:	43700000 	cmnmi	r0, #0
    a470:	e8bd400f 	pop	{r0, r1, r2, r3, lr}
    a474:	e12fff1e 	bx	lr

0000a478 <__aeabi_fcmpeq>:
    a478:	e52de008 	str	lr, [sp, #-8]!
    a47c:	ebfffff7 	bl	a460 <__aeabi_cfcmpeq>
    a480:	03a00001 	moveq	r0, #1
    a484:	13a00000 	movne	r0, #0
    a488:	e49de008 	ldr	lr, [sp], #8
    a48c:	e12fff1e 	bx	lr

0000a490 <__aeabi_fcmplt>:
    a490:	e52de008 	str	lr, [sp, #-8]!
    a494:	ebfffff1 	bl	a460 <__aeabi_cfcmpeq>
    a498:	33a00001 	movcc	r0, #1
    a49c:	23a00000 	movcs	r0, #0
    a4a0:	e49de008 	ldr	lr, [sp], #8
    a4a4:	e12fff1e 	bx	lr

0000a4a8 <__aeabi_fcmple>:
    a4a8:	e52de008 	str	lr, [sp, #-8]!
    a4ac:	ebffffeb 	bl	a460 <__aeabi_cfcmpeq>
    a4b0:	93a00001 	movls	r0, #1
    a4b4:	83a00000 	movhi	r0, #0
    a4b8:	e49de008 	ldr	lr, [sp], #8
    a4bc:	e12fff1e 	bx	lr

0000a4c0 <__aeabi_fcmpge>:
    a4c0:	e52de008 	str	lr, [sp, #-8]!
    a4c4:	ebffffe1 	bl	a450 <__aeabi_cfrcmple>
    a4c8:	93a00001 	movls	r0, #1
    a4cc:	83a00000 	movhi	r0, #0
    a4d0:	e49de008 	ldr	lr, [sp], #8
    a4d4:	e12fff1e 	bx	lr

0000a4d8 <__aeabi_fcmpgt>:
    a4d8:	e52de008 	str	lr, [sp, #-8]!
    a4dc:	ebffffdb 	bl	a450 <__aeabi_cfrcmple>
    a4e0:	33a00001 	movcc	r0, #1
    a4e4:	23a00000 	movcs	r0, #0
    a4e8:	e49de008 	ldr	lr, [sp], #8
    a4ec:	e12fff1e 	bx	lr

0000a4f0 <__aeabi_f2iz>:
    a4f0:	e1a02080 	lsl	r2, r0, #1
    a4f4:	e352047f 	cmp	r2, #2130706432	; 0x7f000000
    a4f8:	3a000008 	bcc	a520 <__aeabi_f2iz+0x30>
    a4fc:	e3a0309e 	mov	r3, #158	; 0x9e
    a500:	e0532c22 	subs	r2, r3, r2, lsr #24
    a504:	9a000007 	bls	a528 <__aeabi_f2iz+0x38>
    a508:	e1a03400 	lsl	r3, r0, #8
    a50c:	e3833102 	orr	r3, r3, #-2147483648	; 0x80000000
    a510:	e3100102 	tst	r0, #-2147483648	; 0x80000000
    a514:	e1a00233 	lsr	r0, r3, r2
    a518:	12600000 	rsbne	r0, r0, #0
    a51c:	e12fff1e 	bx	lr
    a520:	e3a00000 	mov	r0, #0
    a524:	e12fff1e 	bx	lr
    a528:	e3720061 	cmn	r2, #97	; 0x61
    a52c:	1a000001 	bne	a538 <__aeabi_f2iz+0x48>
    a530:	e1b02480 	lsls	r2, r0, #9
    a534:	1a000002 	bne	a544 <__aeabi_f2iz+0x54>
    a538:	e2100102 	ands	r0, r0, #-2147483648	; 0x80000000
    a53c:	03e00102 	mvneq	r0, #-2147483648	; 0x80000000
    a540:	e12fff1e 	bx	lr
    a544:	e3a00000 	mov	r0, #0
    a548:	e12fff1e 	bx	lr
    a54c:	e1a0c00d 	.word	0xe1a0c00d
    a550:	e92dd8f0 	.word	0xe92dd8f0
    a554:	e24cb004 	.word	0xe24cb004
    a558:	e24dd014 	.word	0xe24dd014
    a55c:	e50b0020 	.word	0xe50b0020
    a560:	e50b1024 	.word	0xe50b1024
    a564:	e50b2028 	.word	0xe50b2028
    a568:	e50b302c 	.word	0xe50b302c
    a56c:	e51b3020 	.word	0xe51b3020
    a570:	e50b3030 	.word	0xe50b3030
    a574:	e51b3030 	.word	0xe51b3030
    a578:	e3530000 	.word	0xe3530000
    a57c:	0a000002 	.word	0x0a000002
    a580:	e51b3030 	.word	0xe51b3030
    a584:	e3530001 	.word	0xe3530001
    a588:	0a000220 	.word	0x0a000220
    a58c:	e51b3024 	.word	0xe51b3024
    a590:	e5932000 	.word	0xe5932000
    a594:	e59f3bd8 	.word	0xe59f3bd8
    a598:	e5832000 	.word	0xe5832000
    a59c:	e59f2bc8 	.word	0xe59f2bc8
    a5a0:	e59f3c00 	.word	0xe59f3c00
    a5a4:	e5823000 	.word	0xe5823000
    a5a8:	e59f3c00 	.word	0xe59f3c00
    a5ac:	e5931000 	.word	0xe5931000
    a5b0:	e59f2b08 	.word	0xe59f2b08
    a5b4:	e59f3b08 	.word	0xe59f3b08
    a5b8:	e5823000 	.word	0xe5823000
    a5bc:	e59f3afc 	.word	0xe59f3afc
    a5c0:	e5933000 	.word	0xe5933000
    a5c4:	e5813000 	.word	0xe5813000
    a5c8:	e5912000 	.word	0xe5912000
    a5cc:	e59f3b9c 	.word	0xe59f3b9c
    a5d0:	e5832000 	.word	0xe5832000
    a5d4:	e59f2be0 	.word	0xe59f2be0
    a5d8:	e59f3bc8 	.word	0xe59f3bc8
    a5dc:	e5823000 	.word	0xe5823000
    a5e0:	e59f2ae0 	.word	0xe59f2ae0
    a5e4:	e59f3ae0 	.word	0xe59f3ae0
    a5e8:	e5823000 	.word	0xe5823000
    a5ec:	e59f2adc 	.word	0xe59f2adc
    a5f0:	e59f3adc 	.word	0xe59f3adc
    a5f4:	e5823000 	.word	0xe5823000
    a5f8:	e59f2b78 	.word	0xe59f2b78
    a5fc:	e59f3ad4 	.word	0xe59f3ad4
    a600:	e5823000 	.word	0xe5823000
    a604:	e59f3abc 	.word	0xe59f3abc
    a608:	e5932000 	.word	0xe5932000
    a60c:	e59f3ab4 	.word	0xe59f3ab4
    a610:	e5933000 	.word	0xe5933000
    a614:	e1a00002 	.word	0xe1a00002
    a618:	e1a01003 	.word	0xe1a01003
    a61c:	ebfffeb1 	.word	0xebfffeb1
    a620:	e1a03000 	.word	0xe1a03000
    a624:	e1a02003 	.word	0xe1a02003
    a628:	e59f3b10 	.word	0xe59f3b10
    a62c:	e5832000 	.word	0xe5832000
    a630:	e59f3a98 	.word	0xe59f3a98
    a634:	e5932000 	.word	0xe5932000
    a638:	e59f3a90 	.word	0xe59f3a90
    a63c:	e5933000 	.word	0xe5933000
    a640:	e1a00002 	.word	0xe1a00002
    a644:	e1a01003 	.word	0xe1a01003
    a648:	ebfffea6 	.word	0xebfffea6
    a64c:	e1a03000 	.word	0xe1a03000
    a650:	e1a02003 	.word	0xe1a02003
    a654:	e59f3aec 	.word	0xe59f3aec
    a658:	e5832000 	.word	0xe5832000
    a65c:	e59f3adc 	.word	0xe59f3adc
    a660:	e5932000 	.word	0xe5932000
    a664:	e59f3adc 	.word	0xe59f3adc
    a668:	e5933000 	.word	0xe5933000
    a66c:	e1a00002 	.word	0xe1a00002
    a670:	e1a01003 	.word	0xe1a01003
    a674:	ebfffdf2 	.word	0xebfffdf2
    a678:	e1a03000 	.word	0xe1a03000
    a67c:	e1a02003 	.word	0xe1a02003
    a680:	e59f3acc 	.word	0xe59f3acc
    a684:	e5832000 	.word	0xe5832000
    a688:	e59f3ab0 	.word	0xe59f3ab0
    a68c:	e5932000 	.word	0xe5932000
    a690:	e59f3aa8 	.word	0xe59f3aa8
    a694:	e5933000 	.word	0xe5933000
    a698:	e1a00002 	.word	0xe1a00002
    a69c:	e1a01003 	.word	0xe1a01003
    a6a0:	ebfffe90 	.word	0xebfffe90
    a6a4:	e1a03000 	.word	0xe1a03000
    a6a8:	e1a02003 	.word	0xe1a02003
    a6ac:	e59f3a7c 	.word	0xe59f3a7c
    a6b0:	e5832000 	.word	0xe5832000
    a6b4:	e59f3a8c 	.word	0xe59f3a8c
    a6b8:	e5932000 	.word	0xe5932000
    a6bc:	e59f3a84 	.word	0xe59f3a84
    a6c0:	e5933000 	.word	0xe5933000
    a6c4:	e1a00002 	.word	0xe1a00002
    a6c8:	e1a01003 	.word	0xe1a01003
    a6cc:	ebfffe85 	.word	0xebfffe85
    a6d0:	e1a03000 	.word	0xe1a03000
    a6d4:	e1a02003 	.word	0xe1a02003
    a6d8:	e59f39fc 	.word	0xe59f39fc
    a6dc:	e5832000 	.word	0xe5832000
    a6e0:	e59f3a48 	.word	0xe59f3a48
    a6e4:	e5932000 	.word	0xe5932000
    a6e8:	e59f39ec 	.word	0xe59f39ec
    a6ec:	e5933000 	.word	0xe5933000
    a6f0:	e1a00002 	.word	0xe1a00002
    a6f4:	e1a01003 	.word	0xe1a01003
    a6f8:	ebfffdd1 	.word	0xebfffdd1
    a6fc:	e1a03000 	.word	0xe1a03000
    a700:	e1a02003 	.word	0xe1a02003
    a704:	e59f3a28 	.word	0xe59f3a28
    a708:	e5832000 	.word	0xe5832000
    a70c:	e59f29cc 	.word	0xe59f29cc
    a710:	e59f39cc 	.word	0xe59f39cc
    a714:	e5823000 	.word	0xe5823000
    a718:	e59f29c8 	.word	0xe59f29c8
    a71c:	e59f39a0 	.word	0xe59f39a0
    a720:	e5823000 	.word	0xe5823000
    a724:	e59f2a9c 	.word	0xe59f2a9c
    a728:	e3a03001 	.word	0xe3a03001
    a72c:	e5823000 	.word	0xe5823000
    a730:	ea00019d 	.word	0xea00019d
    a734:	e59f3a8c 	.word	0xe59f3a8c
    a738:	e5933000 	.word	0xe5933000
    a73c:	e1a03103 	.word	0xe1a03103
    a740:	e1a02003 	.word	0xe1a02003
    a744:	e59f399c 	.word	0xe59f399c
    a748:	e0825003 	.word	0xe0825003
    a74c:	e59f3a74 	.word	0xe59f3a74
    a750:	e5933000 	.word	0xe5933000
    a754:	e1a03103 	.word	0xe1a03103
    a758:	e1a02003 	.word	0xe1a02003
    a75c:	e59f3984 	.word	0xe59f3984
    a760:	e2433004 	.word	0xe2433004
    a764:	e0823003 	.word	0xe0823003
    a768:	e5934000 	.word	0xe5934000
    a76c:	e59f3a54 	.word	0xe59f3a54
    a770:	e5933000 	.word	0xe5933000
    a774:	e1a03083 	.word	0xe1a03083
    a778:	e2433001 	.word	0xe2433001
    a77c:	e1a00003 	.word	0xe1a00003
    a780:	ebfffe21 	.word	0xebfffe21
    a784:	e1a03000 	.word	0xe1a03000
    a788:	e1a00004 	.word	0xe1a00004
    a78c:	e1a01003 	.word	0xe1a01003
    a790:	ebfffe54 	.word	0xebfffe54
    a794:	e1a03000 	.word	0xe1a03000
    a798:	e1a04003 	.word	0xe1a04003
    a79c:	e59f3a24 	.word	0xe59f3a24
    a7a0:	e5933000 	.word	0xe5933000
    a7a4:	e1a00003 	.word	0xe1a00003
    a7a8:	ebfffe17 	.word	0xebfffe17
    a7ac:	e1a03000 	.word	0xe1a03000
    a7b0:	e1a00004 	.word	0xe1a00004
    a7b4:	e1a01003 	.word	0xe1a01003
    a7b8:	ebfffeb0 	.word	0xebfffeb0
    a7bc:	e1a03000 	.word	0xe1a03000
    a7c0:	e5853000 	.word	0xe5853000
    a7c4:	e59f2920 	.word	0xe59f2920
    a7c8:	e3a03002 	.word	0xe3a03002
    a7cc:	e5823000 	.word	0xe5823000
    a7d0:	e59f2a00 	.word	0xe59f2a00
    a7d4:	e3a03000 	.word	0xe3a03000
    a7d8:	e5823000 	.word	0xe5823000
    a7dc:	e59f290c 	.word	0xe59f290c
    a7e0:	e3a03001 	.word	0xe3a03001
    a7e4:	e5823000 	.word	0xe5823000
    a7e8:	e59f39d8 	.word	0xe59f39d8
    a7ec:	e5932000 	.word	0xe5932000
    a7f0:	e59f39e0 	.word	0xe59f39e0
    a7f4:	e5933000 	.word	0xe5933000
    a7f8:	e0632002 	.word	0xe0632002
    a7fc:	e59f38ec 	.word	0xe59f38ec
    a800:	e5933000 	.word	0xe5933000
    a804:	e0822003 	.word	0xe0822003
    a808:	e59f38e0 	.word	0xe59f38e0
    a80c:	e5933000 	.word	0xe5933000
    a810:	e1a00002 	.word	0xe1a00002
    a814:	e1a01003 	.word	0xe1a01003
    a818:	eb001f2b 	.word	0xeb001f2b
    a81c:	e1a03000 	.word	0xe1a03000
    a820:	e1a02003 	.word	0xe1a02003
    a824:	e59f38c8 	.word	0xe59f38c8
    a828:	e5832000 	.word	0xe5832000
    a82c:	ea000142 	.word	0xea000142
    a830:	e59f39a0 	.word	0xe59f39a0
    a834:	e5934000 	.word	0xe5934000
    a838:	e59f3988 	.word	0xe59f3988
    a83c:	e5935000 	.word	0xe5935000
    a840:	e59f3980 	.word	0xe59f3980
    a844:	e5933000 	.word	0xe5933000
    a848:	e2432001 	.word	0xe2432001
    a84c:	e59f3974 	.word	0xe59f3974
    a850:	e5933000 	.word	0xe5933000
    a854:	e2433001 	.word	0xe2433001
    a858:	e0010293 	.word	0xe0010293
    a85c:	e59f3974 	.word	0xe59f3974
    a860:	e5932000 	.word	0xe5932000
    a864:	e59f396c 	.word	0xe59f396c
    a868:	e5933000 	.word	0xe5933000
    a86c:	e0030392 	.word	0xe0030392
    a870:	e0633001 	.word	0xe0633001
    a874:	e1a00003 	.word	0xe1a00003
    a878:	ebfffde3 	.word	0xebfffde3
    a87c:	e1a06000 	.word	0xe1a06000
    a880:	e59f3940 	.word	0xe59f3940
    a884:	e5933000 	.word	0xe5933000
    a888:	e1a03083 	.word	0xe1a03083
    a88c:	e2432001 	.word	0xe2432001
    a890:	e59f3930 	.word	0xe59f3930
    a894:	e5933000 	.word	0xe5933000
    a898:	e1a03083 	.word	0xe1a03083
    a89c:	e2433003 	.word	0xe2433003
    a8a0:	e0030392 	.word	0xe0030392
    a8a4:	e1a00003 	.word	0xe1a00003
    a8a8:	ebfffdd7 	.word	0xebfffdd7
    a8ac:	e1a03000 	.word	0xe1a03000
    a8b0:	e1a00006 	.word	0xe1a00006
    a8b4:	e1a01003 	.word	0xe1a01003
    a8b8:	ebfffe70 	.word	0xebfffe70
    a8bc:	e1a03000 	.word	0xe1a03000
    a8c0:	e1a02003 	.word	0xe1a02003
    a8c4:	e59f18ec 	.word	0xe59f18ec
    a8c8:	e1a03004 	.word	0xe1a03004
    a8cc:	e1a03083 	.word	0xe1a03083
    a8d0:	e0833004 	.word	0xe0833004
    a8d4:	e1a03103 	.word	0xe1a03103
    a8d8:	e0833004 	.word	0xe0833004
    a8dc:	e0833005 	.word	0xe0833005
    a8e0:	e7812103 	.word	0xe7812103
    a8e4:	e59f38ec 	.word	0xe59f38ec
    a8e8:	e5933000 	.word	0xe5933000
    a8ec:	e3530000 	.word	0xe3530000
    a8f0:	da0000af 	.word	0xda0000af
    a8f4:	e59f38cc 	.word	0xe59f38cc
    a8f8:	e5932000 	.word	0xe5932000
    a8fc:	e59f38d4 	.word	0xe59f38d4
    a900:	e5933000 	.word	0xe5933000
    a904:	e0633002 	.word	0xe0633002
    a908:	e2832001 	.word	0xe2832001
    a90c:	e59f37d8 	.word	0xe59f37d8
    a910:	e5933000 	.word	0xe5933000
    a914:	e0030392 	.word	0xe0030392
    a918:	e1a00003 	.word	0xe1a00003
    a91c:	ebfffdba 	.word	0xebfffdba
    a920:	e1a04000 	.word	0xe1a04000
    a924:	e59f389c 	.word	0xe59f389c
    a928:	e5932000 	.word	0xe5932000
    a92c:	e59f38a4 	.word	0xe59f38a4
    a930:	e5933000 	.word	0xe5933000
    a934:	e0823003 	.word	0xe0823003
    a938:	e1a00003 	.word	0xe1a00003
    a93c:	ebfffdb2 	.word	0xebfffdb2
    a940:	e1a03000 	.word	0xe1a03000
    a944:	e1a00004 	.word	0xe1a00004
    a948:	e1a01003 	.word	0xe1a01003
    a94c:	ebfffe4b 	.word	0xebfffe4b
    a950:	e1a03000 	.word	0xe1a03000
    a954:	e1a02003 	.word	0xe1a02003
    a958:	e59f3798 	.word	0xe59f3798
    a95c:	e5832000 	.word	0xe5832000
    a960:	e59f3870 	.word	0xe59f3870
    a964:	e5932000 	.word	0xe5932000
    a968:	e1a03002 	.word	0xe1a03002
    a96c:	e1a03083 	.word	0xe1a03083
    a970:	e0833002 	.word	0xe0833002
    a974:	e1a03103 	.word	0xe1a03103
    a978:	e0832002 	.word	0xe0832002
    a97c:	e59f3844 	.word	0xe59f3844
    a980:	e5933000 	.word	0xe5933000
    a984:	e0823003 	.word	0xe0823003
    a988:	e1a02103 	.word	0xe1a02103
    a98c:	e59f3754 	.word	0xe59f3754
    a990:	e0827003 	.word	0xe0827003
    a994:	e59f383c 	.word	0xe59f383c
    a998:	e5932000 	.word	0xe5932000
    a99c:	e1a03002 	.word	0xe1a03002
    a9a0:	e1a03083 	.word	0xe1a03083
    a9a4:	e0833002 	.word	0xe0833002
    a9a8:	e1a03103 	.word	0xe1a03103
    a9ac:	e0832002 	.word	0xe0832002
    a9b0:	e59f3810 	.word	0xe59f3810
    a9b4:	e5933000 	.word	0xe5933000
    a9b8:	e0823003 	.word	0xe0823003
    a9bc:	e1a01103 	.word	0xe1a01103
    a9c0:	e3e02033 	.word	0xe3e02033
    a9c4:	e59f371c 	.word	0xe59f371c
    a9c8:	e0823003 	.word	0xe0823003
    a9cc:	e0813003 	.word	0xe0813003
    a9d0:	e5933000 	.word	0xe5933000
    a9d4:	e1a00003 	.word	0xe1a00003
    a9d8:	ebfffb59 	.word	0xebfffb59
    a9dc:	e1a05000 	.word	0xe1a05000
    a9e0:	e1a06001 	.word	0xe1a06001
    a9e4:	e59f370c 	.word	0xe59f370c
    a9e8:	e5933000 	.word	0xe5933000
    a9ec:	e1a00003 	.word	0xe1a00003
    a9f0:	ebfffb53 	.word	0xebfffb53
    a9f4:	e1a03000 	.word	0xe1a03000
    a9f8:	e1a04001 	.word	0xe1a04001
    a9fc:	e1a00003 	.word	0xe1a00003
    aa00:	e1a01004 	.word	0xe1a01004
    aa04:	eb001eb6 	.word	0xeb001eb6
    aa08:	e1a03000 	.word	0xe1a03000
    aa0c:	e1a04001 	.word	0xe1a04001
    aa10:	e1a00005 	.word	0xe1a00005
    aa14:	e1a01006 	.word	0xe1a01006
    aa18:	e1a02003 	.word	0xe1a02003
    aa1c:	e1a03004 	.word	0xe1a03004
    aa20:	ebfffb77 	.word	0xebfffb77
    aa24:	e1a03000 	.word	0xe1a03000
    aa28:	e1a04001 	.word	0xe1a04001
    aa2c:	e1a00003 	.word	0xe1a00003
    aa30:	e1a01004 	.word	0xe1a01004
    aa34:	eb001e6a 	.word	0xeb001e6a
    aa38:	e1a03000 	.word	0xe1a03000
    aa3c:	e5873000 	.word	0xe5873000
    aa40:	e59f26a4 	.word	0xe59f26a4
    aa44:	e3a03001 	.word	0xe3a03001
    aa48:	e5823000 	.word	0xe5823000
    aa4c:	e59f3774 	.word	0xe59f3774
    aa50:	e5932000 	.word	0xe5932000
    aa54:	e1a03002 	.word	0xe1a03002
    aa58:	e1a03083 	.word	0xe1a03083
    aa5c:	e0833002 	.word	0xe0833002
    aa60:	e1a03103 	.word	0xe1a03103
    aa64:	e0832002 	.word	0xe0832002
    aa68:	e59f3768 	.word	0xe59f3768
    aa6c:	e5933000 	.word	0xe5933000
    aa70:	e0823003 	.word	0xe0823003
    aa74:	e2434001 	.word	0xe2434001
    aa78:	e59f3758 	.word	0xe59f3758
    aa7c:	e5932000 	.word	0xe5932000
    aa80:	e1a03002 	.word	0xe1a03002
    aa84:	e1a03083 	.word	0xe1a03083
    aa88:	e0833002 	.word	0xe0833002
    aa8c:	e1a03103 	.word	0xe1a03103
    aa90:	e0832002 	.word	0xe0832002
    aa94:	e59f372c 	.word	0xe59f372c
    aa98:	e5933000 	.word	0xe5933000
    aa9c:	e0823003 	.word	0xe0823003
    aaa0:	e1a02103 	.word	0xe1a02103
    aaa4:	e59f363c 	.word	0xe59f363c
    aaa8:	e0823003 	.word	0xe0823003
    aaac:	e5931000 	.word	0xe5931000
    aab0:	e59f3710 	.word	0xe59f3710
    aab4:	e5932000 	.word	0xe5932000
    aab8:	e1a03002 	.word	0xe1a03002
    aabc:	e1a03083 	.word	0xe1a03083
    aac0:	e0833002 	.word	0xe0833002
    aac4:	e1a03103 	.word	0xe1a03103
    aac8:	e0832002 	.word	0xe0832002
    aacc:	e59f3704 	.word	0xe59f3704
    aad0:	e5933000 	.word	0xe5933000
    aad4:	e0823003 	.word	0xe0823003
    aad8:	e2432001 	.word	0xe2432001
    aadc:	e59f36e0 	.word	0xe59f36e0
    aae0:	e7933102 	.word	0xe7933102
    aae4:	e1a00001 	.word	0xe1a00001
    aae8:	e1a01003 	.word	0xe1a01003
    aaec:	ebfffd7d 	.word	0xebfffd7d
    aaf0:	e1a03000 	.word	0xe1a03000
    aaf4:	e1a02003 	.word	0xe1a02003
    aaf8:	e59f36c4 	.word	0xe59f36c4
    aafc:	e7832104 	.word	0xe7832104
    ab00:	e59f36c0 	.word	0xe59f36c0
    ab04:	e5932000 	.word	0xe5932000
    ab08:	e1a03002 	.word	0xe1a03002
    ab0c:	e1a03083 	.word	0xe1a03083
    ab10:	e0833002 	.word	0xe0833002
    ab14:	e1a03103 	.word	0xe1a03103
    ab18:	e0832002 	.word	0xe0832002
    ab1c:	e59f36b4 	.word	0xe59f36b4
    ab20:	e5933000 	.word	0xe5933000
    ab24:	e0823003 	.word	0xe0823003
    ab28:	e2434001 	.word	0xe2434001
    ab2c:	e59f36a4 	.word	0xe59f36a4
    ab30:	e5932000 	.word	0xe5932000
    ab34:	e1a03002 	.word	0xe1a03002
    ab38:	e1a03083 	.word	0xe1a03083
    ab3c:	e0833002 	.word	0xe0833002
    ab40:	e1a03103 	.word	0xe1a03103
    ab44:	e0832002 	.word	0xe0832002
    ab48:	e59f3678 	.word	0xe59f3678
    ab4c:	e5933000 	.word	0xe5933000
    ab50:	e0823003 	.word	0xe0823003
    ab54:	e1a02103 	.word	0xe1a02103
    ab58:	e59f3588 	.word	0xe59f3588
    ab5c:	e0823003 	.word	0xe0823003
    ab60:	e5931000 	.word	0xe5931000
    ab64:	e59f365c 	.word	0xe59f365c
    ab68:	e5932000 	.word	0xe5932000
    ab6c:	e1a03002 	.word	0xe1a03002
    ab70:	e1a03083 	.word	0xe1a03083
    ab74:	e0833002 	.word	0xe0833002
    ab78:	e1a03103 	.word	0xe1a03103
    ab7c:	e0832002 	.word	0xe0832002
    ab80:	e59f3650 	.word	0xe59f3650
    ab84:	e5933000 	.word	0xe5933000
    ab88:	e0823003 	.word	0xe0823003
    ab8c:	e2432001 	.word	0xe2432001
    ab90:	e59f3634 	.word	0xe59f3634
    ab94:	e7933102 	.word	0xe7933102
    ab98:	e1a00001 	.word	0xe1a00001
    ab9c:	e1a01003 	.word	0xe1a01003
    aba0:	ebfffd50 	.word	0xebfffd50
    aba4:	e1a03000 	.word	0xe1a03000
    aba8:	e1a02003 	.word	0xe1a02003
    abac:	e59f3618 	.word	0xe59f3618
    abb0:	e7832104 	.word	0xe7832104
    abb4:	e59f361c 	.word	0xe59f361c
    abb8:	e5932000 	.word	0xe5932000
    abbc:	e1a03002 	.word	0xe1a03002
    abc0:	e1a03083 	.word	0xe1a03083
    abc4:	e0833002 	.word	0xe0833002
    abc8:	e1a03103 	.word	0xe1a03103
    abcc:	e0832002 	.word	0xe0832002
    abd0:	e59f35f0 	.word	0xe59f35f0
    abd4:	e5933000 	.word	0xe5933000
    abd8:	e0824003 	.word	0xe0824003
    abdc:	e59f35f4 	.word	0xe59f35f4
    abe0:	e5932000 	.word	0xe5932000
    abe4:	e1a03002 	.word	0xe1a03002
    abe8:	e1a03083 	.word	0xe1a03083
    abec:	e0833002 	.word	0xe0833002
    abf0:	e1a03103 	.word	0xe1a03103
    abf4:	e0832002 	.word	0xe0832002
    abf8:	e59f35c8 	.word	0xe59f35c8
    abfc:	e5933000 	.word	0xe5933000
    ac00:	e0823003 	.word	0xe0823003
    ac04:	e1a02103 	.word	0xe1a02103
    ac08:	e59f34d8 	.word	0xe59f34d8
    ac0c:	e0823003 	.word	0xe0823003
    ac10:	e5931000 	.word	0xe5931000
    ac14:	e59f35bc 	.word	0xe59f35bc
    ac18:	e5932000 	.word	0xe5932000
    ac1c:	e1a03002 	.word	0xe1a03002
    ac20:	e1a03083 	.word	0xe1a03083
    ac24:	e0833002 	.word	0xe0833002
    ac28:	e1a03103 	.word	0xe1a03103
    ac2c:	e0832002 	.word	0xe0832002
    ac30:	e59f3590 	.word	0xe59f3590
    ac34:	e5933000 	.word	0xe5933000
    ac38:	e0822003 	.word	0xe0822003
    ac3c:	e59f3580 	.word	0xe59f3580
    ac40:	e7933102 	.word	0xe7933102
    ac44:	e1a00001 	.word	0xe1a00001
    ac48:	e1a01003 	.word	0xe1a01003
    ac4c:	ebfffd25 	.word	0xebfffd25
    ac50:	e1a03000 	.word	0xe1a03000
    ac54:	e1a02003 	.word	0xe1a02003
    ac58:	e59f3564 	.word	0xe59f3564
    ac5c:	e7832104 	.word	0xe7832104
    ac60:	e59f3570 	.word	0xe59f3570
    ac64:	e5932000 	.word	0xe5932000
    ac68:	e1a03002 	.word	0xe1a03002
    ac6c:	e1a03083 	.word	0xe1a03083
    ac70:	e0833002 	.word	0xe0833002
    ac74:	e1a03103 	.word	0xe1a03103
    ac78:	e0832002 	.word	0xe0832002
    ac7c:	e59f3544 	.word	0xe59f3544
    ac80:	e5933000 	.word	0xe5933000
    ac84:	e0824003 	.word	0xe0824003
    ac88:	e59f3548 	.word	0xe59f3548
    ac8c:	e5932000 	.word	0xe5932000
    ac90:	e1a03002 	.word	0xe1a03002
    ac94:	e1a03083 	.word	0xe1a03083
    ac98:	e0833002 	.word	0xe0833002
    ac9c:	e1a03103 	.word	0xe1a03103
    aca0:	e0832002 	.word	0xe0832002
    aca4:	e59f351c 	.word	0xe59f351c
    aca8:	e5933000 	.word	0xe5933000
    acac:	e0823003 	.word	0xe0823003
    acb0:	e1a02103 	.word	0xe1a02103
    acb4:	e59f342c 	.word	0xe59f342c
    acb8:	e0823003 	.word	0xe0823003
    acbc:	e5931000 	.word	0xe5931000
    acc0:	e59f3510 	.word	0xe59f3510
    acc4:	e5932000 	.word	0xe5932000
    acc8:	e1a03002 	.word	0xe1a03002
    accc:	e1a03083 	.word	0xe1a03083
    acd0:	e0833002 	.word	0xe0833002
    acd4:	e1a03103 	.word	0xe1a03103
    acd8:	e0832002 	.word	0xe0832002
    acdc:	e59f34e4 	.word	0xe59f34e4
    ace0:	e5933000 	.word	0xe5933000
    ace4:	e0822003 	.word	0xe0822003
    ace8:	e59f34dc 	.word	0xe59f34dc
    acec:	e7933102 	.word	0xe7933102
    acf0:	e1a00001 	.word	0xe1a00001
    acf4:	e1a01003 	.word	0xe1a01003
    acf8:	ebfffcfa 	.word	0xebfffcfa
    acfc:	e1a03000 	.word	0xe1a03000
    ad00:	e1a02003 	.word	0xe1a02003
    ad04:	e59f34c0 	.word	0xe59f34c0
    ad08:	e7832104 	.word	0xe7832104
    ad0c:	e59f33e0 	.word	0xe59f33e0
    ad10:	e5933000 	.word	0xe5933000
    ad14:	e2432001 	.word	0xe2432001
    ad18:	e59f33d4 	.word	0xe59f33d4
    ad1c:	e5832000 	.word	0xe5832000
    ad20:	e59f34b0 	.word	0xe59f34b0
    ad24:	e5932000 	.word	0xe5932000
    ad28:	e59f33c0 	.word	0xe59f33c0
    ad2c:	e5933000 	.word	0xe5933000
    ad30:	e0822003 	.word	0xe0822003
    ad34:	e59f349c 	.word	0xe59f349c
    ad38:	e5832000 	.word	0xe5832000
    ad3c:	e59f33b0 	.word	0xe59f33b0
    ad40:	e5933000 	.word	0xe5933000
    ad44:	e3530000 	.word	0xe3530000
    ad48:	cafffeb8 	.word	0xcafffeb8
    ad4c:	e59f3474 	.word	0xe59f3474
    ad50:	e5934000 	.word	0xe5934000
    ad54:	e59f346c 	.word	0xe59f346c
    ad58:	e5933000 	.word	0xe5933000
    ad5c:	e2833001 	.word	0xe2833001
    ad60:	e1a00003 	.word	0xe1a00003
    ad64:	ebfffca8 	.word	0xebfffca8
    ad68:	e1a02000 	.word	0xe1a02000
    ad6c:	e59f3388 	.word	0xe59f3388
    ad70:	e7832104 	.word	0xe7832104
    ad74:	e59f344c 	.word	0xe59f344c
    ad78:	e5934000 	.word	0xe5934000
    ad7c:	e59f3444 	.word	0xe59f3444
    ad80:	e5933000 	.word	0xe5933000
    ad84:	e1a00003 	.word	0xe1a00003
    ad88:	ebfffc9f 	.word	0xebfffc9f
    ad8c:	e1a02000 	.word	0xe1a02000
    ad90:	e59f3368 	.word	0xe59f3368
    ad94:	e7832104 	.word	0xe7832104
    ad98:	e59f3428 	.word	0xe59f3428
    ad9c:	e5933000 	.word	0xe5933000
    ada0:	e2832001 	.word	0xe2832001
    ada4:	e59f341c 	.word	0xe59f341c
    ada8:	e5832000 	.word	0xe5832000
    adac:	e59f3414 	.word	0xe59f3414
    adb0:	e5932000 	.word	0xe5932000
    adb4:	e59f33b8 	.word	0xe59f33b8
    adb8:	e5933000 	.word	0xe5933000
    adbc:	e1520003 	.word	0xe1520003
    adc0:	dafffe5b 	.word	0xdafffe5b
    adc4:	e59f23ec 	.word	0xe59f23ec
    adc8:	e59f33d8 	.word	0xe59f33d8
    adcc:	e5823038 	.word	0xe5823038
    add0:	e59f2390 	.word	0xe59f2390
    add4:	e59f3328 	.word	0xe59f3328
    add8:	e5823000 	.word	0xe5823000
    addc:	e59f3384 	.word	0xe59f3384
    ade0:	e5932000 	.word	0xe5932000
    ade4:	e59f33b8 	.word	0xe59f33b8
    ade8:	e5832000 	.word	0xe5832000
    adec:	e59f33b0 	.word	0xe59f33b0
    adf0:	e5932000 	.word	0xe5932000
    adf4:	e59f33a4 	.word	0xe59f33a4
    adf8:	e5832000 	.word	0xe5832000
    adfc:	e59f339c 	.word	0xe59f339c
    ae00:	e5932000 	.word	0xe5932000
    ae04:	e59f33b4 	.word	0xe59f33b4
    ae08:	e5832000 	.word	0xe5832000
    ae0c:	ea00082f 	.word	0xea00082f
    ae10:	e59f32c8 	.word	0xe59f32c8
    ae14:	e5933000 	.word	0xe5933000
    ae18:	e59b0008 	.word	0xe59b0008
    ae1c:	e1a01003 	.word	0xe1a01003
    ae20:	ebfffc07 	.word	0xebfffc07
    ae24:	e1a03000 	.word	0xe1a03000
    ae28:	e1a02003 	.word	0xe1a02003
    ae2c:	e59f339c 	.word	0xe59f339c
    ae30:	e5832000 	.word	0xe5832000
    ae34:	e59f3384 	.word	0xe59f3384
    ae38:	e5933000 	.word	0xe5933000
    ae3c:	e1a00003 	.word	0xe1a00003
    ae40:	e59f1360 	.word	0xe59f1360
    ae44:	ebfffd67 	.word	0xebfffd67
    ae48:	e1a03000 	.word	0xe1a03000
    ae4c:	e3530000 	.word	0xe3530000
    ae50:	ba000000 	.word	0xba000000
    ae54:	ea000008 	.word	0xea000008
    ae58:	e59f3370 	.word	0xe59f3370
    ae5c:	e5933000 	.word	0xe5933000
    ae60:	e1a00003 	.word	0xe1a00003
    ae64:	e59f133c 	.word	0xe59f133c
    ae68:	ebfffd5e 	.word	0xebfffd5e
    ae6c:	e1a03000 	.word	0xe1a03000
    ae70:	e3530000 	.word	0xe3530000
    ae74:	ba000000 	.word	0xba000000
    ae78:	eaffffff 	.word	0xeaffffff
    ae7c:	e59f2284 	.word	0xe59f2284
    ae80:	e59f3284 	.word	0xe59f3284
    ae84:	e5823000 	.word	0xe5823000
    ae88:	e59f3278 	.word	0xe59f3278
    ae8c:	e5933000 	.word	0xe5933000
    ae90:	e1a00003 	.word	0xe1a00003
    ae94:	e59f1274 	.word	0xe59f1274
    ae98:	ebfffcf8 	.word	0xebfffcf8
    ae9c:	e1a03000 	.word	0xe1a03000
    aea0:	e1a02003 	.word	0xe1a02003
    aea4:	e59f3268 	.word	0xe59f3268
    aea8:	e5832000 	.word	0xe5832000
    aeac:	e59f3260 	.word	0xe59f3260
    aeb0:	e5933000 	.word	0xe5933000
    aeb4:	e1a00003 	.word	0xe1a00003
    aeb8:	e59b1004 	.word	0xe59b1004
    aebc:	ebfffc89 	.word	0xebfffc89
    aec0:	e1a03000 	.word	0xe1a03000
    aec4:	e1a02003 	.word	0xe1a02003
    aec8:	e59f3248 	.word	0xe59f3248
    aecc:	e5832000 	.word	0xe5832000
    aed0:	e59f323c 	.word	0xe59f323c
    aed4:	e5933000 	.word	0xe5933000
    aed8:	e1a00003 	.word	0xe1a00003
    aedc:	e51b102c 	.word	0xe51b102c
    aee0:	ebfffc80 	.word	0xebfffc80
    aee4:	e1a03000 	.word	0xe1a03000
    aee8:	e1a02003 	.word	0xe1a02003
    aeec:	e59f3228 	.word	0xe59f3228
    aef0:	e5832000 	.word	0xe5832000
    aef4:	e59f321c 	.word	0xe59f321c
    aef8:	e5933000 	.word	0xe5933000
    aefc:	e1a00003 	.word	0xe1a00003
    af00:	ebfffa0f 	.word	0xebfffa0f
    af04:	e1a03000 	.word	0xe1a03000
    af08:	e1a04001 	.word	0xe1a04001
    af0c:	e1a00003 	.word	0xe1a00003
    af10:	e1a01004 	.word	0xe1a01004
    af14:	eb001d75 	.word	0xeb001d75
    af18:	e1a03000 	.word	0xe1a03000
    af1c:	e1a04001 	.word	0xe1a04001
    af20:	e1a00003 	.word	0xe1a00003
    af24:	e1a01004 	.word	0xe1a01004
    af28:	eb001d2d 	.word	0xeb001d2d
    af2c:	e1a02000 	.word	0xe1a02000
    af30:	e59f31e8 	.word	0xe59f31e8
    af34:	e5832000 	.word	0xe5832000
    af38:	e59f31dc 	.word	0xe59f31dc
    af3c:	e5933000 	.word	0xe5933000
    af40:	e1a00003 	.word	0xe1a00003
    af44:	ebfff9fe 	.word	0xebfff9fe
    af48:	e1a03000 	.word	0xe1a03000
    af4c:	e1a04001 	.word	0xe1a04001
    af50:	e1a00003 	.word	0xe1a00003
    af54:	e1a01004 	.word	0xe1a01004
    af58:	eb001d64 	.word	0xeb001d64
    af5c:	e1a03000 	.word	0xe1a03000
    af60:	e1a04001 	.word	0xe1a04001
    af64:	e1a00003 	.word	0xe1a00003
    af68:	e1a01004 	.word	0xe1a01004
    af6c:	eb001d1c 	.word	0xeb001d1c
    af70:	e1a02000 	.word	0xe1a02000
    af74:	e59f31e0 	.word	0xe59f31e0
    af78:	e5832000 	.word	0xe5832000
    af7c:	e59f3194 	.word	0xe59f3194
    af80:	e5933000 	.word	0xe5933000
    af84:	e1a00003 	.word	0xe1a00003
    af88:	ebfff9ed 	.word	0xebfff9ed
    af8c:	e1a03000 	.word	0xe1a03000
    af90:	e1a04001 	.word	0xe1a04001
    af94:	e1a00003 	.word	0xe1a00003
    af98:	e1a01004 	.word	0xe1a01004
    af9c:	eb001d3b 	.word	0xeb001d3b
    afa0:	e1a03000 	.word	0xe1a03000
    afa4:	e1a04001 	.word	0xe1a04001
    afa8:	e1a00003 	.word	0xe1a00003
    afac:	e1a01004 	.word	0xe1a01004
    afb0:	eb001d0b 	.word	0xeb001d0b
    afb4:	e1a02000 	.word	0xe1a02000
    afb8:	e59f3164 	.word	0xe59f3164
    afbc:	e5832000 	.word	0xe5832000
    afc0:	e59f3154 	.word	0xe59f3154
    afc4:	e5933000 	.word	0xe5933000
    afc8:	e1a00003 	.word	0xe1a00003
    afcc:	ebfff9dc 	.word	0xebfff9dc
    afd0:	e1a03000 	.word	0xe1a03000
    afd4:	e1a04001 	.word	0xe1a04001
    afd8:	e1a00003 	.word	0xe1a00003
    afdc:	e1a01004 	.word	0xe1a01004
    afe0:	eb001d2a 	.word	0xeb001d2a
    afe4:	e1a03000 	.word	0xe1a03000
    afe8:	e1a04001 	.word	0xe1a04001
    afec:	e1a00003 	.word	0xe1a00003
    aff0:	e1a01004 	.word	0xe1a01004
    aff4:	eb001cfa 	.word	0xeb001cfa
    aff8:	e1a02000 	.word	0xe1a02000
    affc:	e59f3154 	.word	0xe59f3154
    b000:	e5832000 	.word	0xe5832000
    b004:	e59f3150 	.word	0xe59f3150
    b008:	e5932000 	.word	0xe5932000
    b00c:	e59f3148 	.word	0xe59f3148
    b010:	e5933000 	.word	0xe5933000
    b014:	e1a00002 	.word	0xe1a00002
    b018:	e1a01003 	.word	0xe1a01003
    b01c:	ebfffc31 	.word	0xebfffc31
    b020:	e1a03000 	.word	0xe1a03000
    b024:	e1a02003 	.word	0xe1a02003
    b028:	e59f311c 	.word	0xe59f311c
    b02c:	e5832000 	.word	0xe5832000
    b030:	e59f3120 	.word	0xe59f3120
    b034:	e5932000 	.word	0xe5932000
    b038:	e59f3118 	.word	0xe59f3118
    b03c:	e5933000 	.word	0xe5933000
    b040:	e1a00002 	.word	0xe1a00002
    b044:	e1a01003 	.word	0xe1a01003
    b048:	ebfffc26 	.word	0xebfffc26
    b04c:	e1a03000 	.word	0xe1a03000
    b050:	e1a02003 	.word	0xe1a02003
    b054:	e59f30e8 	.word	0xe59f30e8
    b058:	e5832000 	.word	0xe5832000
    b05c:	e59f30bc 	.word	0xe59f30bc
    b060:	e5932000 	.word	0xe5932000
    b064:	e59f3100 	.word	0xe59f3100
    b068:	e5832004 	.word	0xe5832004
    b06c:	e59f30b0 	.word	0xe59f30b0
    b070:	e5932000 	.word	0xe5932000
    b074:	e59f30f4 	.word	0xe59f30f4
    b078:	e5832004 	.word	0xe5832004
    b07c:	e59f311c 	.word	0xe59f311c
    b080:	e5933000 	.word	0xe5933000
    b084:	e51b0028 	.word	0xe51b0028
    b088:	e1a01003 	.word	0xe1a01003
    b08c:	ebfffcd7 	.word	0xebfffcd7
    b090:	e1a03000 	.word	0xe1a03000
    b094:	e3530000 	.word	0xe3530000
    b098:	1a00004f 	.word	0x1a00004f
    b09c:	e59f3100 	.word	0xe59f3100
    b0a0:	e5933000 	.word	0xe5933000
    b0a4:	e51b002c 	.word	0xe51b002c
    b0a8:	e1a01003 	.word	0xe1a01003
    b0ac:	ebfffccf 	.word	0xebfffccf
    b0b0:	e1a03000 	.word	0xe1a03000
    b0b4:	e3530000 	.word	0xe3530000
    b0b8:	1a000047 	.word	0x1a000047
    b0bc:	ea000196 	.word	0xea000196
    b0c0:	40001514 	.word	0x40001514
    b0c4:	3f800000 	.word	0x3f800000
    b0c8:	40001264 	.word	0x40001264
    b0cc:	45c75119 	.word	0x45c75119
    b0d0:	40001260 	.word	0x40001260
    b0d4:	45c6a605 	.word	0x45c6a605
    b0d8:	45c7199a 	.word	0x45c7199a
    b0dc:	40001248 	.word	0x40001248
    b0e0:	40001240 	.word	0x40001240
    b0e4:	44faa000 	.word	0x44faa000
    b0e8:	40001618 	.word	0x40001618
    b0ec:	40001e14 	.word	0x40001e14
    b0f0:	40001e10 	.word	0x40001e10
    b0f4:	40001e0c 	.word	0x40001e0c
    b0f8:	4000123c 	.word	0x4000123c
    b0fc:	4000157c 	.word	0x4000157c
    b100:	40001548 	.word	0x40001548
    b104:	c47a0000 	.word	0xc47a0000
    b108:	4000126c 	.word	0x4000126c
    b10c:	40490fdb 	.word	0x40490fdb
    b110:	43340000 	.word	0x43340000
    b114:	40001268 	.word	0x40001268
    b118:	40001224 	.word	0x40001224
    b11c:	40001220 	.word	0x40001220
    b120:	4000121c 	.word	0x4000121c
    b124:	40001214 	.word	0x40001214
    b128:	400011fc 	.word	0x400011fc
    b12c:	40001200 	.word	0x40001200
    b130:	4000124c 	.word	0x4000124c
    b134:	40001244 	.word	0x40001244
    b138:	40001204 	.word	0x40001204
    b13c:	400011f0 	.word	0x400011f0
    b140:	40001258 	.word	0x40001258
    b144:	40001208 	.word	0x40001208
    b148:	40001254 	.word	0x40001254
    b14c:	4000120c 	.word	0x4000120c
    b150:	400011e4 	.word	0x400011e4
    b154:	40001250 	.word	0x40001250
    b158:	40001210 	.word	0x40001210
    b15c:	40001218 	.word	0x40001218
    b160:	400011e8 	.word	0x400011e8
    b164:	400011e0 	.word	0x400011e0
    b168:	4000122c 	.word	0x4000122c
    b16c:	400015e4 	.word	0x400015e4
    b170:	400015b0 	.word	0x400015b0
    b174:	40001e20 	.word	0x40001e20
    b178:	4000125c 	.word	0x4000125c
    b17c:	400011ec 	.word	0x400011ec
    b180:	400011c8 	.word	0x400011c8
    b184:	400011cc 	.word	0x400011cc
    b188:	400011d0 	.word	0x400011d0
    b18c:	400011d4 	.word	0x400011d4
    b190:	400011dc 	.word	0x400011dc
    b194:	400011d8 	.word	0x400011d8
    b198:	40001e08 	.word	0x40001e08
    b19c:	40001e04 	.word	0x40001e04
    b1a0:	40001234 	.word	0x40001234
    b1a4:	40001230 	.word	0x40001230
    b1a8:	00000000 	.word	0x00000000
    b1ac:	400011f8 	.word	0x400011f8
    b1b0:	40000228 	.word	0x40000228
    b1b4:	400011f4 	.word	0x400011f4
    b1b8:	40001270 	.word	0x40001270
    b1bc:	400018bc 	.word	0x400018bc
    b1c0:	40001238 	.word	0x40001238
    b1c4:	4000022c 	.word	0x4000022c
    b1c8:	40001e1c 	.word	0x40001e1c
    b1cc:	400004d0 	.word	0x400004d0
    b1d0:	40001228 	.word	0x40001228
    b1d4:	40001b60 	.word	0x40001b60
    b1d8:	40001e18 	.word	0x40001e18
    b1dc:	e51f30a4 	.word	0xe51f30a4
    b1e0:	e5934000 	.word	0xe5934000
    b1e4:	e51f3098 	.word	0xe51f3098
    b1e8:	e5932000 	.word	0xe5932000
    b1ec:	e51f30a8 	.word	0xe51f30a8
    b1f0:	e5933000 	.word	0xe5933000
    b1f4:	e1a00002 	.word	0xe1a00002
    b1f8:	e1a01003 	.word	0xe1a01003
    b1fc:	ebfffbb9 	.word	0xebfffbb9
    b200:	e1a03000 	.word	0xe1a03000
    b204:	e1a00004 	.word	0xe1a00004
    b208:	e1a01003 	.word	0xe1a01003
    b20c:	ebfffb0c 	.word	0xebfffb0c
    b210:	e1a03000 	.word	0xe1a03000
    b214:	e1a00003 	.word	0xe1a00003
    b218:	ebfff949 	.word	0xebfff949
    b21c:	e1a03000 	.word	0xe1a03000
    b220:	e1a04001 	.word	0xe1a04001
    b224:	e1a00003 	.word	0xe1a00003
    b228:	e1a01004 	.word	0xe1a01004
    b22c:	eb001cac 	.word	0xeb001cac
    b230:	e1a03000 	.word	0xe1a03000
    b234:	e1a04001 	.word	0xe1a04001
    b238:	e1a00003 	.word	0xe1a00003
    b23c:	e1a01004 	.word	0xe1a01004
    b240:	eb001c67 	.word	0xeb001c67
    b244:	e1a02000 	.word	0xe1a02000
    b248:	e51f3118 	.word	0xe51f3118
    b24c:	e5832000 	.word	0xe5832000
    b250:	e51f3120 	.word	0xe51f3120
    b254:	e5933000 	.word	0xe5933000
    b258:	e1a00003 	.word	0xe1a00003
    b25c:	e51b1028 	.word	0xe51b1028
    b260:	ebfffba0 	.word	0xebfffba0
    b264:	e1a03000 	.word	0xe1a03000
    b268:	e1a02003 	.word	0xe1a02003
    b26c:	e51f3148 	.word	0xe51f3148
    b270:	e5832000 	.word	0xe5832000
    b274:	e51f3150 	.word	0xe51f3150
    b278:	e5932000 	.word	0xe5932000
    b27c:	e51f3144 	.word	0xe51f3144
    b280:	e5933000 	.word	0xe5933000
    b284:	e1a00002 	.word	0xe1a00002
    b288:	e1a01003 	.word	0xe1a01003
    b28c:	ebfffaed 	.word	0xebfffaed
    b290:	e1a03000 	.word	0xe1a03000
    b294:	e1a04003 	.word	0xe1a04003
    b298:	e51f3174 	.word	0xe51f3174
    b29c:	e5932000 	.word	0xe5932000
    b2a0:	e51f3160 	.word	0xe51f3160
    b2a4:	e5933000 	.word	0xe5933000
    b2a8:	e1a00002 	.word	0xe1a00002
    b2ac:	e1a01003 	.word	0xe1a01003
    b2b0:	ebfffae4 	.word	0xebfffae4
    b2b4:	e1a03000 	.word	0xe1a03000
    b2b8:	e1a00004 	.word	0xe1a00004
    b2bc:	e1a01003 	.word	0xe1a01003
    b2c0:	ebfffbee 	.word	0xebfffbee
    b2c4:	e1a03000 	.word	0xe1a03000
    b2c8:	e1a05003 	.word	0xe1a05003
    b2cc:	e51f31a8 	.word	0xe51f31a8
    b2d0:	e5932000 	.word	0xe5932000
    b2d4:	e51f319c 	.word	0xe51f319c
    b2d8:	e5933000 	.word	0xe5933000
    b2dc:	e1a00002 	.word	0xe1a00002
    b2e0:	e1a01003 	.word	0xe1a01003
    b2e4:	ebfffad7 	.word	0xebfffad7
    b2e8:	e1a03000 	.word	0xe1a03000
    b2ec:	e1a04003 	.word	0xe1a04003
    b2f0:	e51f31cc 	.word	0xe51f31cc
    b2f4:	e5932000 	.word	0xe5932000
    b2f8:	e51f31b8 	.word	0xe51f31b8
    b2fc:	e5933000 	.word	0xe5933000
    b300:	e1a00002 	.word	0xe1a00002
    b304:	e1a01003 	.word	0xe1a01003
    b308:	ebffface 	.word	0xebffface
    b30c:	e1a03000 	.word	0xe1a03000
    b310:	e1a00004 	.word	0xe1a00004
    b314:	e1a01003 	.word	0xe1a01003
    b318:	ebfffbd8 	.word	0xebfffbd8
    b31c:	e1a03000 	.word	0xe1a03000
    b320:	e1a00005 	.word	0xe1a00005
    b324:	e1a01003 	.word	0xe1a01003
    b328:	ebfffb6e 	.word	0xebfffb6e
    b32c:	e1a03000 	.word	0xe1a03000
    b330:	e1a02003 	.word	0xe1a02003
    b334:	e51f3214 	.word	0xe51f3214
    b338:	e5832000 	.word	0xe5832000
    b33c:	e51f31e8 	.word	0xe51f31e8
    b340:	e5933000 	.word	0xe5933000
    b344:	e1a00003 	.word	0xe1a00003
    b348:	ebfff8fd 	.word	0xebfff8fd
    b34c:	e1a05000 	.word	0xe1a05000
    b350:	e1a06001 	.word	0xe1a06001
    b354:	e51f3234 	.word	0xe51f3234
    b358:	e5932000 	.word	0xe5932000
    b35c:	e51f3220 	.word	0xe51f3220
    b360:	e5933000 	.word	0xe5933000
    b364:	e1a00002 	.word	0xe1a00002
    b368:	e1a01003 	.word	0xe1a01003
    b36c:	ebfffb5d 	.word	0xebfffb5d
    b370:	e1a03000 	.word	0xe1a03000
    b374:	e1a02003 	.word	0xe1a02003
    b378:	e51f3234 	.word	0xe51f3234
    b37c:	e5933000 	.word	0xe5933000
    b380:	e1a00002 	.word	0xe1a00002
    b384:	e1a01003 	.word	0xe1a01003
    b388:	ebfffaae 	.word	0xebfffaae
    b38c:	e1a03000 	.word	0xe1a03000
    b390:	e1a00003 	.word	0xe1a00003
    b394:	ebfff8ea 	.word	0xebfff8ea
    b398:	e1a03000 	.word	0xe1a03000
    b39c:	e1a04001 	.word	0xe1a04001
    b3a0:	e1a00003 	.word	0xe1a00003
    b3a4:	e1a01004 	.word	0xe1a01004
    b3a8:	eb001c4d 	.word	0xeb001c4d
    b3ac:	e1a03000 	.word	0xe1a03000
    b3b0:	e1a04001 	.word	0xe1a04001
    b3b4:	e1a00005 	.word	0xe1a00005
    b3b8:	e1a01006 	.word	0xe1a01006
    b3bc:	e1a02003 	.word	0xe1a02003
    b3c0:	e1a03004 	.word	0xe1a03004
    b3c4:	ebfff9b2 	.word	0xebfff9b2
    b3c8:	e1a03000 	.word	0xe1a03000
    b3cc:	e1a04001 	.word	0xe1a04001
    b3d0:	e1a00003 	.word	0xe1a00003
    b3d4:	e1a01004 	.word	0xe1a01004
    b3d8:	eb001c01 	.word	0xeb001c01
    b3dc:	e1a02000 	.word	0xe1a02000
    b3e0:	e51f323c 	.word	0xe51f323c
    b3e4:	e5832000 	.word	0xe5832000
    b3e8:	e51f3244 	.word	0xe51f3244
    b3ec:	e5932000 	.word	0xe5932000
    b3f0:	e51f324c 	.word	0xe51f324c
    b3f4:	e5933000 	.word	0xe5933000
    b3f8:	e1a00002 	.word	0xe1a00002
    b3fc:	e1a01003 	.word	0xe1a01003
    b400:	ebfffb38 	.word	0xebfffb38
    b404:	e1a03000 	.word	0xe1a03000
    b408:	e1a00003 	.word	0xe1a00003
    b40c:	ebfff8cc 	.word	0xebfff8cc
    b410:	e1a03000 	.word	0xe1a03000
    b414:	e1a04001 	.word	0xe1a04001
    b418:	e3a005ff 	.word	0xe3a005ff
    b41c:	e2800603 	.word	0xe2800603
    b420:	e3a01000 	.word	0xe3a01000
    b424:	e1a02003 	.word	0xe1a02003
    b428:	e1a03004 	.word	0xe1a03004
    b42c:	ebfff7ea 	.word	0xebfff7ea
    b430:	e1a03000 	.word	0xe1a03000
    b434:	e1a04001 	.word	0xe1a04001
    b438:	e1a00003 	.word	0xe1a00003
    b43c:	e1a01004 	.word	0xe1a01004
    b440:	eb001c27 	.word	0xeb001c27
    b444:	e1a03000 	.word	0xe1a03000
    b448:	e1a04001 	.word	0xe1a04001
    b44c:	e1a00003 	.word	0xe1a00003
    b450:	e1a01004 	.word	0xe1a01004
    b454:	eb001be2 	.word	0xeb001be2
    b458:	e1a02000 	.word	0xe1a02000
    b45c:	e51f32b0 	.word	0xe51f32b0
    b460:	e5832000 	.word	0xe5832000
    b464:	e51b0028 	.word	0xe51b0028
    b468:	e51b1028 	.word	0xe51b1028
    b46c:	ebfffb1d 	.word	0xebfffb1d
    b470:	e1a03000 	.word	0xe1a03000
    b474:	e1a00003 	.word	0xe1a00003
    b478:	ebfff8b1 	.word	0xebfff8b1
    b47c:	e1a05000 	.word	0xe1a05000
    b480:	e1a06001 	.word	0xe1a06001
    b484:	e51f3360 	.word	0xe51f3360
    b488:	e5933000 	.word	0xe5933000
    b48c:	e1a00003 	.word	0xe1a00003
    b490:	ebfff8ab 	.word	0xebfff8ab
    b494:	e1a03000 	.word	0xe1a03000
    b498:	e1a04001 	.word	0xe1a04001
    b49c:	e1a00003 	.word	0xe1a00003
    b4a0:	e1a01004 	.word	0xe1a01004
    b4a4:	e1a02003 	.word	0xe1a02003
    b4a8:	e1a03004 	.word	0xe1a03004
    b4ac:	ebfff7cb 	.word	0xebfff7cb
    b4b0:	e1a03000 	.word	0xe1a03000
    b4b4:	e1a04001 	.word	0xe1a04001
    b4b8:	e1a00005 	.word	0xe1a00005
    b4bc:	e1a01006 	.word	0xe1a01006
    b4c0:	e1a02003 	.word	0xe1a02003
    b4c4:	e1a03004 	.word	0xe1a03004
    b4c8:	ebfff7c4 	.word	0xebfff7c4
    b4cc:	e1a03000 	.word	0xe1a03000
    b4d0:	e1a04001 	.word	0xe1a04001
    b4d4:	e1a05003 	.word	0xe1a05003
    b4d8:	e1a06004 	.word	0xe1a06004
    b4dc:	e51f33b4 	.word	0xe51f33b4
    b4e0:	e5934000 	.word	0xe5934000
    b4e4:	e51f33b8 	.word	0xe51f33b8
    b4e8:	e5932000 	.word	0xe5932000
    b4ec:	e51f33a8 	.word	0xe51f33a8
    b4f0:	e5933000 	.word	0xe5933000
    b4f4:	e1a00002 	.word	0xe1a00002
    b4f8:	e1a01003 	.word	0xe1a01003
    b4fc:	ebfffaf9 	.word	0xebfffaf9
    b500:	e1a03000 	.word	0xe1a03000
    b504:	e1a00004 	.word	0xe1a00004
    b508:	e1a01003 	.word	0xe1a01003
    b50c:	ebfffa4c 	.word	0xebfffa4c
    b510:	e1a03000 	.word	0xe1a03000
    b514:	e1a04003 	.word	0xe1a04003
    b518:	e51f33e8 	.word	0xe51f33e8
    b51c:	e5932000 	.word	0xe5932000
    b520:	e51f33f0 	.word	0xe51f33f0
    b524:	e5933000 	.word	0xe5933000
    b528:	e1a00002 	.word	0xe1a00002
    b52c:	e1a01003 	.word	0xe1a01003
    b530:	ebfffaec 	.word	0xebfffaec
    b534:	e1a03000 	.word	0xe1a03000
    b538:	e1a00004 	.word	0xe1a00004
    b53c:	e1a01003 	.word	0xe1a01003
    b540:	ebfffb4e 	.word	0xebfffb4e
    b544:	e1a03000 	.word	0xe1a03000
    b548:	e1a00003 	.word	0xe1a00003
    b54c:	ebfff87c 	.word	0xebfff87c
    b550:	e1a03000 	.word	0xe1a03000
    b554:	e1a04001 	.word	0xe1a04001
    b558:	e1a00005 	.word	0xe1a00005
    b55c:	e1a01006 	.word	0xe1a01006
    b560:	e1a02003 	.word	0xe1a02003
    b564:	e1a03004 	.word	0xe1a03004
    b568:	ebfff79c 	.word	0xebfff79c
    b56c:	e1a03000 	.word	0xe1a03000
    b570:	e1a04001 	.word	0xe1a04001
    b574:	e1a00003 	.word	0xe1a00003
    b578:	e1a01004 	.word	0xe1a01004
    b57c:	eb001b98 	.word	0xeb001b98
    b580:	e1a02000 	.word	0xe1a02000
    b584:	e51f3450 	.word	0xe51f3450
    b588:	e5832000 	.word	0xe5832000
    b58c:	e51f3458 	.word	0xe51f3458
    b590:	e5933000 	.word	0xe5933000
    b594:	e1a00003 	.word	0xe1a00003
    b598:	ebfff869 	.word	0xebfff869
    b59c:	e1a03000 	.word	0xe1a03000
    b5a0:	e1a04001 	.word	0xe1a04001
    b5a4:	e1a00003 	.word	0xe1a00003
    b5a8:	e1a01004 	.word	0xe1a01004
    b5ac:	eb001bcc 	.word	0xeb001bcc
    b5b0:	e1a03000 	.word	0xe1a03000
    b5b4:	e1a04001 	.word	0xe1a04001
    b5b8:	e1a00003 	.word	0xe1a00003
    b5bc:	e1a01004 	.word	0xe1a01004
    b5c0:	eb001b87 	.word	0xeb001b87
    b5c4:	e1a02000 	.word	0xe1a02000
    b5c8:	e51f3454 	.word	0xe51f3454
    b5cc:	e5832000 	.word	0xe5832000
    b5d0:	e51f3498 	.word	0xe51f3498
    b5d4:	e5932000 	.word	0xe5932000
    b5d8:	e51f349c 	.word	0xe51f349c
    b5dc:	e5933000 	.word	0xe5933000
    b5e0:	e1a00002 	.word	0xe1a00002
    b5e4:	e1a01003 	.word	0xe1a01003
    b5e8:	ebfffabe 	.word	0xebfffabe
    b5ec:	e1a03000 	.word	0xe1a03000
    b5f0:	e1a04003 	.word	0xe1a04003
    b5f4:	e51f34b4 	.word	0xe51f34b4
    b5f8:	e5932000 	.word	0xe5932000
    b5fc:	e51f34b8 	.word	0xe51f34b8
    b600:	e5933000 	.word	0xe5933000
    b604:	e1a00002 	.word	0xe1a00002
    b608:	e1a01003 	.word	0xe1a01003
    b60c:	ebfffab5 	.word	0xebfffab5
    b610:	e1a03000 	.word	0xe1a03000
    b614:	e1a00004 	.word	0xe1a00004
    b618:	e1a01003 	.word	0xe1a01003
    b61c:	ebfffa09 	.word	0xebfffa09
    b620:	e1a03000 	.word	0xe1a03000
    b624:	e1a00003 	.word	0xe1a00003
    b628:	ebfff845 	.word	0xebfff845
    b62c:	e1a03000 	.word	0xe1a03000
    b630:	e1a04001 	.word	0xe1a04001
    b634:	e1a00003 	.word	0xe1a00003
    b638:	e1a01004 	.word	0xe1a01004
    b63c:	eb001ba8 	.word	0xeb001ba8
    b640:	e1a03000 	.word	0xe1a03000
    b644:	e1a04001 	.word	0xe1a04001
    b648:	e1a00003 	.word	0xe1a00003
    b64c:	e1a01004 	.word	0xe1a01004
    b650:	eb001b63 	.word	0xeb001b63
    b654:	e1a02000 	.word	0xe1a02000
    b658:	e51f3500 	.word	0xe51f3500
    b65c:	e5832000 	.word	0xe5832000
    b660:	e51f3508 	.word	0xe51f3508
    b664:	e5933000 	.word	0xe5933000
    b668:	e1a00003 	.word	0xe1a00003
    b66c:	e51b1028 	.word	0xe51b1028
    b670:	ebfff9f4 	.word	0xebfff9f4
    b674:	e1a03000 	.word	0xe1a03000
    b678:	e1a02003 	.word	0xe1a02003
    b67c:	e51f3508 	.word	0xe51f3508
    b680:	e5933000 	.word	0xe5933000
    b684:	e1a00002 	.word	0xe1a00002
    b688:	e1a01003 	.word	0xe1a01003
    b68c:	ebfffafb 	.word	0xebfffafb
    b690:	e1a03000 	.word	0xe1a03000
    b694:	e1a02003 	.word	0xe1a02003
    b698:	e51f3550 	.word	0xe51f3550
    b69c:	e5832000 	.word	0xe5832000
    b6a0:	e51f3554 	.word	0xe51f3554
    b6a4:	e5932000 	.word	0xe5932000
    b6a8:	e51f3558 	.word	0xe51f3558
    b6ac:	e5933000 	.word	0xe5933000
    b6b0:	e1a00002 	.word	0xe1a00002
    b6b4:	e1a01003 	.word	0xe1a01003
    b6b8:	ebfffa8a 	.word	0xebfffa8a
    b6bc:	e1a03000 	.word	0xe1a03000
    b6c0:	e1a02003 	.word	0xe1a02003
    b6c4:	e51f3570 	.word	0xe51f3570
    b6c8:	e5933000 	.word	0xe5933000
    b6cc:	e1a00002 	.word	0xe1a00002
    b6d0:	e1a01003 	.word	0xe1a01003
    b6d4:	ebfffa83 	.word	0xebfffa83
    b6d8:	e1a03000 	.word	0xe1a03000
    b6dc:	e1a04003 	.word	0xe1a04003
    b6e0:	e51f356c 	.word	0xe51f356c
    b6e4:	e5932000 	.word	0xe5932000
    b6e8:	e51f3590 	.word	0xe51f3590
    b6ec:	e5933000 	.word	0xe5933000
    b6f0:	e1a00002 	.word	0xe1a00002
    b6f4:	e1a01003 	.word	0xe1a01003
    b6f8:	ebfffa7a 	.word	0xebfffa7a
    b6fc:	e1a03000 	.word	0xe1a03000
    b700:	e1a00004 	.word	0xe1a00004
    b704:	e1a01003 	.word	0xe1a01003
    b708:	ebfffadc 	.word	0xebfffadc
    b70c:	e1a03000 	.word	0xe1a03000
    b710:	e1a02003 	.word	0xe1a02003
    b714:	e51f35b8 	.word	0xe51f35b8
    b718:	e5832000 	.word	0xe5832000
    b71c:	e51f35bc 	.word	0xe51f35bc
    b720:	e5933000 	.word	0xe5933000
    b724:	e59b0004 	.word	0xe59b0004
    b728:	e1a01003 	.word	0xe1a01003
    b72c:	ebfffb2f 	.word	0xebfffb2f
    b730:	e1a03000 	.word	0xe1a03000
    b734:	e3530000 	.word	0xe3530000
    b738:	1a000000 	.word	0x1a000000
    b73c:	ea00004e 	.word	0xea00004e
    b740:	e51f2570 	.word	0xe51f2570
    b744:	e3a03002 	.word	0xe3a03002
    b748:	e5823000 	.word	0xe5823000
    b74c:	ea000044 	.word	0xea000044
    b750:	e51f3580 	.word	0xe51f3580
    b754:	e5934000 	.word	0xe5934000
    b758:	e51f35f4 	.word	0xe51f35f4
    b75c:	e5931004 	.word	0xe5931004
    b760:	e51f3590 	.word	0xe51f3590
    b764:	e5933000 	.word	0xe5933000
    b768:	e2432001 	.word	0xe2432001
    b76c:	e51f3604 	.word	0xe51f3604
    b770:	e7933102 	.word	0xe7933102
    b774:	e1a00001 	.word	0xe1a00001
    b778:	e1a01003 	.word	0xe1a01003
    b77c:	ebfffa59 	.word	0xebfffa59
    b780:	e1a03000 	.word	0xe1a03000
    b784:	e1a05003 	.word	0xe1a05003
    b788:	e51f3620 	.word	0xe51f3620
    b78c:	e5931004 	.word	0xe5931004
    b790:	e51f35c0 	.word	0xe51f35c0
    b794:	e5933000 	.word	0xe5933000
    b798:	e2432001 	.word	0xe2432001
    b79c:	e51f3638 	.word	0xe51f3638
    b7a0:	e7933102 	.word	0xe7933102
    b7a4:	e1a00001 	.word	0xe1a00001
    b7a8:	e1a01003 	.word	0xe1a01003
    b7ac:	ebfffa4d 	.word	0xebfffa4d
    b7b0:	e1a03000 	.word	0xe1a03000
    b7b4:	e1a00005 	.word	0xe1a00005
    b7b8:	e1a01003 	.word	0xe1a01003
    b7bc:	ebfff9a1 	.word	0xebfff9a1
    b7c0:	e1a03000 	.word	0xe1a03000
    b7c4:	e1a02003 	.word	0xe1a02003
    b7c8:	e51f3664 	.word	0xe51f3664
    b7cc:	e7832104 	.word	0xe7832104
    b7d0:	e51f3600 	.word	0xe51f3600
    b7d4:	e5934000 	.word	0xe5934000
    b7d8:	e51f3670 	.word	0xe51f3670
    b7dc:	e5931004 	.word	0xe5931004
    b7e0:	e51f3610 	.word	0xe51f3610
    b7e4:	e5933000 	.word	0xe5933000
    b7e8:	e2432001 	.word	0xe2432001
    b7ec:	e51f3684 	.word	0xe51f3684
    b7f0:	e7933102 	.word	0xe7933102
    b7f4:	e1a00001 	.word	0xe1a00001
    b7f8:	e1a01003 	.word	0xe1a01003
    b7fc:	ebfffa39 	.word	0xebfffa39
    b800:	e1a03000 	.word	0xe1a03000
    b804:	e1a05003 	.word	0xe1a05003
    b808:	e51f36a4 	.word	0xe51f36a4
    b80c:	e5931004 	.word	0xe5931004
    b810:	e51f3640 	.word	0xe51f3640
    b814:	e5933000 	.word	0xe5933000
    b818:	e2432001 	.word	0xe2432001
    b81c:	e51f36b8 	.word	0xe51f36b8
    b820:	e7933102 	.word	0xe7933102
    b824:	e1a00001 	.word	0xe1a00001
    b828:	e1a01003 	.word	0xe1a01003
    b82c:	ebfffa2d 	.word	0xebfffa2d
    b830:	e1a03000 	.word	0xe1a03000
    b834:	e1a00005 	.word	0xe1a00005
    b838:	e1a01003 	.word	0xe1a01003
    b83c:	ebfff980 	.word	0xebfff980
    b840:	e1a03000 	.word	0xe1a03000
    b844:	e1a02003 	.word	0xe1a02003
    b848:	e51f36e0 	.word	0xe51f36e0
    b84c:	e7832104 	.word	0xe7832104
    b850:	e51f3680 	.word	0xe51f3680
    b854:	e5933000 	.word	0xe5933000
    b858:	e2832001 	.word	0xe2832001
    b85c:	e51f368c 	.word	0xe51f368c
    b860:	e5832000 	.word	0xe5832000
    b864:	e51f3694 	.word	0xe51f3694
    b868:	e5932000 	.word	0xe5932000
    b86c:	e51f3700 	.word	0xe51f3700
    b870:	e5933000 	.word	0xe5933000
    b874:	e1520003 	.word	0xe1520003
    b878:	daffffb4 	.word	0xdaffffb4
    b87c:	e51f370c 	.word	0xe51f370c
    b880:	e5932000 	.word	0xe5932000
    b884:	e51f3710 	.word	0xe51f3710
    b888:	e5933000 	.word	0xe5933000
    b88c:	e1a00002 	.word	0xe1a00002
    b890:	e1a01003 	.word	0xe1a01003
    b894:	ebfffa79 	.word	0xebfffa79
    b898:	e1a03000 	.word	0xe1a03000
    b89c:	e1a02003 	.word	0xe1a02003
    b8a0:	e51f3718 	.word	0xe51f3718
    b8a4:	e5832000 	.word	0xe5832000
    b8a8:	e51f3720 	.word	0xe51f3720
    b8ac:	e5932000 	.word	0xe5932000
    b8b0:	e51f3728 	.word	0xe51f3728
    b8b4:	e5933000 	.word	0xe5933000
    b8b8:	e1a00002 	.word	0xe1a00002
    b8bc:	e1a01003 	.word	0xe1a01003
    b8c0:	ebfffa08 	.word	0xebfffa08
    b8c4:	e1a03000 	.word	0xe1a03000
    b8c8:	e1a02003 	.word	0xe1a02003
    b8cc:	e51f3740 	.word	0xe51f3740
    b8d0:	e5832000 	.word	0xe5832000
    b8d4:	e51f275c 	.word	0xe51f275c
    b8d8:	e51f3738 	.word	0xe51f3738
    b8dc:	e5823000 	.word	0xe5823000
    b8e0:	e51f3768 	.word	0xe51f3768
    b8e4:	e5932000 	.word	0xe5932000
    b8e8:	e51f376c 	.word	0xe51f376c
    b8ec:	e5832000 	.word	0xe5832000
    b8f0:	e51f3774 	.word	0xe51f3774
    b8f4:	e5932000 	.word	0xe5932000
    b8f8:	e51f3778 	.word	0xe51f3778
    b8fc:	e5832000 	.word	0xe5832000
    b900:	e51f3780 	.word	0xe51f3780
    b904:	e5932000 	.word	0xe5932000
    b908:	e51f3784 	.word	0xe51f3784
    b90c:	e5832000 	.word	0xe5832000
    b910:	e51f2750 	.word	0xe51f2750
    b914:	e3a03001 	.word	0xe3a03001
    b918:	e5823000 	.word	0xe5823000
    b91c:	ea0003e7 	.word	0xea0003e7
    b920:	e51f3794 	.word	0xe51f3794
    b924:	e5932000 	.word	0xe5932000
    b928:	e51f37a0 	.word	0xe51f37a0
    b92c:	e5933000 	.word	0xe5933000
    b930:	e1a00002 	.word	0xe1a00002
    b934:	e1a01003 	.word	0xe1a01003
    b938:	ebfff9ea 	.word	0xebfff9ea
    b93c:	e1a03000 	.word	0xe1a03000
    b940:	e1a02003 	.word	0xe1a02003
    b944:	e51f37b8 	.word	0xe51f37b8
    b948:	e5832000 	.word	0xe5832000
    b94c:	e51f277c 	.word	0xe51f277c
    b950:	e3a03000 	.word	0xe3a03000
    b954:	e5823000 	.word	0xe5823000
    b958:	e51f27c8 	.word	0xe51f27c8
    b95c:	e3a03001 	.word	0xe3a03001
    b960:	e5823000 	.word	0xe5823000
    b964:	e51f37a4 	.word	0xe51f37a4
    b968:	e5932000 	.word	0xe5932000
    b96c:	e51f379c 	.word	0xe51f379c
    b970:	e5933000 	.word	0xe5933000
    b974:	e0822003 	.word	0xe0822003
    b978:	e51f37e8 	.word	0xe51f37e8
    b97c:	e5933000 	.word	0xe5933000
    b980:	e0822003 	.word	0xe0822003
    b984:	e51f37f4 	.word	0xe51f37f4
    b988:	e5933000 	.word	0xe5933000
    b98c:	e1a00002 	.word	0xe1a00002
    b990:	e1a01003 	.word	0xe1a01003
    b994:	eb001acc 	.word	0xeb001acc
    b998:	e1a03000 	.word	0xe1a03000
    b99c:	e1a02003 	.word	0xe1a02003
    b9a0:	e51f380c 	.word	0xe51f380c
    b9a4:	e5832000 	.word	0xe5832000
    b9a8:	ea0003bb 	.word	0xea0003bb
    b9ac:	e51f3814 	.word	0xe51f3814
    b9b0:	e5933000 	.word	0xe5933000
    b9b4:	e51b0028 	.word	0xe51b0028
    b9b8:	e1a01003 	.word	0xe1a01003
    b9bc:	ebfffa8b 	.word	0xebfffa8b
    b9c0:	e1a03000 	.word	0xe1a03000
    b9c4:	e3530000 	.word	0xe3530000
    b9c8:	1a000008 	.word	0x1a000008
    b9cc:	e51f3830 	.word	0xe51f3830
    b9d0:	e5933000 	.word	0xe5933000
    b9d4:	e51b002c 	.word	0xe51b002c
    b9d8:	e1a01003 	.word	0xe1a01003
    b9dc:	ebfffa83 	.word	0xebfffa83
    b9e0:	e1a03000 	.word	0xe1a03000
    b9e4:	e3530000 	.word	0xe3530000
    b9e8:	1a000000 	.word	0x1a000000
    b9ec:	ea0001be 	.word	0xea0001be
    b9f0:	e51f3830 	.word	0xe51f3830
    b9f4:	e5932000 	.word	0xe5932000
    b9f8:	e51f3828 	.word	0xe51f3828
    b9fc:	e5933000 	.word	0xe5933000
    ba00:	e1520003 	.word	0xe1520003
    ba04:	1a000065 	.word	0x1a000065
    ba08:	e51f3838 	.word	0xe51f3838
    ba0c:	e5932000 	.word	0xe5932000
    ba10:	e1a03002 	.word	0xe1a03002
    ba14:	e1a03083 	.word	0xe1a03083
    ba18:	e0833002 	.word	0xe0833002
    ba1c:	e1a03103 	.word	0xe1a03103
    ba20:	e0832002 	.word	0xe0832002
    ba24:	e51f3864 	.word	0xe51f3864
    ba28:	e5933000 	.word	0xe5933000
    ba2c:	e0823003 	.word	0xe0823003
    ba30:	e1a02103 	.word	0xe1a02103
    ba34:	e51f388c 	.word	0xe51f388c
    ba38:	e5933000 	.word	0xe5933000
    ba3c:	e0824003 	.word	0xe0824003
    ba40:	e51f3880 	.word	0xe51f3880
    ba44:	e5933000 	.word	0xe5933000
    ba48:	e1a03103 	.word	0xe1a03103
    ba4c:	e1a02003 	.word	0xe1a02003
    ba50:	e51f38a8 	.word	0xe51f38a8
    ba54:	e5933000 	.word	0xe5933000
    ba58:	e0821003 	.word	0xe0821003
    ba5c:	e51f388c 	.word	0xe51f388c
    ba60:	e5932000 	.word	0xe5932000
    ba64:	e1a03002 	.word	0xe1a03002
    ba68:	e1a03083 	.word	0xe1a03083
    ba6c:	e0833002 	.word	0xe0833002
    ba70:	e1a03103 	.word	0xe1a03103
    ba74:	e0833002 	.word	0xe0833002
    ba78:	e1a03103 	.word	0xe1a03103
    ba7c:	e0813003 	.word	0xe0813003
    ba80:	e2433038 	.word	0xe2433038
    ba84:	e5932000 	.word	0xe5932000
    ba88:	e51f38dc 	.word	0xe51f38dc
    ba8c:	e5933000 	.word	0xe5933000
    ba90:	e1a00002 	.word	0xe1a00002
    ba94:	e1a01003 	.word	0xe1a01003
    ba98:	ebfff992 	.word	0xebfff992
    ba9c:	e1a03000 	.word	0xe1a03000
    baa0:	e5843000 	.word	0xe5843000
    baa4:	e51f38d4 	.word	0xe51f38d4
    baa8:	e5934000 	.word	0xe5934000
    baac:	e51f38ec 	.word	0xe51f38ec
    bab0:	e5935000 	.word	0xe5935000
    bab4:	e51f38e4 	.word	0xe51f38e4
    bab8:	e5933000 	.word	0xe5933000
    babc:	e2432001 	.word	0xe2432001
    bac0:	e51f3900 	.word	0xe51f3900
    bac4:	e5933000 	.word	0xe5933000
    bac8:	e2431001 	.word	0xe2431001
    bacc:	e51f0918 	.word	0xe51f0918
    bad0:	e1a03002 	.word	0xe1a03002
    bad4:	e1a03083 	.word	0xe1a03083
    bad8:	e0833002 	.word	0xe0833002
    badc:	e1a03103 	.word	0xe1a03103
    bae0:	e0833002 	.word	0xe0833002
    bae4:	e0833001 	.word	0xe0833001
    bae8:	e7902103 	.word	0xe7902103
    baec:	e51f3940 	.word	0xe51f3940
    baf0:	e5933000 	.word	0xe5933000
    baf4:	e1a00002 	.word	0xe1a00002
    baf8:	e1a01003 	.word	0xe1a01003
    bafc:	ebfff979 	.word	0xebfff979
    bb00:	e1a03000 	.word	0xe1a03000
    bb04:	e1a06003 	.word	0xe1a06003
    bb08:	e51f3948 	.word	0xe51f3948
    bb0c:	e5933000 	.word	0xe5933000
    bb10:	e1a03103 	.word	0xe1a03103
    bb14:	e1a02003 	.word	0xe1a02003
    bb18:	e51f3970 	.word	0xe51f3970
    bb1c:	e5933000 	.word	0xe5933000
    bb20:	e0821003 	.word	0xe0821003
    bb24:	e51f3954 	.word	0xe51f3954
    bb28:	e5932000 	.word	0xe5932000
    bb2c:	e1a03002 	.word	0xe1a03002
    bb30:	e1a03083 	.word	0xe1a03083
    bb34:	e0833002 	.word	0xe0833002
    bb38:	e1a03103 	.word	0xe1a03103
    bb3c:	e0833002 	.word	0xe0833002
    bb40:	e1a03103 	.word	0xe1a03103
    bb44:	e0813003 	.word	0xe0813003
    bb48:	e2433038 	.word	0xe2433038
    bb4c:	e5932000 	.word	0xe5932000
    bb50:	e51f39ac 	.word	0xe51f39ac
    bb54:	e5933000 	.word	0xe5933000
    bb58:	e1a00002 	.word	0xe1a00002
    bb5c:	e1a01003 	.word	0xe1a01003
    bb60:	ebfff960 	.word	0xebfff960
    bb64:	e1a03000 	.word	0xe1a03000
    bb68:	e1a00006 	.word	0xe1a00006
    bb6c:	e1a01003 	.word	0xe1a01003
    bb70:	ebfff8b4 	.word	0xebfff8b4
    bb74:	e1a03000 	.word	0xe1a03000
    bb78:	e1a02003 	.word	0xe1a02003
    bb7c:	e51f19c8 	.word	0xe51f19c8
    bb80:	e1a03004 	.word	0xe1a03004
    bb84:	e1a03083 	.word	0xe1a03083
    bb88:	e0833004 	.word	0xe0833004
    bb8c:	e1a03103 	.word	0xe1a03103
    bb90:	e0833004 	.word	0xe0833004
    bb94:	e0833005 	.word	0xe0833005
    bb98:	e7812103 	.word	0xe7812103
    bb9c:	ea000152 	.word	0xea000152
    bba0:	e51f39e0 	.word	0xe51f39e0
    bba4:	e5933000 	.word	0xe5933000
    bba8:	e3530001 	.word	0xe3530001
    bbac:	1a000068 	.word	0x1a000068
    bbb0:	e51f39e0 	.word	0xe51f39e0
    bbb4:	e5933000 	.word	0xe5933000
    bbb8:	e3530000 	.word	0xe3530000
    bbbc:	1a000064 	.word	0x1a000064
    bbc0:	e51f39f0 	.word	0xe51f39f0
    bbc4:	e5932000 	.word	0xe5932000
    bbc8:	e1a03002 	.word	0xe1a03002
    bbcc:	e1a03083 	.word	0xe1a03083
    bbd0:	e0833002 	.word	0xe0833002
    bbd4:	e1a03103 	.word	0xe1a03103
    bbd8:	e0832002 	.word	0xe0832002
    bbdc:	e51f3a1c 	.word	0xe51f3a1c
    bbe0:	e5933000 	.word	0xe5933000
    bbe4:	e0823003 	.word	0xe0823003
    bbe8:	e1a02103 	.word	0xe1a02103
    bbec:	e51f3a44 	.word	0xe51f3a44
    bbf0:	e5933000 	.word	0xe5933000
    bbf4:	e0824003 	.word	0xe0824003
    bbf8:	e51f3a38 	.word	0xe51f3a38
    bbfc:	e5933000 	.word	0xe5933000
    bc00:	e1a03103 	.word	0xe1a03103
    bc04:	e1a02003 	.word	0xe1a02003
    bc08:	e51f3a60 	.word	0xe51f3a60
    bc0c:	e5933000 	.word	0xe5933000
    bc10:	e0821003 	.word	0xe0821003
    bc14:	e51f3a44 	.word	0xe51f3a44
    bc18:	e5932000 	.word	0xe5932000
    bc1c:	e1a03002 	.word	0xe1a03002
    bc20:	e1a03083 	.word	0xe1a03083
    bc24:	e0833002 	.word	0xe0833002
    bc28:	e1a03103 	.word	0xe1a03103
    bc2c:	e0833002 	.word	0xe0833002
    bc30:	e1a03103 	.word	0xe1a03103
    bc34:	e0813003 	.word	0xe0813003
    bc38:	e2433004 	.word	0xe2433004
    bc3c:	e5932000 	.word	0xe5932000
    bc40:	e51f3a9c 	.word	0xe51f3a9c
    bc44:	e5933000 	.word	0xe5933000
    bc48:	e1a00002 	.word	0xe1a00002
    bc4c:	e1a01003 	.word	0xe1a01003
    bc50:	ebfff924 	.word	0xebfff924
    bc54:	e1a03000 	.word	0xe1a03000
    bc58:	e5843000 	.word	0xe5843000
    bc5c:	e51f3a8c 	.word	0xe51f3a8c
    bc60:	e5934000 	.word	0xe5934000
    bc64:	e51f3aa4 	.word	0xe51f3aa4
    bc68:	e5935000 	.word	0xe5935000
    bc6c:	e51f3a9c 	.word	0xe51f3a9c
    bc70:	e5932000 	.word	0xe5932000
    bc74:	e51f3ab4 	.word	0xe51f3ab4
    bc78:	e5933000 	.word	0xe5933000
    bc7c:	e2431001 	.word	0xe2431001
    bc80:	e51f0acc 	.word	0xe51f0acc
    bc84:	e1a03002 	.word	0xe1a03002
    bc88:	e1a03083 	.word	0xe1a03083
    bc8c:	e0833002 	.word	0xe0833002
    bc90:	e1a03103 	.word	0xe1a03103
    bc94:	e0833002 	.word	0xe0833002
    bc98:	e0833001 	.word	0xe0833001
    bc9c:	e7902103 	.word	0xe7902103
    bca0:	e51f3afc 	.word	0xe51f3afc
    bca4:	e5933000 	.word	0xe5933000
    bca8:	e1a00002 	.word	0xe1a00002
    bcac:	e1a01003 	.word	0xe1a01003
    bcb0:	ebfff90c 	.word	0xebfff90c
    bcb4:	e1a03000 	.word	0xe1a03000
    bcb8:	e1a06003 	.word	0xe1a06003
    bcbc:	e51f3afc 	.word	0xe51f3afc
    bcc0:	e5933000 	.word	0xe5933000
    bcc4:	e1a03103 	.word	0xe1a03103
    bcc8:	e1a02003 	.word	0xe1a02003
    bccc:	e51f3b24 	.word	0xe51f3b24
    bcd0:	e5933000 	.word	0xe5933000
    bcd4:	e0821003 	.word	0xe0821003
    bcd8:	e51f3b08 	.word	0xe51f3b08
    bcdc:	e5932000 	.word	0xe5932000
    bce0:	e1a03002 	.word	0xe1a03002
    bce4:	e1a03083 	.word	0xe1a03083
    bce8:	e0833002 	.word	0xe0833002
    bcec:	e1a03103 	.word	0xe1a03103
    bcf0:	e0833002 	.word	0xe0833002
    bcf4:	e1a03103 	.word	0xe1a03103
    bcf8:	e0813003 	.word	0xe0813003
    bcfc:	e2433004 	.word	0xe2433004
    bd00:	e5932000 	.word	0xe5932000
    bd04:	e51f3b58 	.word	0xe51f3b58
    bd08:	e5933000 	.word	0xe5933000
    bd0c:	e1a00002 	.word	0xe1a00002
    bd10:	e1a01003 	.word	0xe1a01003
    bd14:	ebfff8f3 	.word	0xebfff8f3
    bd18:	e1a03000 	.word	0xe1a03000
    bd1c:	e1a00006 	.word	0xe1a00006
    bd20:	e1a01003 	.word	0xe1a01003
    bd24:	ebfff846 	.word	0xebfff846
    bd28:	e1a03000 	.word	0xe1a03000
    bd2c:	e1a02003 	.word	0xe1a02003
    bd30:	e51f1b7c 	.word	0xe51f1b7c
    bd34:	e1a03004 	.word	0xe1a03004
    bd38:	e1a03083 	.word	0xe1a03083
    bd3c:	e0833004 	.word	0xe0833004
    bd40:	e1a03103 	.word	0xe1a03103
    bd44:	e0833004 	.word	0xe0833004
    bd48:	e0833005 	.word	0xe0833005
    bd4c:	e7812103 	.word	0xe7812103
    bd50:	ea0000e5 	.word	0xea0000e5
    bd54:	e51f3b94 	.word	0xe51f3b94
    bd58:	e5933000 	.word	0xe5933000
    bd5c:	e3530001 	.word	0xe3530001
    bd60:	da0000e1 	.word	0xda0000e1
    bd64:	e51f3ba4 	.word	0xe51f3ba4
    bd68:	e5932000 	.word	0xe5932000
    bd6c:	e51f3b9c 	.word	0xe51f3b9c
    bd70:	e5933000 	.word	0xe5933000
    bd74:	e1520003 	.word	0xe1520003
    bd78:	0a0000db 	.word	0x0a0000db
    bd7c:	e51f3bbc 	.word	0xe51f3bbc
    bd80:	e5933000 	.word	0xe5933000
    bd84:	e2432002 	.word	0xe2432002
    bd88:	e51f3bb8 	.word	0xe51f3bb8
    bd8c:	e5933000 	.word	0xe5933000
    bd90:	e1520003 	.word	0xe1520003
    bd94:	aa000012 	.word	0xaa000012
    bd98:	e51f3bd8 	.word	0xe51f3bd8
    bd9c:	e5933000 	.word	0xe5933000
    bda0:	e1a03103 	.word	0xe1a03103
    bda4:	e1a02003 	.word	0xe1a02003
    bda8:	e51f3c00 	.word	0xe51f3c00
    bdac:	e5933000 	.word	0xe5933000
    bdb0:	e0821003 	.word	0xe0821003
    bdb4:	e51f3be4 	.word	0xe51f3be4
    bdb8:	e5932000 	.word	0xe5932000
    bdbc:	e1a03002 	.word	0xe1a03002
    bdc0:	e1a03083 	.word	0xe1a03083
    bdc4:	e0833002 	.word	0xe0833002
    bdc8:	e1a03103 	.word	0xe1a03103
    bdcc:	e0833002 	.word	0xe0833002
    bdd0:	e1a03103 	.word	0xe1a03103
    bdd4:	e0813003 	.word	0xe0813003
    bdd8:	e2432008 	.word	0xe2432008
    bddc:	e51f3c3c 	.word	0xe51f3c3c
    bde0:	e5823000 	.word	0xe5823000
    bde4:	e51f3c24 	.word	0xe51f3c24
    bde8:	e5933000 	.word	0xe5933000
    bdec:	e2432002 	.word	0xe2432002
    bdf0:	e51f3c20 	.word	0xe51f3c20
    bdf4:	e5933000 	.word	0xe5933000
    bdf8:	e1520003 	.word	0xe1520003
    bdfc:	aa00000d 	.word	0xaa00000d
    be00:	e51f3c30 	.word	0xe51f3c30
    be04:	e5932000 	.word	0xe5932000
    be08:	e51f3c48 	.word	0xe51f3c48
    be0c:	e5933000 	.word	0xe5933000
    be10:	e2431002 	.word	0xe2431002
    be14:	e51f0c60 	.word	0xe51f0c60
    be18:	e1a03002 	.word	0xe1a03002
    be1c:	e1a03083 	.word	0xe1a03083
    be20:	e0833002 	.word	0xe0833002
    be24:	e1a03103 	.word	0xe1a03103
    be28:	e0833002 	.word	0xe0833002
    be2c:	e0832001 	.word	0xe0832001
    be30:	e51f3c90 	.word	0xe51f3c90
    be34:	e7803102 	.word	0xe7803102
    be38:	e51f3c68 	.word	0xe51f3c68
    be3c:	e5932000 	.word	0xe5932000
    be40:	e1a03002 	.word	0xe1a03002
    be44:	e1a03083 	.word	0xe1a03083
    be48:	e0833002 	.word	0xe0833002
    be4c:	e1a03103 	.word	0xe1a03103
    be50:	e0832002 	.word	0xe0832002
    be54:	e51f3c94 	.word	0xe51f3c94
    be58:	e5933000 	.word	0xe5933000
    be5c:	e0823003 	.word	0xe0823003
    be60:	e1a02103 	.word	0xe1a02103
    be64:	e51f3cbc 	.word	0xe51f3cbc
    be68:	e5933000 	.word	0xe5933000
    be6c:	e0824003 	.word	0xe0824003
    be70:	e51f3cb0 	.word	0xe51f3cb0
    be74:	e5933000 	.word	0xe5933000
    be78:	e1a03103 	.word	0xe1a03103
    be7c:	e1a02003 	.word	0xe1a02003
    be80:	e51f3cd8 	.word	0xe51f3cd8
    be84:	e5933000 	.word	0xe5933000
    be88:	e0821003 	.word	0xe0821003
    be8c:	e51f3cbc 	.word	0xe51f3cbc
    be90:	e5932000 	.word	0xe5932000
    be94:	e1a03002 	.word	0xe1a03002
    be98:	e1a03083 	.word	0xe1a03083
    be9c:	e0833002 	.word	0xe0833002
    bea0:	e1a03103 	.word	0xe1a03103
    bea4:	e0833002 	.word	0xe0833002
    bea8:	e1a03103 	.word	0xe1a03103
    beac:	e0813003 	.word	0xe0813003
    beb0:	e2433004 	.word	0xe2433004
    beb4:	e5932000 	.word	0xe5932000
    beb8:	e51f3d14 	.word	0xe51f3d14
    bebc:	e5933000 	.word	0xe5933000
    bec0:	e1a00002 	.word	0xe1a00002
    bec4:	e1a01003 	.word	0xe1a01003
    bec8:	ebfff886 	.word	0xebfff886
    becc:	e1a03000 	.word	0xe1a03000
    bed0:	e1a05003 	.word	0xe1a05003
    bed4:	e51f3d04 	.word	0xe51f3d04
    bed8:	e5932000 	.word	0xe5932000
    bedc:	e51f3d1c 	.word	0xe51f3d1c
    bee0:	e5931000 	.word	0xe5931000
    bee4:	e51f0d34 	.word	0xe51f0d34
    bee8:	e1a03002 	.word	0xe1a03002
    beec:	e1a03083 	.word	0xe1a03083
    bef0:	e0833002 	.word	0xe0833002
    bef4:	e1a03103 	.word	0xe1a03103
    bef8:	e0833002 	.word	0xe0833002
    befc:	e0833001 	.word	0xe0833001
    bf00:	e7901103 	.word	0xe7901103
    bf04:	e51f3d44 	.word	0xe51f3d44
    bf08:	e5933000 	.word	0xe5933000
    bf0c:	e1a03103 	.word	0xe1a03103
    bf10:	e1a02003 	.word	0xe1a02003
    bf14:	e51f3d6c 	.word	0xe51f3d6c
    bf18:	e5933000 	.word	0xe5933000
    bf1c:	e0820003 	.word	0xe0820003
    bf20:	e51f3d50 	.word	0xe51f3d50
    bf24:	e5932000 	.word	0xe5932000
    bf28:	e1a03002 	.word	0xe1a03002
    bf2c:	e1a03083 	.word	0xe1a03083
    bf30:	e0833002 	.word	0xe0833002
    bf34:	e1a03103 	.word	0xe1a03103
    bf38:	e0833002 	.word	0xe0833002
    bf3c:	e1a03103 	.word	0xe1a03103
    bf40:	e0803003 	.word	0xe0803003
    bf44:	e2433008 	.word	0xe2433008
    bf48:	e5933000 	.word	0xe5933000
    bf4c:	e1a00001 	.word	0xe1a00001
    bf50:	e1a01003 	.word	0xe1a01003
    bf54:	ebfff863 	.word	0xebfff863
    bf58:	e1a03000 	.word	0xe1a03000
    bf5c:	e1a00005 	.word	0xe1a00005
    bf60:	e1a01003 	.word	0xe1a01003
    bf64:	ebfff7b6 	.word	0xebfff7b6
    bf68:	e1a03000 	.word	0xe1a03000
    bf6c:	e5843000 	.word	0xe5843000
    bf70:	e51f3da0 	.word	0xe51f3da0
    bf74:	e5934000 	.word	0xe5934000
    bf78:	e51f3db8 	.word	0xe51f3db8
    bf7c:	e5935000 	.word	0xe5935000
    bf80:	e51f3db0 	.word	0xe51f3db0
    bf84:	e5932000 	.word	0xe5932000
    bf88:	e51f3dc8 	.word	0xe51f3dc8
    bf8c:	e5933000 	.word	0xe5933000
    bf90:	e2431001 	.word	0xe2431001
    bf94:	e51f0de0 	.word	0xe51f0de0
    bf98:	e1a03002 	.word	0xe1a03002
    bf9c:	e1a03083 	.word	0xe1a03083
    bfa0:	e0833002 	.word	0xe0833002
    bfa4:	e1a03103 	.word	0xe1a03103
    bfa8:	e0833002 	.word	0xe0833002
    bfac:	e0833001 	.word	0xe0833001
    bfb0:	e7902103 	.word	0xe7902103
    bfb4:	e51f3e10 	.word	0xe51f3e10
    bfb8:	e5933000 	.word	0xe5933000
    bfbc:	e1a00002 	.word	0xe1a00002
    bfc0:	e1a01003 	.word	0xe1a01003
    bfc4:	ebfff847 	.word	0xebfff847
    bfc8:	e1a03000 	.word	0xe1a03000
    bfcc:	e1a06003 	.word	0xe1a06003
    bfd0:	e51f3e10 	.word	0xe51f3e10
    bfd4:	e5933000 	.word	0xe5933000
    bfd8:	e1a03103 	.word	0xe1a03103
    bfdc:	e1a02003 	.word	0xe1a02003
    bfe0:	e51f3e38 	.word	0xe51f3e38
    bfe4:	e5933000 	.word	0xe5933000
    bfe8:	e0821003 	.word	0xe0821003
    bfec:	e51f3e1c 	.word	0xe51f3e1c
    bff0:	e5932000 	.word	0xe5932000
    bff4:	e1a03002 	.word	0xe1a03002
    bff8:	e1a03083 	.word	0xe1a03083
    bffc:	e0833002 	.word	0xe0833002
    c000:	e1a03103 	.word	0xe1a03103
    c004:	e0833002 	.word	0xe0833002
    c008:	e1a03103 	.word	0xe1a03103
    c00c:	e0813003 	.word	0xe0813003
    c010:	e2433004 	.word	0xe2433004
    c014:	e5932000 	.word	0xe5932000
    c018:	e51f3e6c 	.word	0xe51f3e6c
    c01c:	e5933000 	.word	0xe5933000
    c020:	e1a00002 	.word	0xe1a00002
    c024:	e1a01003 	.word	0xe1a01003
    c028:	ebfff82e 	.word	0xebfff82e
    c02c:	e1a03000 	.word	0xe1a03000
    c030:	e1a00006 	.word	0xe1a00006
    c034:	e1a01003 	.word	0xe1a01003
    c038:	ebfff781 	.word	0xebfff781
    c03c:	e1a03000 	.word	0xe1a03000
    c040:	e1a06003 	.word	0xe1a06003
    c044:	e51f3e74 	.word	0xe51f3e74
    c048:	e5932000 	.word	0xe5932000
    c04c:	e51f3e8c 	.word	0xe51f3e8c
    c050:	e5931000 	.word	0xe5931000
    c054:	e51f0ea4 	.word	0xe51f0ea4
    c058:	e1a03002 	.word	0xe1a03002
    c05c:	e1a03083 	.word	0xe1a03083
    c060:	e0833002 	.word	0xe0833002
    c064:	e1a03103 	.word	0xe1a03103
    c068:	e0833002 	.word	0xe0833002
    c06c:	e0833001 	.word	0xe0833001
    c070:	e790c103 	.word	0xe790c103
    c074:	e51f3ea4 	.word	0xe51f3ea4
    c078:	e5932000 	.word	0xe5932000
    c07c:	e51f3ebc 	.word	0xe51f3ebc
    c080:	e5933000 	.word	0xe5933000
    c084:	e2431002 	.word	0xe2431002
    c088:	e51f0ed4 	.word	0xe51f0ed4
    c08c:	e1a03002 	.word	0xe1a03002
    c090:	e1a03083 	.word	0xe1a03083
    c094:	e0833002 	.word	0xe0833002
    c098:	e1a03103 	.word	0xe1a03103
    c09c:	e0833002 	.word	0xe0833002
    c0a0:	e0833001 	.word	0xe0833001
    c0a4:	e7903103 	.word	0xe7903103
    c0a8:	e1a0000c 	.word	0xe1a0000c
    c0ac:	e1a01003 	.word	0xe1a01003
    c0b0:	ebfff80c 	.word	0xebfff80c
    c0b4:	e1a03000 	.word	0xe1a03000
    c0b8:	e1a00006 	.word	0xe1a00006
    c0bc:	e1a01003 	.word	0xe1a01003
    c0c0:	ebfff75f 	.word	0xebfff75f
    c0c4:	e1a03000 	.word	0xe1a03000
    c0c8:	e1a02003 	.word	0xe1a02003
    c0cc:	e51f1f18 	.word	0xe51f1f18
    c0d0:	e1a03004 	.word	0xe1a03004
    c0d4:	e1a03083 	.word	0xe1a03083
    c0d8:	e0833004 	.word	0xe0833004
    c0dc:	e1a03103 	.word	0xe1a03103
    c0e0:	e0833004 	.word	0xe0833004
    c0e4:	e0833005 	.word	0xe0833005
    c0e8:	e7812103 	.word	0xe7812103
    c0ec:	e51f3f34 	.word	0xe51f3f34
    c0f0:	e5933000 	.word	0xe5933000
    c0f4:	e59b0008 	.word	0xe59b0008
    c0f8:	e1a01003 	.word	0xe1a01003
    c0fc:	ebfff8bb 	.word	0xebfff8bb
    c100:	e1a03000 	.word	0xe1a03000
    c104:	e3530000 	.word	0xe3530000
    c108:	1a000000 	.word	0x1a000000
    c10c:	ea000064 	.word	0xea000064
    c110:	e51f3f40 	.word	0xe51f3f40
    c114:	e5934000 	.word	0xe5934000
    c118:	e51f3f58 	.word	0xe51f3f58
    c11c:	e5935000 	.word	0xe5935000
    c120:	e51f3f50 	.word	0xe51f3f50
    c124:	e5932000 	.word	0xe5932000
    c128:	e1a03002 	.word	0xe1a03002
    c12c:	e1a03083 	.word	0xe1a03083
    c130:	e0833002 	.word	0xe0833002
    c134:	e1a03103 	.word	0xe1a03103
    c138:	e0832002 	.word	0xe0832002
    c13c:	e51f3f7c 	.word	0xe51f3f7c
    c140:	e5933000 	.word	0xe5933000
    c144:	e0822003 	.word	0xe0822003
    c148:	e51f3f8c 	.word	0xe51f3f8c
    c14c:	e7936102 	.word	0xe7936102
    c150:	e51f3f80 	.word	0xe51f3f80
    c154:	e5932000 	.word	0xe5932000
    c158:	e1a03002 	.word	0xe1a03002
    c15c:	e1a03083 	.word	0xe1a03083
    c160:	e0833002 	.word	0xe0833002
    c164:	e1a03103 	.word	0xe1a03103
    c168:	e0832002 	.word	0xe0832002
    c16c:	e51f3fac 	.word	0xe51f3fac
    c170:	e5933000 	.word	0xe5933000
    c174:	e0822003 	.word	0xe0822003
    c178:	e51f3fb4 	.word	0xe51f3fb4
    c17c:	e7932102 	.word	0xe7932102
    c180:	e51f3fb8 	.word	0xe51f3fb8
    c184:	e5933000 	.word	0xe5933000
    c188:	e1a00002 	.word	0xe1a00002
    c18c:	e1a01003 	.word	0xe1a01003
    c190:	ebfff7d4 	.word	0xebfff7d4
    c194:	e1a03000 	.word	0xe1a03000
    c198:	e1a00006 	.word	0xe1a00006
    c19c:	e1a01003 	.word	0xe1a01003
    c1a0:	ebfff728 	.word	0xebfff728
    c1a4:	e1a03000 	.word	0xe1a03000
    c1a8:	e1a02003 	.word	0xe1a02003
    c1ac:	e51f1fe0 	.word	0xe51f1fe0
    c1b0:	e1a03004 	.word	0xe1a03004
    c1b4:	e1a03083 	.word	0xe1a03083
    c1b8:	e0833004 	.word	0xe0833004
    c1bc:	e1a03103 	.word	0xe1a03103
    c1c0:	e0833004 	.word	0xe0833004
    c1c4:	e0833005 	.word	0xe0833005
    c1c8:	e7812103 	.word	0xe7812103
    c1cc:	e51f3ffc 	.word	0xe51f3ffc
    c1d0:	e5933000 	.word	0xe5933000
    c1d4:	e3530000 	.word	0xe3530000
    c1d8:	0a000031 	.word	0x0a000031
    c1dc:	e59f3cf8 	.word	0xe59f3cf8
    c1e0:	e5934000 	.word	0xe5934000
    c1e4:	e59f3cf4 	.word	0xe59f3cf4
    c1e8:	e5933000 	.word	0xe5933000
    c1ec:	e2435001 	.word	0xe2435001
    c1f0:	e59f3ce4 	.word	0xe59f3ce4
    c1f4:	e5932000 	.word	0xe5932000
    c1f8:	e1a03002 	.word	0xe1a03002
    c1fc:	e1a03083 	.word	0xe1a03083
    c200:	e0833002 	.word	0xe0833002
    c204:	e1a03103 	.word	0xe1a03103
    c208:	e0832002 	.word	0xe0832002
    c20c:	e59f3ccc 	.word	0xe59f3ccc
    c210:	e5933000 	.word	0xe5933000
    c214:	e0823003 	.word	0xe0823003
    c218:	e2432001 	.word	0xe2432001
    c21c:	e59f3cc0 	.word	0xe59f3cc0
    c220:	e7936102 	.word	0xe7936102
    c224:	e59f3cb0 	.word	0xe59f3cb0
    c228:	e5932000 	.word	0xe5932000
    c22c:	e1a03002 	.word	0xe1a03002
    c230:	e1a03083 	.word	0xe1a03083
    c234:	e0833002 	.word	0xe0833002
    c238:	e1a03103 	.word	0xe1a03103
    c23c:	e0832002 	.word	0xe0832002
    c240:	e59f3c98 	.word	0xe59f3c98
    c244:	e5933000 	.word	0xe5933000
    c248:	e0823003 	.word	0xe0823003
    c24c:	e2432001 	.word	0xe2432001
    c250:	e59f3c90 	.word	0xe59f3c90
    c254:	e7932102 	.word	0xe7932102
    c258:	e59f3c8c 	.word	0xe59f3c8c
    c25c:	e5933000 	.word	0xe5933000
    c260:	e1a00002 	.word	0xe1a00002
    c264:	e1a01003 	.word	0xe1a01003
    c268:	ebfff79e 	.word	0xebfff79e
    c26c:	e1a03000 	.word	0xe1a03000
    c270:	e1a00006 	.word	0xe1a00006
    c274:	e1a01003 	.word	0xe1a01003
    c278:	ebfff6f2 	.word	0xebfff6f2
    c27c:	e1a03000 	.word	0xe1a03000
    c280:	e1a02003 	.word	0xe1a02003
    c284:	e59f1c64 	.word	0xe59f1c64
    c288:	e1a03004 	.word	0xe1a03004
    c28c:	e1a03083 	.word	0xe1a03083
    c290:	e0833004 	.word	0xe0833004
    c294:	e1a03103 	.word	0xe1a03103
    c298:	e0833004 	.word	0xe0833004
    c29c:	e0833005 	.word	0xe0833005
    c2a0:	e7812103 	.word	0xe7812103
    c2a4:	e59f3c34 	.word	0xe59f3c34
    c2a8:	e5932000 	.word	0xe5932000
    c2ac:	e1a03002 	.word	0xe1a03002
    c2b0:	e1a03083 	.word	0xe1a03083
    c2b4:	e0833002 	.word	0xe0833002
    c2b8:	e1a03103 	.word	0xe1a03103
    c2bc:	e0832002 	.word	0xe0832002
    c2c0:	e59f3c14 	.word	0xe59f3c14
    c2c4:	e5933000 	.word	0xe5933000
    c2c8:	e0823003 	.word	0xe0823003
    c2cc:	e1a02103 	.word	0xe1a02103
    c2d0:	e59f3c1c 	.word	0xe59f3c1c
    c2d4:	e5933000 	.word	0xe5933000
    c2d8:	e0823003 	.word	0xe0823003
    c2dc:	e5932000 	.word	0xe5932000
    c2e0:	e59f3c10 	.word	0xe59f3c10
    c2e4:	e5933000 	.word	0xe5933000
    c2e8:	e1a00002 	.word	0xe1a00002
    c2ec:	e1a01003 	.word	0xe1a01003
    c2f0:	ebfff77c 	.word	0xebfff77c
    c2f4:	e1a03000 	.word	0xe1a03000
    c2f8:	e1a02003 	.word	0xe1a02003
    c2fc:	e59f3bf8 	.word	0xe59f3bf8
    c300:	e5832000 	.word	0xe5832000
    c304:	e59f3bd4 	.word	0xe59f3bd4
    c308:	e5933000 	.word	0xe5933000
    c30c:	e3530000 	.word	0xe3530000
    c310:	1a00002e 	.word	0x1a00002e
    c314:	e59f3bc4 	.word	0xe59f3bc4
    c318:	e5932000 	.word	0xe5932000
    c31c:	e59f3bb8 	.word	0xe59f3bb8
    c320:	e5931000 	.word	0xe5931000
    c324:	e59f0bc4 	.word	0xe59f0bc4
    c328:	e1a03002 	.word	0xe1a03002
    c32c:	e1a03083 	.word	0xe1a03083
    c330:	e0833002 	.word	0xe0833002
    c334:	e1a03103 	.word	0xe1a03103
    c338:	e0833002 	.word	0xe0833002
    c33c:	e0833001 	.word	0xe0833001
    c340:	e7901103 	.word	0xe7901103
    c344:	e59f3b94 	.word	0xe59f3b94
    c348:	e5932000 	.word	0xe5932000
    c34c:	e59f3bac 	.word	0xe59f3bac
    c350:	e7933102 	.word	0xe7933102
    c354:	e1a00001 	.word	0xe1a00001
    c358:	e1a01003 	.word	0xe1a01003
    c35c:	ebfff761 	.word	0xebfff761
    c360:	e1a03000 	.word	0xe1a03000
    c364:	e1a02003 	.word	0xe1a02003
    c368:	e59f3b94 	.word	0xe59f3b94
    c36c:	e5832000 	.word	0xe5832000
    c370:	e59f3b68 	.word	0xe59f3b68
    c374:	e5932000 	.word	0xe5932000
    c378:	e59f3b5c 	.word	0xe59f3b5c
    c37c:	e5931000 	.word	0xe5931000
    c380:	e59f0b68 	.word	0xe59f0b68
    c384:	e1a03002 	.word	0xe1a03002
    c388:	e1a03083 	.word	0xe1a03083
    c38c:	e0833002 	.word	0xe0833002
    c390:	e1a03103 	.word	0xe1a03103
    c394:	e0833002 	.word	0xe0833002
    c398:	e0833001 	.word	0xe0833001
    c39c:	e7901103 	.word	0xe7901103
    c3a0:	e59f3b38 	.word	0xe59f3b38
    c3a4:	e5932000 	.word	0xe5932000
    c3a8:	e59f3b58 	.word	0xe59f3b58
    c3ac:	e7933102 	.word	0xe7933102
    c3b0:	e1a00001 	.word	0xe1a00001
    c3b4:	e1a01003 	.word	0xe1a01003
    c3b8:	ebfff74a 	.word	0xebfff74a
    c3bc:	e1a03000 	.word	0xe1a03000
    c3c0:	e1a02003 	.word	0xe1a02003
    c3c4:	e59f3b40 	.word	0xe59f3b40
    c3c8:	e5832000 	.word	0xe5832000
    c3cc:	ea000061 	.word	0xea000061
    c3d0:	e59f3b08 	.word	0xe59f3b08
    c3d4:	e5932000 	.word	0xe5932000
    c3d8:	e59f3afc 	.word	0xe59f3afc
    c3dc:	e5931000 	.word	0xe5931000
    c3e0:	e59f0b08 	.word	0xe59f0b08
    c3e4:	e1a03002 	.word	0xe1a03002
    c3e8:	e1a03083 	.word	0xe1a03083
    c3ec:	e0833002 	.word	0xe0833002
    c3f0:	e1a03103 	.word	0xe1a03103
    c3f4:	e0833002 	.word	0xe0833002
    c3f8:	e0833001 	.word	0xe0833001
    c3fc:	e7901103 	.word	0xe7901103
    c400:	e59f3ad8 	.word	0xe59f3ad8
    c404:	e5932000 	.word	0xe5932000
    c408:	e59f3af0 	.word	0xe59f3af0
    c40c:	e7933102 	.word	0xe7933102
    c410:	e1a00001 	.word	0xe1a00001
    c414:	e1a01003 	.word	0xe1a01003
    c418:	ebfff732 	.word	0xebfff732
    c41c:	e1a03000 	.word	0xe1a03000
    c420:	e1a04003 	.word	0xe1a04003
    c424:	e59f3ab0 	.word	0xe59f3ab0
    c428:	e5932000 	.word	0xe5932000
    c42c:	e59f3aac 	.word	0xe59f3aac
    c430:	e5933000 	.word	0xe5933000
    c434:	e2431001 	.word	0xe2431001
    c438:	e59f0ab0 	.word	0xe59f0ab0
    c43c:	e1a03002 	.word	0xe1a03002
    c440:	e1a03083 	.word	0xe1a03083
    c444:	e0833002 	.word	0xe0833002
    c448:	e1a03103 	.word	0xe1a03103
    c44c:	e0833002 	.word	0xe0833002
    c450:	e0833001 	.word	0xe0833001
    c454:	e7901103 	.word	0xe7901103
    c458:	e59f3a80 	.word	0xe59f3a80
    c45c:	e5932000 	.word	0xe5932000
    c460:	e59f3aa0 	.word	0xe59f3aa0
    c464:	e7933102 	.word	0xe7933102
    c468:	e1a00001 	.word	0xe1a00001
    c46c:	e1a01003 	.word	0xe1a01003
    c470:	ebfff71c 	.word	0xebfff71c
    c474:	e1a03000 	.word	0xe1a03000
    c478:	e1a00004 	.word	0xe1a00004
    c47c:	e1a01003 	.word	0xe1a01003
    c480:	ebfff670 	.word	0xebfff670
    c484:	e1a03000 	.word	0xe1a03000
    c488:	e1a02003 	.word	0xe1a02003
    c48c:	e59f3a70 	.word	0xe59f3a70
    c490:	e5832000 	.word	0xe5832000
    c494:	e59f3a44 	.word	0xe59f3a44
    c498:	e5932000 	.word	0xe5932000
    c49c:	e59f3a38 	.word	0xe59f3a38
    c4a0:	e5931000 	.word	0xe5931000
    c4a4:	e59f0a44 	.word	0xe59f0a44
    c4a8:	e1a03002 	.word	0xe1a03002
    c4ac:	e1a03083 	.word	0xe1a03083
    c4b0:	e0833002 	.word	0xe0833002
    c4b4:	e1a03103 	.word	0xe1a03103
    c4b8:	e0833002 	.word	0xe0833002
    c4bc:	e0833001 	.word	0xe0833001
    c4c0:	e7901103 	.word	0xe7901103
    c4c4:	e59f3a14 	.word	0xe59f3a14
    c4c8:	e5932000 	.word	0xe5932000
    c4cc:	e59f3a34 	.word	0xe59f3a34
    c4d0:	e7933102 	.word	0xe7933102
    c4d4:	e1a00001 	.word	0xe1a00001
    c4d8:	e1a01003 	.word	0xe1a01003
    c4dc:	ebfff701 	.word	0xebfff701
    c4e0:	e1a03000 	.word	0xe1a03000
    c4e4:	e1a04003 	.word	0xe1a04003
    c4e8:	e59f39ec 	.word	0xe59f39ec
    c4ec:	e5932000 	.word	0xe5932000
    c4f0:	e59f39e8 	.word	0xe59f39e8
    c4f4:	e5933000 	.word	0xe5933000
    c4f8:	e2431001 	.word	0xe2431001
    c4fc:	e59f09ec 	.word	0xe59f09ec
    c500:	e1a03002 	.word	0xe1a03002
    c504:	e1a03083 	.word	0xe1a03083
    c508:	e0833002 	.word	0xe0833002
    c50c:	e1a03103 	.word	0xe1a03103
    c510:	e0833002 	.word	0xe0833002
    c514:	e0833001 	.word	0xe0833001
    c518:	e7901103 	.word	0xe7901103
    c51c:	e59f39bc 	.word	0xe59f39bc
    c520:	e5932000 	.word	0xe5932000
    c524:	e59f39d4 	.word	0xe59f39d4
    c528:	e7933102 	.word	0xe7933102
    c52c:	e1a00001 	.word	0xe1a00001
    c530:	e1a01003 	.word	0xe1a01003
    c534:	ebfff6eb 	.word	0xebfff6eb
    c538:	e1a03000 	.word	0xe1a03000
    c53c:	e1a00004 	.word	0xe1a00004
    c540:	e1a01003 	.word	0xe1a01003
    c544:	ebfff63e 	.word	0xebfff63e
    c548:	e1a03000 	.word	0xe1a03000
    c54c:	e1a02003 	.word	0xe1a02003
    c550:	e59f39b4 	.word	0xe59f39b4
    c554:	e5832000 	.word	0xe5832000
    c558:	e59f39b0 	.word	0xe59f39b0
    c55c:	e5934000 	.word	0xe5934000
    c560:	e59f3990 	.word	0xe59f3990
    c564:	e5932000 	.word	0xe5932000
    c568:	e59f3994 	.word	0xe59f3994
    c56c:	e5933000 	.word	0xe5933000
    c570:	e1a00002 	.word	0xe1a00002
    c574:	e1a01003 	.word	0xe1a01003
    c578:	ebfff6da 	.word	0xebfff6da
    c57c:	e1a03000 	.word	0xe1a03000
    c580:	e1a0c003 	.word	0xe1a0c003
    c584:	e59f3954 	.word	0xe59f3954
    c588:	e5932000 	.word	0xe5932000
    c58c:	e59f3948 	.word	0xe59f3948
    c590:	e5931000 	.word	0xe5931000
    c594:	e59f0978 	.word	0xe59f0978
    c598:	e1a03002 	.word	0xe1a03002
    c59c:	e1a03083 	.word	0xe1a03083
    c5a0:	e0833002 	.word	0xe0833002
    c5a4:	e1a03103 	.word	0xe1a03103
    c5a8:	e0833002 	.word	0xe0833002
    c5ac:	e0833001 	.word	0xe0833001
    c5b0:	e7903103 	.word	0xe7903103
    c5b4:	e1a0000c 	.word	0xe1a0000c
    c5b8:	e1a01003 	.word	0xe1a01003
    c5bc:	ebfff6c9 	.word	0xebfff6c9
    c5c0:	e1a03000 	.word	0xe1a03000
    c5c4:	e1a00004 	.word	0xe1a00004
    c5c8:	e1a01003 	.word	0xe1a01003
    c5cc:	ebfff61c 	.word	0xebfff61c
    c5d0:	e1a03000 	.word	0xe1a03000
    c5d4:	e1a02003 	.word	0xe1a02003
    c5d8:	e59f3930 	.word	0xe59f3930
    c5dc:	e5832000 	.word	0xe5832000
    c5e0:	e59f38f8 	.word	0xe59f38f8
    c5e4:	e5932000 	.word	0xe5932000
    c5e8:	e59f3928 	.word	0xe59f3928
    c5ec:	e7932102 	.word	0xe7932102
    c5f0:	e59f3914 	.word	0xe59f3914
    c5f4:	e5933000 	.word	0xe5933000
    c5f8:	e1a00002 	.word	0xe1a00002
    c5fc:	e1a01003 	.word	0xe1a01003
    c600:	ebfff6b8 	.word	0xebfff6b8
    c604:	e1a03000 	.word	0xe1a03000
    c608:	e1a02003 	.word	0xe1a02003
    c60c:	e59f38e8 	.word	0xe59f38e8
    c610:	e5933000 	.word	0xe5933000
    c614:	e1a00002 	.word	0xe1a00002
    c618:	e1a01003 	.word	0xe1a01003
    c61c:	ebfff6b1 	.word	0xebfff6b1
    c620:	e1a03000 	.word	0xe1a03000
    c624:	e1a02003 	.word	0xe1a02003
    c628:	e59f38ec 	.word	0xe59f38ec
    c62c:	e5933000 	.word	0xe5933000
    c630:	e1a00002 	.word	0xe1a00002
    c634:	e1a01003 	.word	0xe1a01003
    c638:	ebfff602 	.word	0xebfff602
    c63c:	e1a03000 	.word	0xe1a03000
    c640:	e1a02003 	.word	0xe1a02003
    c644:	e59f38d0 	.word	0xe59f38d0
    c648:	e5832000 	.word	0xe5832000
    c64c:	e59f3888 	.word	0xe59f3888
    c650:	e5932000 	.word	0xe5932000
    c654:	e59f38c4 	.word	0xe59f38c4
    c658:	e7932102 	.word	0xe7932102
    c65c:	e59f38a0 	.word	0xe59f38a0
    c660:	e5933000 	.word	0xe5933000
    c664:	e1a00002 	.word	0xe1a00002
    c668:	e1a01003 	.word	0xe1a01003
    c66c:	ebfff69d 	.word	0xebfff69d
    c670:	e1a03000 	.word	0xe1a03000
    c674:	e1a02003 	.word	0xe1a02003
    c678:	e59f387c 	.word	0xe59f387c
    c67c:	e5933000 	.word	0xe5933000
    c680:	e1a00002 	.word	0xe1a00002
    c684:	e1a01003 	.word	0xe1a01003
    c688:	ebfff696 	.word	0xebfff696
    c68c:	e1a03000 	.word	0xe1a03000
    c690:	e1a02003 	.word	0xe1a02003
    c694:	e59f3888 	.word	0xe59f3888
    c698:	e5933000 	.word	0xe5933000
    c69c:	e1a00002 	.word	0xe1a00002
    c6a0:	e1a01003 	.word	0xe1a01003
    c6a4:	ebfff5e7 	.word	0xebfff5e7
    c6a8:	e1a03000 	.word	0xe1a03000
    c6ac:	e1a02003 	.word	0xe1a02003
    c6b0:	e59f386c 	.word	0xe59f386c
    c6b4:	e5832000 	.word	0xe5832000
    c6b8:	e59f3868 	.word	0xe59f3868
    c6bc:	e5933000 	.word	0xe5933000
    c6c0:	e1a00003 	.word	0xe1a00003
    c6c4:	e59f1860 	.word	0xe59f1860
    c6c8:	ebfff748 	.word	0xebfff748
    c6cc:	e1a03000 	.word	0xe1a03000
    c6d0:	e3530000 	.word	0xe3530000
    c6d4:	0a000000 	.word	0x0a000000
    c6d8:	ea000063 	.word	0xea000063
    c6dc:	e59f37fc 	.word	0xe59f37fc
    c6e0:	e5933000 	.word	0xe5933000
    c6e4:	e3530001 	.word	0xe3530001
    c6e8:	1a00005f 	.word	0x1a00005f
    c6ec:	e59f37e8 	.word	0xe59f37e8
    c6f0:	e5933000 	.word	0xe5933000
    c6f4:	e3530001 	.word	0xe3530001
    c6f8:	1a000009 	.word	0x1a000009
    c6fc:	e59f37d8 	.word	0xe59f37d8
    c700:	e5931000 	.word	0xe5931000
    c704:	e59f37d0 	.word	0xe59f37d0
    c708:	e5933000 	.word	0xe5933000
    c70c:	e2432001 	.word	0xe2432001
    c710:	e59f3818 	.word	0xe59f3818
    c714:	e7932102 	.word	0xe7932102
    c718:	e59f3810 	.word	0xe59f3810
    c71c:	e7832101 	.word	0xe7832101
    c720:	ea000029 	.word	0xea000029
    c724:	e59f37b0 	.word	0xe59f37b0
    c728:	e5934000 	.word	0xe5934000
    c72c:	e59f37a8 	.word	0xe59f37a8
    c730:	e5933000 	.word	0xe5933000
    c734:	e2432001 	.word	0xe2432001
    c738:	e59f37f0 	.word	0xe59f37f0
    c73c:	e7932102 	.word	0xe7932102
    c740:	e59f37ec 	.word	0xe59f37ec
    c744:	e5933000 	.word	0xe5933000
    c748:	e1a00002 	.word	0xe1a00002
    c74c:	e1a01003 	.word	0xe1a01003
    c750:	ebfff664 	.word	0xebfff664
    c754:	e1a03000 	.word	0xe1a03000
    c758:	e1a05003 	.word	0xe1a05003
    c75c:	e59f377c 	.word	0xe59f377c
    c760:	e5932000 	.word	0xe5932000
    c764:	e59f3770 	.word	0xe59f3770
    c768:	e5931000 	.word	0xe5931000
    c76c:	e59f07c4 	.word	0xe59f07c4
    c770:	e1a03002 	.word	0xe1a03002
    c774:	e1a03083 	.word	0xe1a03083
    c778:	e0833002 	.word	0xe0833002
    c77c:	e1a03103 	.word	0xe1a03103
    c780:	e0833002 	.word	0xe0833002
    c784:	e0833001 	.word	0xe0833001
    c788:	e7901103 	.word	0xe7901103
    c78c:	e59f3748 	.word	0xe59f3748
    c790:	e5933000 	.word	0xe5933000
    c794:	e2432002 	.word	0xe2432002
    c798:	e59f3790 	.word	0xe59f3790
    c79c:	e7933102 	.word	0xe7933102
    c7a0:	e1a00001 	.word	0xe1a00001
    c7a4:	e1a01003 	.word	0xe1a01003
    c7a8:	ebfff64e 	.word	0xebfff64e
    c7ac:	e1a03000 	.word	0xe1a03000
    c7b0:	e1a00005 	.word	0xe1a00005
    c7b4:	e1a01003 	.word	0xe1a01003
    c7b8:	ebfff5a1 	.word	0xebfff5a1
    c7bc:	e1a03000 	.word	0xe1a03000
    c7c0:	e1a02003 	.word	0xe1a02003
    c7c4:	e59f3764 	.word	0xe59f3764
    c7c8:	e7832104 	.word	0xe7832104
    c7cc:	e59f3708 	.word	0xe59f3708
    c7d0:	e5932000 	.word	0xe5932000
    c7d4:	e59f3754 	.word	0xe59f3754
    c7d8:	e7932102 	.word	0xe7932102
    c7dc:	e59f3714 	.word	0xe59f3714
    c7e0:	e5933000 	.word	0xe5933000
    c7e4:	e1a00002 	.word	0xe1a00002
    c7e8:	e1a01003 	.word	0xe1a01003
    c7ec:	ebfff63d 	.word	0xebfff63d
    c7f0:	e1a03000 	.word	0xe1a03000
    c7f4:	e1a02003 	.word	0xe1a02003
    c7f8:	e59f373c 	.word	0xe59f373c
    c7fc:	e5832000 	.word	0xe5832000
    c800:	e59f36d8 	.word	0xe59f36d8
    c804:	e5932000 	.word	0xe5932000
    c808:	e59f3708 	.word	0xe59f3708
    c80c:	e7932102 	.word	0xe7932102
    c810:	e59f36f4 	.word	0xe59f36f4
    c814:	e5933000 	.word	0xe5933000
    c818:	e1a00002 	.word	0xe1a00002
    c81c:	e1a01003 	.word	0xe1a01003
    c820:	ebfff630 	.word	0xebfff630
    c824:	e1a03000 	.word	0xe1a03000
    c828:	e1a02003 	.word	0xe1a02003
    c82c:	e59f3708 	.word	0xe59f3708
    c830:	e5933000 	.word	0xe5933000
    c834:	e1a00002 	.word	0xe1a00002
    c838:	e1a01003 	.word	0xe1a01003
    c83c:	ebfff629 	.word	0xebfff629
    c840:	e1a03000 	.word	0xe1a03000
    c844:	e1a02003 	.word	0xe1a02003
    c848:	e59f36f0 	.word	0xe59f36f0
    c84c:	e5933000 	.word	0xe5933000
    c850:	e1a00002 	.word	0xe1a00002
    c854:	e1a01003 	.word	0xe1a01003
    c858:	ebfff57a 	.word	0xebfff57a
    c85c:	e1a03000 	.word	0xe1a03000
    c860:	e1a02003 	.word	0xe1a02003
    c864:	e59f36d4 	.word	0xe59f36d4
    c868:	e5832000 	.word	0xe5832000
    c86c:	e59f36d0 	.word	0xe59f36d0
    c870:	e5933000 	.word	0xe5933000
    c874:	e2432001 	.word	0xe2432001
    c878:	e59f36c4 	.word	0xe59f36c4
    c87c:	e5832000 	.word	0xe5832000
    c880:	e59f3658 	.word	0xe59f3658
    c884:	e5932000 	.word	0xe5932000
    c888:	e59f36b8 	.word	0xe59f36b8
    c88c:	e5933000 	.word	0xe5933000
    c890:	e0822003 	.word	0xe0822003
    c894:	e59f3644 	.word	0xe59f3644
    c898:	e5832000 	.word	0xe5832000
    c89c:	e59f36a0 	.word	0xe59f36a0
    c8a0:	e5933000 	.word	0xe5933000
    c8a4:	e3530000 	.word	0xe3530000
    c8a8:	cafffc3f 	.word	0xcafffc3f
    c8ac:	e59f3628 	.word	0xe59f3628
    c8b0:	e5933000 	.word	0xe5933000
    c8b4:	e2832001 	.word	0xe2832001
    c8b8:	e59f361c 	.word	0xe59f361c
    c8bc:	e5832000 	.word	0xe5832000
    c8c0:	e59f3614 	.word	0xe59f3614
    c8c4:	e5932000 	.word	0xe5932000
    c8c8:	e59f367c 	.word	0xe59f367c
    c8cc:	e5933000 	.word	0xe5933000
    c8d0:	e1520003 	.word	0xe1520003
    c8d4:	dafffc11 	.word	0xdafffc11
    c8d8:	e59f3648 	.word	0xe59f3648
    c8dc:	e5933000 	.word	0xe5933000
    c8e0:	e1a00003 	.word	0xe1a00003
    c8e4:	e59f1640 	.word	0xe59f1640
    c8e8:	ebfff6c0 	.word	0xebfff6c0
    c8ec:	e1a03000 	.word	0xe1a03000
    c8f0:	e3530000 	.word	0xe3530000
    c8f4:	0a000000 	.word	0x0a000000
    c8f8:	ea000004 	.word	0xea000004
    c8fc:	e59f363c 	.word	0xe59f363c
    c900:	e5932000 	.word	0xe5932000
    c904:	e59f3610 	.word	0xe59f3610
    c908:	e5832000 	.word	0xe5832000
    c90c:	ea00000a 	.word	0xea00000a
    c910:	e59f3604 	.word	0xe59f3604
    c914:	e5932000 	.word	0xe5932000
    c918:	e59f3608 	.word	0xe59f3608
    c91c:	e5933000 	.word	0xe5933000
    c920:	e1a00002 	.word	0xe1a00002
    c924:	e1a01003 	.word	0xe1a01003
    c928:	ebfff654 	.word	0xebfff654
    c92c:	e1a03000 	.word	0xe1a03000
    c930:	e1a02003 	.word	0xe1a02003
    c934:	e59f35e0 	.word	0xe59f35e0
    c938:	e5832000 	.word	0xe5832000
    c93c:	e59f35cc 	.word	0xe59f35cc
    c940:	e5933000 	.word	0xe5933000
    c944:	e2232102 	.word	0xe2232102
    c948:	e59f3600 	.word	0xe59f3600
    c94c:	e5933000 	.word	0xe5933000
    c950:	e1a00002 	.word	0xe1a00002
    c954:	e1a01003 	.word	0xe1a01003
    c958:	ebfff5e2 	.word	0xebfff5e2
    c95c:	e1a03000 	.word	0xe1a03000
    c960:	e1a04003 	.word	0xe1a04003
    c964:	e59f35b8 	.word	0xe59f35b8
    c968:	e5932000 	.word	0xe5932000
    c96c:	e59f35e0 	.word	0xe59f35e0
    c970:	e5933000 	.word	0xe5933000
    c974:	e1a00002 	.word	0xe1a00002
    c978:	e1a01003 	.word	0xe1a01003
    c97c:	ebfff5d9 	.word	0xebfff5d9
    c980:	e1a03000 	.word	0xe1a03000
    c984:	e1a00004 	.word	0xe1a00004
    c988:	e1a01003 	.word	0xe1a01003
    c98c:	ebfff52c 	.word	0xebfff52c
    c990:	e1a03000 	.word	0xe1a03000
    c994:	e1a02003 	.word	0xe1a02003
    c998:	e59f35b8 	.word	0xe59f35b8
    c99c:	e5832000 	.word	0xe5832000
    c9a0:	e59f3574 	.word	0xe59f3574
    c9a4:	e5932000 	.word	0xe5932000
    c9a8:	e59f35ac 	.word	0xe59f35ac
    c9ac:	e5832000 	.word	0xe5832000
    c9b0:	e59f3558 	.word	0xe59f3558
    c9b4:	e5932000 	.word	0xe5932000
    c9b8:	e59f3594 	.word	0xe59f3594
    c9bc:	e5933000 	.word	0xe5933000
    c9c0:	e1a00002 	.word	0xe1a00002
    c9c4:	e1a01003 	.word	0xe1a01003
    c9c8:	ebfff5c6 	.word	0xebfff5c6
    c9cc:	e1a03000 	.word	0xe1a03000
    c9d0:	e1a04003 	.word	0xe1a04003
    c9d4:	e59f3548 	.word	0xe59f3548
    c9d8:	e5932000 	.word	0xe5932000
    c9dc:	e59f356c 	.word	0xe59f356c
    c9e0:	e5933000 	.word	0xe5933000
    c9e4:	e1a00002 	.word	0xe1a00002
    c9e8:	e1a01003 	.word	0xe1a01003
    c9ec:	ebfff5bd 	.word	0xebfff5bd
    c9f0:	e1a03000 	.word	0xe1a03000
    c9f4:	e1a00004 	.word	0xe1a00004
    c9f8:	e1a01003 	.word	0xe1a01003
    c9fc:	ebfff510 	.word	0xebfff510
    ca00:	e1a03000 	.word	0xe1a03000
    ca04:	e1a02003 	.word	0xe1a02003
    ca08:	e59f3550 	.word	0xe59f3550
    ca0c:	e5832000 	.word	0xe5832000
    ca10:	e59f3540 	.word	0xe59f3540
    ca14:	e5932000 	.word	0xe5932000
    ca18:	e59f3538 	.word	0xe59f3538
    ca1c:	e5933000 	.word	0xe5933000
    ca20:	e1a00002 	.word	0xe1a00002
    ca24:	e1a01003 	.word	0xe1a01003
    ca28:	ebfff5ae 	.word	0xebfff5ae
    ca2c:	e1a03000 	.word	0xe1a03000
    ca30:	e1a04003 	.word	0xe1a04003
    ca34:	e59f3520 	.word	0xe59f3520
    ca38:	e5932000 	.word	0xe5932000
    ca3c:	e59f3518 	.word	0xe59f3518
    ca40:	e5933000 	.word	0xe5933000
    ca44:	e1a00002 	.word	0xe1a00002
    ca48:	e1a01003 	.word	0xe1a01003
    ca4c:	ebfff5a5 	.word	0xebfff5a5
    ca50:	e1a03000 	.word	0xe1a03000
    ca54:	e1a00004 	.word	0xe1a00004
    ca58:	e1a01003 	.word	0xe1a01003
    ca5c:	ebfff4f9 	.word	0xebfff4f9
    ca60:	e1a03000 	.word	0xe1a03000
    ca64:	e1a00003 	.word	0xe1a00003
    ca68:	ebfff335 	.word	0xebfff335
    ca6c:	e1a03000 	.word	0xe1a03000
    ca70:	e1a04001 	.word	0xe1a04001
    ca74:	e1a00003 	.word	0xe1a00003
    ca78:	e1a01004 	.word	0xe1a01004
    ca7c:	eb001698 	.word	0xeb001698
    ca80:	e1a03000 	.word	0xe1a03000
    ca84:	e1a04001 	.word	0xe1a04001
    ca88:	e1a00003 	.word	0xe1a00003
    ca8c:	e1a01004 	.word	0xe1a01004
    ca90:	eb001653 	.word	0xeb001653
    ca94:	e1a02000 	.word	0xe1a02000
    ca98:	e59f34c4 	.word	0xe59f34c4
    ca9c:	e5832000 	.word	0xe5832000
    caa0:	e59f34bc 	.word	0xe59f34bc
    caa4:	e5932000 	.word	0xe5932000
    caa8:	e59f34b4 	.word	0xe59f34b4
    caac:	e5933000 	.word	0xe5933000
    cab0:	e1a00002 	.word	0xe1a00002
    cab4:	e1a01003 	.word	0xe1a01003
    cab8:	ebfff58a 	.word	0xebfff58a
    cabc:	e1a03000 	.word	0xe1a03000
    cac0:	e1a04003 	.word	0xe1a04003
    cac4:	e59f3494 	.word	0xe59f3494
    cac8:	e5932000 	.word	0xe5932000
    cacc:	e59f348c 	.word	0xe59f348c
    cad0:	e5933000 	.word	0xe5933000
    cad4:	e1a00002 	.word	0xe1a00002
    cad8:	e1a01003 	.word	0xe1a01003
    cadc:	ebfff581 	.word	0xebfff581
    cae0:	e1a03000 	.word	0xe1a03000
    cae4:	e1a00004 	.word	0xe1a00004
    cae8:	e1a01003 	.word	0xe1a01003
    caec:	ebfff4d5 	.word	0xebfff4d5
    caf0:	e1a03000 	.word	0xe1a03000
    caf4:	e1a00003 	.word	0xe1a00003
    caf8:	ebfff311 	.word	0xebfff311
    cafc:	e1a03000 	.word	0xe1a03000
    cb00:	e1a04001 	.word	0xe1a04001
    cb04:	e1a00003 	.word	0xe1a00003
    cb08:	e1a01004 	.word	0xe1a01004
    cb0c:	eb001674 	.word	0xeb001674
    cb10:	e1a03000 	.word	0xe1a03000
    cb14:	e1a04001 	.word	0xe1a04001
    cb18:	e1a00003 	.word	0xe1a00003
    cb1c:	e1a01004 	.word	0xe1a01004
    cb20:	eb00162f 	.word	0xeb00162f
    cb24:	e1a02000 	.word	0xe1a02000
    cb28:	e59b3014 	.word	0xe59b3014
    cb2c:	e5832000 	.word	0xe5832000
    cb30:	e59f3424 	.word	0xe59f3424
    cb34:	e5933000 	.word	0xe5933000
    cb38:	e1a00003 	.word	0xe1a00003
    cb3c:	ebfff300 	.word	0xebfff300
    cb40:	e1a05000 	.word	0xe1a05000
    cb44:	e1a06001 	.word	0xe1a06001
    cb48:	e59f3408 	.word	0xe59f3408
    cb4c:	e5933000 	.word	0xe5933000
    cb50:	e1a00003 	.word	0xe1a00003
    cb54:	ebfff2fa 	.word	0xebfff2fa
    cb58:	e1a03000 	.word	0xe1a03000
    cb5c:	e1a04001 	.word	0xe1a04001
    cb60:	e1a00005 	.word	0xe1a00005
    cb64:	e1a01006 	.word	0xe1a01006
    cb68:	e1a02003 	.word	0xe1a02003
    cb6c:	e1a03004 	.word	0xe1a03004
    cb70:	eb001661 	.word	0xeb001661
    cb74:	e1a05000 	.word	0xe1a05000
    cb78:	e1a06001 	.word	0xe1a06001
    cb7c:	e59f33e4 	.word	0xe59f33e4
    cb80:	e5933000 	.word	0xe5933000
    cb84:	e1a00003 	.word	0xe1a00003
    cb88:	ebfff2ed 	.word	0xebfff2ed
    cb8c:	e1a03000 	.word	0xe1a03000
    cb90:	e1a04001 	.word	0xe1a04001
    cb94:	e1a00005 	.word	0xe1a00005
    cb98:	e1a01006 	.word	0xe1a01006
    cb9c:	e1a02003 	.word	0xe1a02003
    cba0:	e1a03004 	.word	0xe1a03004
    cba4:	ebfff3ba 	.word	0xebfff3ba
    cba8:	e1a03000 	.word	0xe1a03000
    cbac:	e1a04001 	.word	0xe1a04001
    cbb0:	e1a00003 	.word	0xe1a00003
    cbb4:	e1a01004 	.word	0xe1a01004
    cbb8:	eb001609 	.word	0xeb001609
    cbbc:	e1a02000 	.word	0xe1a02000
    cbc0:	e59b300c 	.word	0xe59b300c
    cbc4:	e5832000 	.word	0xe5832000
    cbc8:	e59f3390 	.word	0xe59f3390
    cbcc:	e5933000 	.word	0xe5933000
    cbd0:	e1a00003 	.word	0xe1a00003
    cbd4:	ebfff2da 	.word	0xebfff2da
    cbd8:	e1a05000 	.word	0xe1a05000
    cbdc:	e1a06001 	.word	0xe1a06001
    cbe0:	e59f337c 	.word	0xe59f337c
    cbe4:	e5933000 	.word	0xe5933000
    cbe8:	e1a00003 	.word	0xe1a00003
    cbec:	ebfff2d4 	.word	0xebfff2d4
    cbf0:	e1a03000 	.word	0xe1a03000
    cbf4:	e1a04001 	.word	0xe1a04001
    cbf8:	e1a00005 	.word	0xe1a00005
    cbfc:	e1a01006 	.word	0xe1a01006
    cc00:	e1a02003 	.word	0xe1a02003
    cc04:	e1a03004 	.word	0xe1a03004
    cc08:	eb00163b 	.word	0xeb00163b
    cc0c:	e1a05000 	.word	0xe1a05000
    cc10:	e1a06001 	.word	0xe1a06001
    cc14:	e59f334c 	.word	0xe59f334c
    cc18:	e5933000 	.word	0xe5933000
    cc1c:	e1a00003 	.word	0xe1a00003
    cc20:	ebfff2c7 	.word	0xebfff2c7
    cc24:	e1a03000 	.word	0xe1a03000
    cc28:	e1a04001 	.word	0xe1a04001
    cc2c:	e1a00005 	.word	0xe1a00005
    cc30:	e1a01006 	.word	0xe1a01006
    cc34:	e1a02003 	.word	0xe1a02003
    cc38:	e1a03004 	.word	0xe1a03004
    cc3c:	ebfff394 	.word	0xebfff394
    cc40:	e1a03000 	.word	0xe1a03000
    cc44:	e1a04001 	.word	0xe1a04001
    cc48:	e1a00003 	.word	0xe1a00003
    cc4c:	e1a01004 	.word	0xe1a01004
    cc50:	eb0015e3 	.word	0xeb0015e3
    cc54:	e1a02000 	.word	0xe1a02000
    cc58:	e59b3010 	.word	0xe59b3010
    cc5c:	e5832000 	.word	0xe5832000
    cc60:	e59b2018 	.word	0xe59b2018
    cc64:	e59f3300 	.word	0xe59f3300
    cc68:	e5823000 	.word	0xe5823000
    cc6c:	e51b302c 	.word	0xe51b302c
    cc70:	e3c33102 	.word	0xe3c33102
    cc74:	e1a00003 	.word	0xe1a00003
    cc78:	e59f12f0 	.word	0xe59f12f0
    cc7c:	ebfff5d7 	.word	0xebfff5d7
    cc80:	e1a03000 	.word	0xe1a03000
    cc84:	e3530000 	.word	0xe3530000
    cc88:	aa000000 	.word	0xaa000000
    cc8c:	ea000083 	.word	0xea000083
    cc90:	e51b002c 	.word	0xe51b002c
    cc94:	e59f1290 	.word	0xe59f1290
    cc98:	ebfff5d0 	.word	0xebfff5d0
    cc9c:	e1a03000 	.word	0xe1a03000
    cca0:	e3530000 	.word	0xe3530000
    cca4:	ca000000 	.word	0xca000000
    cca8:	ea00000f 	.word	0xea00000f
    ccac:	e59b0004 	.word	0xe59b0004
    ccb0:	e59f1274 	.word	0xe59f1274
    ccb4:	ebfff5c9 	.word	0xebfff5c9
    ccb8:	e1a03000 	.word	0xe1a03000
    ccbc:	e3530000 	.word	0xe3530000
    ccc0:	aa000000 	.word	0xaa000000
    ccc4:	ea000008 	.word	0xea000008
    ccc8:	e59b300c 	.word	0xe59b300c
    cccc:	e5933000 	.word	0xe5933000
    ccd0:	e1a00003 	.word	0xe1a00003
    ccd4:	e59b1004 	.word	0xe59b1004
    ccd8:	ebfff459 	.word	0xebfff459
    ccdc:	e1a03000 	.word	0xe1a03000
    cce0:	e1a02003 	.word	0xe1a02003
    cce4:	e59b3018 	.word	0xe59b3018
    cce8:	e5832000 	.word	0xe5832000
    ccec:	e51b002c 	.word	0xe51b002c
    ccf0:	e59f1234 	.word	0xe59f1234
    ccf4:	ebfff5b9 	.word	0xebfff5b9
    ccf8:	e1a03000 	.word	0xe1a03000
    ccfc:	e3530000 	.word	0xe3530000
    cd00:	ca000000 	.word	0xca000000
    cd04:	ea000011 	.word	0xea000011
    cd08:	e59b0004 	.word	0xe59b0004
    cd0c:	e59f1218 	.word	0xe59f1218
    cd10:	ebfff5b4 	.word	0xebfff5b4
    cd14:	e1a03000 	.word	0xe1a03000
    cd18:	e3530000 	.word	0xe3530000
    cd1c:	ba000000 	.word	0xba000000
    cd20:	ea00000a 	.word	0xea00000a
    cd24:	e59b300c 	.word	0xe59b300c
    cd28:	e5932000 	.word	0xe5932000
    cd2c:	e59b3004 	.word	0xe59b3004
    cd30:	e3c33102 	.word	0xe3c33102
    cd34:	e1a00002 	.word	0xe1a00002
    cd38:	e1a01003 	.word	0xe1a01003
    cd3c:	ebfff441 	.word	0xebfff441
    cd40:	e1a03000 	.word	0xe1a03000
    cd44:	e1a02003 	.word	0xe1a02003
    cd48:	e59b3018 	.word	0xe59b3018
    cd4c:	e5832000 	.word	0xe5832000
    cd50:	e51b002c 	.word	0xe51b002c
    cd54:	e59f11d0 	.word	0xe59f11d0
    cd58:	ebfff5a2 	.word	0xebfff5a2
    cd5c:	e1a03000 	.word	0xe1a03000
    cd60:	e3530000 	.word	0xe3530000
    cd64:	ba000000 	.word	0xba000000
    cd68:	ea00000f 	.word	0xea00000f
    cd6c:	e59b0004 	.word	0xe59b0004
    cd70:	e59f11b4 	.word	0xe59f11b4
    cd74:	ebfff599 	.word	0xebfff599
    cd78:	e1a03000 	.word	0xe1a03000
    cd7c:	e3530000 	.word	0xe3530000
    cd80:	aa000000 	.word	0xaa000000
    cd84:	ea000008 	.word	0xea000008
    cd88:	e59b300c 	.word	0xe59b300c
    cd8c:	e5933000 	.word	0xe5933000
    cd90:	e1a00003 	.word	0xe1a00003
    cd94:	e59b1004 	.word	0xe59b1004
    cd98:	ebfff42a 	.word	0xebfff42a
    cd9c:	e1a03000 	.word	0xe1a03000
    cda0:	e1a02003 	.word	0xe1a02003
    cda4:	e59b3018 	.word	0xe59b3018
    cda8:	e5832000 	.word	0xe5832000
    cdac:	e51b002c 	.word	0xe51b002c
    cdb0:	e59f1174 	.word	0xe59f1174
    cdb4:	ebfff58b 	.word	0xebfff58b
    cdb8:	e1a03000 	.word	0xe1a03000
    cdbc:	e3530000 	.word	0xe3530000
    cdc0:	ba000000 	.word	0xba000000
    cdc4:	ea000011 	.word	0xea000011
    cdc8:	e59b0004 	.word	0xe59b0004
    cdcc:	e59f1158 	.word	0xe59f1158
    cdd0:	ebfff584 	.word	0xebfff584
    cdd4:	e1a03000 	.word	0xe1a03000
    cdd8:	e3530000 	.word	0xe3530000
    cddc:	ba000000 	.word	0xba000000
    cde0:	ea00000a 	.word	0xea00000a
    cde4:	e59b300c 	.word	0xe59b300c
    cde8:	e5932000 	.word	0xe5932000
    cdec:	e59b3004 	.word	0xe59b3004
    cdf0:	e3c33102 	.word	0xe3c33102
    cdf4:	e1a00002 	.word	0xe1a00002
    cdf8:	e1a01003 	.word	0xe1a01003
    cdfc:	ebfff410 	.word	0xebfff410
    ce00:	e1a03000 	.word	0xe1a03000
    ce04:	e1a02003 	.word	0xe1a02003
    ce08:	e59b3018 	.word	0xe59b3018
    ce0c:	e5832000 	.word	0xe5832000
    ce10:	e59b3018 	.word	0xe59b3018
    ce14:	e5933000 	.word	0xe5933000
    ce18:	e1a00003 	.word	0xe1a00003
    ce1c:	e59f1150 	.word	0xe59f1150
    ce20:	ebfff56e 	.word	0xebfff56e
    ce24:	e1a03000 	.word	0xe1a03000
    ce28:	e3530000 	.word	0xe3530000
    ce2c:	ca000000 	.word	0xca000000
    ce30:	ea000008 	.word	0xea000008
    ce34:	e59b3018 	.word	0xe59b3018
    ce38:	e5933000 	.word	0xe5933000
    ce3c:	e1a00003 	.word	0xe1a00003
    ce40:	e59f1130 	.word	0xe59f1130
    ce44:	ebfff3fe 	.word	0xebfff3fe
    ce48:	e1a03000 	.word	0xe1a03000
    ce4c:	e1a02003 	.word	0xe1a02003
    ce50:	e59b3018 	.word	0xe59b3018
    ce54:	e5832000 	.word	0xe5832000
    ce58:	e59b3018 	.word	0xe59b3018
    ce5c:	e5933000 	.word	0xe5933000
    ce60:	e1a00003 	.word	0xe1a00003
    ce64:	e59f1110 	.word	0xe59f1110
    ce68:	ebfff55e 	.word	0xebfff55e
    ce6c:	e1a03000 	.word	0xe1a03000
    ce70:	e3530000 	.word	0xe3530000
    ce74:	ba000000 	.word	0xba000000
    ce78:	ea000008 	.word	0xea000008
    ce7c:	e59b3018 	.word	0xe59b3018
    ce80:	e5933000 	.word	0xe5933000
    ce84:	e1a00003 	.word	0xe1a00003
    ce88:	e59f10e8 	.word	0xe59f10e8
    ce8c:	ebfff3ed 	.word	0xebfff3ed
    ce90:	e1a03000 	.word	0xe1a03000
    ce94:	e1a02003 	.word	0xe1a02003
    ce98:	e59b3018 	.word	0xe59b3018
    ce9c:	e5832000 	.word	0xe5832000
    cea0:	e59f20d8 	.word	0xe59f20d8
    cea4:	e59b3008 	.word	0xe59b3008
    cea8:	e5823000 	.word	0xe5823000
    ceac:	e59f20d0 	.word	0xe59f20d0
    ceb0:	e51b3028 	.word	0xe51b3028
    ceb4:	e5823000 	.word	0xe5823000
    ceb8:	e59f20c8 	.word	0xe59f20c8
    cebc:	e51b302c 	.word	0xe51b302c
    cec0:	e5823000 	.word	0xe5823000
    cec4:	e59f20c0 	.word	0xe59f20c0
    cec8:	e59b3004 	.word	0xe59b3004
    cecc:	e5823000 	.word	0xe5823000
    ced0:	e24bd01c 	.word	0xe24bd01c
    ced4:	e89d68f0 	.word	0xe89d68f0
    ced8:	e12fff1e 	.word	0xe12fff1e
    cedc:	40001e1c 	.word	0x40001e1c
    cee0:	40001e18 	.word	0x40001e18
    cee4:	4000022c 	.word	0x4000022c
    cee8:	400004d0 	.word	0x400004d0
    ceec:	40001228 	.word	0x40001228
    cef0:	40001b60 	.word	0x40001b60
    cef4:	40000228 	.word	0x40000228
    cef8:	400011d8 	.word	0x400011d8
    cefc:	400011c4 	.word	0x400011c4
    cf00:	400015b0 	.word	0x400015b0
    cf04:	400011c0 	.word	0x400011c0
    cf08:	400015e4 	.word	0x400015e4
    cf0c:	400011bc 	.word	0x400011bc
    cf10:	400011d0 	.word	0x400011d0
    cf14:	400018bc 	.word	0x400018bc
    cf18:	40001548 	.word	0x40001548
    cf1c:	400011cc 	.word	0x400011cc
    cf20:	4000157c 	.word	0x4000157c
    cf24:	400011d4 	.word	0x400011d4
    cf28:	400011f4 	.word	0x400011f4
    cf2c:	00000000 	.word	0x00000000
    cf30:	40001514 	.word	0x40001514
    cf34:	400011f8 	.word	0x400011f8
    cf38:	40001270 	.word	0x40001270
    cf3c:	400011b8 	.word	0x400011b8
    cf40:	400011c8 	.word	0x400011c8
    cf44:	40001e04 	.word	0x40001e04
    cf48:	40001e08 	.word	0x40001e08
    cf4c:	40001e20 	.word	0x40001e20
    cf50:	400011e4 	.word	0x400011e4
    cf54:	400011e0 	.word	0x400011e0
    cf58:	400011b4 	.word	0x400011b4
    cf5c:	400011b0 	.word	0x400011b0
    cf60:	400011ac 	.word	0x400011ac
    cf64:	400011a8 	.word	0x400011a8
    cf68:	40001268 	.word	0x40001268
    cf6c:	c479c000 	.word	0xc479c000
    cf70:	425c0000 	.word	0x425c0000
    cf74:	43340000 	.word	0x43340000
    cf78:	43b40000 	.word	0x43b40000
    cf7c:	c3340000 	.word	0xc3340000
    cf80:	40001238 	.word	0x40001238
    cf84:	40001234 	.word	0x40001234
    cf88:	40001230 	.word	0x40001230
    cf8c:	4000122c 	.word	0x4000122c

0000cf90 <geomag>:
    cf90:	e1a0c00d 	.word	0xe1a0c00d
    cf94:	e92dd800 	.word	0xe92dd800
    cf98:	e24cb004 	.word	0xe24cb004
    cf9c:	e24dd01c 	.word	0xe24dd01c
    cfa0:	e50b0010 	.word	0xe50b0010
    cfa4:	e59f3048 	.word	0xe59f3048
    cfa8:	e58d3000 	.word	0xe58d3000
    cfac:	e59f3040 	.word	0xe59f3040
    cfb0:	e58d3004 	.word	0xe58d3004
    cfb4:	e3a03000 	.word	0xe3a03000
    cfb8:	e58d3008 	.word	0xe58d3008
    cfbc:	e3a03000 	.word	0xe3a03000
    cfc0:	e58d300c 	.word	0xe58d300c
    cfc4:	e3a03000 	.word	0xe3a03000
    cfc8:	e58d3010 	.word	0xe58d3010
    cfcc:	e3a03000 	.word	0xe3a03000
    cfd0:	e58d3014 	.word	0xe58d3014
    cfd4:	e3a00000 	.word	0xe3a00000
    cfd8:	e51b1010 	.word	0xe51b1010
    cfdc:	e59f2010 	.word	0xe59f2010
    cfe0:	e59f300c 	.word	0xe59f300c
    cfe4:	ebfff558 	.word	0xebfff558
    cfe8:	e24bd00c 	.word	0xe24bd00c
    cfec:	e89d6800 	.word	0xe89d6800
    cff0:	e12fff1e 	.word	0xe12fff1e
    cff4:	00000000 	.word	0x00000000

0000cff8 <geomg1>:
    cff8:	e1a0c00d 	.word	0xe1a0c00d
    cffc:	e92dd800 	.word	0xe92dd800
    d000:	e24cb004 	.word	0xe24cb004
    d004:	e24dd028 	.word	0xe24dd028
    d008:	e50b0010 	.word	0xe50b0010
    d00c:	e50b1014 	.word	0xe50b1014
    d010:	e50b2018 	.word	0xe50b2018
    d014:	e50b301c 	.word	0xe50b301c
    d018:	e51b3018 	.word	0xe51b3018
    d01c:	e58d3000 	.word	0xe58d3000
    d020:	e51b301c 	.word	0xe51b301c
    d024:	e58d3004 	.word	0xe58d3004
    d028:	e59b3004 	.word	0xe59b3004
    d02c:	e58d3008 	.word	0xe58d3008
    d030:	e59b3008 	.word	0xe59b3008
    d034:	e58d300c 	.word	0xe58d300c
    d038:	e59b300c 	.word	0xe59b300c
    d03c:	e58d3010 	.word	0xe58d3010
    d040:	e59b3010 	.word	0xe59b3010
    d044:	e58d3014 	.word	0xe58d3014
    d048:	e3a00001 	.word	0xe3a00001
    d04c:	e3a01000 	.word	0xe3a01000
    d050:	e51b2010 	.word	0xe51b2010
    d054:	e51b3014 	.word	0xe51b3014
    d058:	ebfff53b 	.word	0xebfff53b
    d05c:	e24bd00c 	.word	0xe24bd00c
    d060:	e89d6800 	.word	0xe89d6800
    d064:	e12fff1e 	.word	0xe12fff1e

0000d068 <getDeclination>:
    d068:	e1a0c00d 	.word	0xe1a0c00d
    d06c:	e92dd9f0 	.word	0xe92dd9f0
    d070:	e24cb004 	.word	0xe24cb004
    d074:	e24dd060 	.word	0xe24dd060
    d078:	e50b0060 	.word	0xe50b0060
    d07c:	e50b1064 	.word	0xe50b1064
    d080:	e50b2068 	.word	0xe50b2068
    d084:	e50b306c 	.word	0xe50b306c
    d088:	e59f36ac 	.word	0xe59f36ac
    d08c:	e50b3038 	.word	0xe50b3038
    d090:	e59f36a8 	.word	0xe59f36a8
    d094:	e50b3034 	.word	0xe50b3034
    d098:	e59f36a4 	.word	0xe59f36a4
    d09c:	e50b302c 	.word	0xe50b302c
    d0a0:	e59f26a0 	.word	0xe59f26a0
    d0a4:	e3a0300c 	.word	0xe3a0300c
    d0a8:	e5823000 	.word	0xe5823000
    d0ac:	e3a03000 	.word	0xe3a03000
    d0b0:	e50b305c 	.word	0xe50b305c
    d0b4:	e59f3690 	.word	0xe59f3690
    d0b8:	e50b3028 	.word	0xe50b3028
    d0bc:	e3a03000 	.word	0xe3a03000
    d0c0:	e50b3058 	.word	0xe50b3058
    d0c4:	e59f3680 	.word	0xe59f3680
    d0c8:	e50b3024 	.word	0xe50b3024
    d0cc:	e3a03000 	.word	0xe3a03000
    d0d0:	e50b3054 	.word	0xe50b3054
    d0d4:	e59f066c 	.word	0xe59f066c
    d0d8:	ebffffac 	.word	0xebffffac
    d0dc:	e51b0060 	.word	0xe51b0060
    d0e0:	ebfff3c9 	.word	0xebfff3c9
    d0e4:	e1a03000 	.word	0xe1a03000
    d0e8:	e1a00003 	.word	0xe1a00003
    d0ec:	e59f165c 	.word	0xe59f165c
    d0f0:	ebfff462 	.word	0xebfff462
    d0f4:	e1a03000 	.word	0xe1a03000
    d0f8:	e1a02003 	.word	0xe1a02003
    d0fc:	e59f3650 	.word	0xe59f3650
    d100:	e5832000 	.word	0xe5832000
    d104:	e51b0064 	.word	0xe51b0064
    d108:	ebfff3bf 	.word	0xebfff3bf
    d10c:	e1a03000 	.word	0xe1a03000
    d110:	e1a00003 	.word	0xe1a00003
    d114:	e59f1634 	.word	0xe59f1634
    d118:	ebfff458 	.word	0xebfff458
    d11c:	e1a03000 	.word	0xe1a03000
    d120:	e1a02003 	.word	0xe1a02003
    d124:	e59f362c 	.word	0xe59f362c
    d128:	e5832000 	.word	0xe5832000
    d12c:	e51b0068 	.word	0xe51b0068
    d130:	ebfff3b5 	.word	0xebfff3b5
    d134:	e1a02000 	.word	0xe1a02000
    d138:	e59f361c 	.word	0xe59f361c
    d13c:	e5832000 	.word	0xe5832000
    d140:	e59f3614 	.word	0xe59f3614
    d144:	e5933000 	.word	0xe5933000
    d148:	e1a00003 	.word	0xe1a00003
    d14c:	e59f160c 	.word	0xe59f160c
    d150:	ebfff44a 	.word	0xebfff44a
    d154:	e1a03000 	.word	0xe1a03000
    d158:	e1a02003 	.word	0xe1a02003
    d15c:	e59f3600 	.word	0xe59f3600
    d160:	e5832000 	.word	0xe5832000
    d164:	e51b0034 	.word	0xe51b0034
    d168:	e51b102c 	.word	0xe51b102c
    d16c:	ebfff335 	.word	0xebfff335
    d170:	e1a03000 	.word	0xe1a03000
    d174:	e50b3030 	.word	0xe50b3030
    d178:	e51b006c 	.word	0xe51b006c
    d17c:	ebfff3a2 	.word	0xebfff3a2
    d180:	e1a02000 	.word	0xe1a02000
    d184:	e59f35dc 	.word	0xe59f35dc
    d188:	e5832000 	.word	0xe5832000
    d18c:	e59f35d0 	.word	0xe59f35d0
    d190:	e5932000 	.word	0xe5932000
    d194:	e59f35b8 	.word	0xe59f35b8
    d198:	e5931000 	.word	0xe5931000
    d19c:	e59f35b4 	.word	0xe59f35b4
    d1a0:	e593c000 	.word	0xe593c000
    d1a4:	e59f35bc 	.word	0xe59f35bc
    d1a8:	e593e000 	.word	0xe593e000
    d1ac:	e59f35b8 	.word	0xe59f35b8
    d1b0:	e58d3000 	.word	0xe58d3000
    d1b4:	e59f35b4 	.word	0xe59f35b4
    d1b8:	e58d3004 	.word	0xe58d3004
    d1bc:	e59f35b0 	.word	0xe59f35b0
    d1c0:	e58d3008 	.word	0xe58d3008
    d1c4:	e59f35ac 	.word	0xe59f35ac
    d1c8:	e58d300c 	.word	0xe58d300c
    d1cc:	e1a00002 	.word	0xe1a00002
    d1d0:	e1a0200c 	.word	0xe1a0200c
    d1d4:	e1a0300e 	.word	0xe1a0300e
    d1d8:	ebffff86 	.word	0xebffff86
    d1dc:	e59f3584 	.word	0xe59f3584
    d1e0:	e5932000 	.word	0xe5932000
    d1e4:	e59f3590 	.word	0xe59f3590
    d1e8:	e5832000 	.word	0xe5832000
    d1ec:	e59f3578 	.word	0xe59f3578
    d1f0:	e5932000 	.word	0xe5932000
    d1f4:	e59f3584 	.word	0xe59f3584
    d1f8:	e5832000 	.word	0xe5832000
    d1fc:	e59f356c 	.word	0xe59f356c
    d200:	e5932000 	.word	0xe5932000
    d204:	e59f3578 	.word	0xe59f3578
    d208:	e5832000 	.word	0xe5832000
    d20c:	e59f3560 	.word	0xe59f3560
    d210:	e5932000 	.word	0xe5932000
    d214:	e59f356c 	.word	0xe59f356c
    d218:	e5832000 	.word	0xe5832000
    d21c:	e59f3564 	.word	0xe59f3564
    d220:	e5933000 	.word	0xe5933000
    d224:	e1a00003 	.word	0xe1a00003
    d228:	ebfff145 	.word	0xebfff145
    d22c:	e1a07000 	.word	0xe1a07000
    d230:	e1a08001 	.word	0xe1a08001
    d234:	e59f3544 	.word	0xe59f3544
    d238:	e5933000 	.word	0xe5933000
    d23c:	e1a00003 	.word	0xe1a00003
    d240:	e51b1038 	.word	0xe51b1038
    d244:	ebfff3a7 	.word	0xebfff3a7
    d248:	e1a03000 	.word	0xe1a03000
    d24c:	e1a00003 	.word	0xe1a00003
    d250:	ebfff13b 	.word	0xebfff13b
    d254:	e1a03000 	.word	0xe1a03000
    d258:	e1a04001 	.word	0xe1a04001
    d25c:	e1a00003 	.word	0xe1a00003
    d260:	e1a01004 	.word	0xe1a01004
    d264:	eb001489 	.word	0xeb001489
    d268:	e1a05000 	.word	0xe1a05000
    d26c:	e1a06001 	.word	0xe1a06001
    d270:	e59f350c 	.word	0xe59f350c
    d274:	e5933000 	.word	0xe5933000
    d278:	e1a00003 	.word	0xe1a00003
    d27c:	e51b1038 	.word	0xe51b1038
    d280:	ebfff398 	.word	0xebfff398
    d284:	e1a03000 	.word	0xe1a03000
    d288:	e1a00003 	.word	0xe1a00003
    d28c:	ebfff12c 	.word	0xebfff12c
    d290:	e1a03000 	.word	0xe1a03000
    d294:	e1a04001 	.word	0xe1a04001
    d298:	e1a00003 	.word	0xe1a00003
    d29c:	e1a01004 	.word	0xe1a01004
    d2a0:	eb00147a 	.word	0xeb00147a
    d2a4:	e1a03000 	.word	0xe1a03000
    d2a8:	e1a04001 	.word	0xe1a04001
    d2ac:	e1a00005 	.word	0xe1a00005
    d2b0:	e1a01006 	.word	0xe1a01006
    d2b4:	e1a02003 	.word	0xe1a02003
    d2b8:	e1a03004 	.word	0xe1a03004
    d2bc:	ebfff150 	.word	0xebfff150
    d2c0:	e1a03000 	.word	0xe1a03000
    d2c4:	e1a04001 	.word	0xe1a04001
    d2c8:	e1a00007 	.word	0xe1a00007
    d2cc:	e1a01008 	.word	0xe1a01008
    d2d0:	e1a02003 	.word	0xe1a02003
    d2d4:	e1a03004 	.word	0xe1a03004
    d2d8:	ebfff149 	.word	0xebfff149
    d2dc:	e1a03000 	.word	0xe1a03000
    d2e0:	e1a04001 	.word	0xe1a04001
    d2e4:	e1a00003 	.word	0xe1a00003
    d2e8:	e1a01004 	.word	0xe1a01004
    d2ec:	eb00143c 	.word	0xeb00143c
    d2f0:	e1a03000 	.word	0xe1a03000
    d2f4:	e50b3050 	.word	0xe50b3050
    d2f8:	e59f3488 	.word	0xe59f3488
    d2fc:	e5933000 	.word	0xe5933000
    d300:	e1a00003 	.word	0xe1a00003
    d304:	ebfff10e 	.word	0xebfff10e
    d308:	e1a07000 	.word	0xe1a07000
    d30c:	e1a08001 	.word	0xe1a08001
    d310:	e59f346c 	.word	0xe59f346c
    d314:	e5933000 	.word	0xe5933000
    d318:	e1a00003 	.word	0xe1a00003
    d31c:	e51b1038 	.word	0xe51b1038
    d320:	ebfff370 	.word	0xebfff370
    d324:	e1a03000 	.word	0xe1a03000
    d328:	e1a00003 	.word	0xe1a00003
    d32c:	ebfff104 	.word	0xebfff104
    d330:	e1a03000 	.word	0xe1a03000
    d334:	e1a04001 	.word	0xe1a04001
    d338:	e1a00003 	.word	0xe1a00003
    d33c:	e1a01004 	.word	0xe1a01004
    d340:	eb001452 	.word	0xeb001452
    d344:	e1a05000 	.word	0xe1a05000
    d348:	e1a06001 	.word	0xe1a06001
    d34c:	e59f342c 	.word	0xe59f342c
    d350:	e5933000 	.word	0xe5933000
    d354:	e1a00003 	.word	0xe1a00003
    d358:	e51b1038 	.word	0xe51b1038
    d35c:	ebfff361 	.word	0xebfff361
    d360:	e1a03000 	.word	0xe1a03000
    d364:	e1a00003 	.word	0xe1a00003
    d368:	ebfff0f5 	.word	0xebfff0f5
    d36c:	e1a03000 	.word	0xe1a03000
    d370:	e1a04001 	.word	0xe1a04001
    d374:	e1a00003 	.word	0xe1a00003
    d378:	e1a01004 	.word	0xe1a01004
    d37c:	eb00145b 	.word	0xeb00145b
    d380:	e1a03000 	.word	0xe1a03000
    d384:	e1a04001 	.word	0xe1a04001
    d388:	e1a00005 	.word	0xe1a00005
    d38c:	e1a01006 	.word	0xe1a01006
    d390:	e1a02003 	.word	0xe1a02003
    d394:	e1a03004 	.word	0xe1a03004
    d398:	ebfff119 	.word	0xebfff119
    d39c:	e1a03000 	.word	0xe1a03000
    d3a0:	e1a04001 	.word	0xe1a04001
    d3a4:	e1a00007 	.word	0xe1a00007
    d3a8:	e1a01008 	.word	0xe1a01008
    d3ac:	e1a02003 	.word	0xe1a02003
    d3b0:	e1a03004 	.word	0xe1a03004
    d3b4:	ebfff112 	.word	0xebfff112
    d3b8:	e1a03000 	.word	0xe1a03000
    d3bc:	e1a04001 	.word	0xe1a04001
    d3c0:	e1a00003 	.word	0xe1a00003
    d3c4:	e1a01004 	.word	0xe1a01004
    d3c8:	eb001405 	.word	0xeb001405
    d3cc:	e1a03000 	.word	0xe1a03000
    d3d0:	e50b304c 	.word	0xe50b304c
    d3d4:	e59f33ac 	.word	0xe59f33ac
    d3d8:	e5933000 	.word	0xe5933000
    d3dc:	e1a00003 	.word	0xe1a00003
    d3e0:	ebfff0d7 	.word	0xebfff0d7
    d3e4:	e1a05000 	.word	0xe1a05000
    d3e8:	e1a06001 	.word	0xe1a06001
    d3ec:	e59f3390 	.word	0xe59f3390
    d3f0:	e5933000 	.word	0xe5933000
    d3f4:	e1a00003 	.word	0xe1a00003
    d3f8:	e51b1038 	.word	0xe51b1038
    d3fc:	ebfff339 	.word	0xebfff339
    d400:	e1a03000 	.word	0xe1a03000
    d404:	e1a00003 	.word	0xe1a00003
    d408:	ebfff0cd 	.word	0xebfff0cd
    d40c:	e1a03000 	.word	0xe1a03000
    d410:	e1a04001 	.word	0xe1a04001
    d414:	e1a00003 	.word	0xe1a00003
    d418:	e1a01004 	.word	0xe1a01004
    d41c:	eb001433 	.word	0xeb001433
    d420:	e1a03000 	.word	0xe1a03000
    d424:	e1a04001 	.word	0xe1a04001
    d428:	e1a00005 	.word	0xe1a00005
    d42c:	e1a01006 	.word	0xe1a01006
    d430:	e1a02003 	.word	0xe1a02003
    d434:	e1a03004 	.word	0xe1a03004
    d438:	ebfff0f1 	.word	0xebfff0f1
    d43c:	e1a03000 	.word	0xe1a03000
    d440:	e1a04001 	.word	0xe1a04001
    d444:	e1a00003 	.word	0xe1a00003
    d448:	e1a01004 	.word	0xe1a01004
    d44c:	eb0013e4 	.word	0xeb0013e4
    d450:	e1a03000 	.word	0xe1a03000
    d454:	e50b3048 	.word	0xe50b3048
    d458:	e59f3328 	.word	0xe59f3328
    d45c:	e5933000 	.word	0xe5933000
    d460:	e1a00003 	.word	0xe1a00003
    d464:	ebfff0b6 	.word	0xebfff0b6
    d468:	e1a05000 	.word	0xe1a05000
    d46c:	e1a06001 	.word	0xe1a06001
    d470:	e59f330c 	.word	0xe59f330c
    d474:	e5933000 	.word	0xe5933000
    d478:	e1a00003 	.word	0xe1a00003
    d47c:	e51b1038 	.word	0xe51b1038
    d480:	ebfff318 	.word	0xebfff318
    d484:	e1a03000 	.word	0xe1a03000
    d488:	e1a00003 	.word	0xe1a00003
    d48c:	ebfff0ac 	.word	0xebfff0ac
    d490:	e1a03000 	.word	0xe1a03000
    d494:	e1a04001 	.word	0xe1a04001
    d498:	e1a00003 	.word	0xe1a00003
    d49c:	e1a01004 	.word	0xe1a01004
    d4a0:	eb0013fa 	.word	0xeb0013fa
    d4a4:	e1a03000 	.word	0xe1a03000
    d4a8:	e1a04001 	.word	0xe1a04001
    d4ac:	e1a00005 	.word	0xe1a00005
    d4b0:	e1a01006 	.word	0xe1a01006
    d4b4:	e1a02003 	.word	0xe1a02003
    d4b8:	e1a03004 	.word	0xe1a03004
    d4bc:	ebfff0d0 	.word	0xebfff0d0
    d4c0:	e1a03000 	.word	0xe1a03000
    d4c4:	e1a04001 	.word	0xe1a04001
    d4c8:	e1a00003 	.word	0xe1a00003
    d4cc:	e1a01004 	.word	0xe1a01004
    d4d0:	eb0013c3 	.word	0xeb0013c3
    d4d4:	e1a03000 	.word	0xe1a03000
    d4d8:	e50b3044 	.word	0xe50b3044
    d4dc:	e51b0044 	.word	0xe51b0044
    d4e0:	e59f12a4 	.word	0xe59f12a4
    d4e4:	ebfff3bf 	.word	0xebfff3bf
    d4e8:	e1a03000 	.word	0xe1a03000
    d4ec:	e3530000 	.word	0xe3530000
    d4f0:	ba000000 	.word	0xba000000
    d4f4:	ea000005 	.word	0xea000005
    d4f8:	e59f2280 	.word	0xe59f2280
    d4fc:	e59f323c 	.word	0xe59f323c
    d500:	e5823000 	.word	0xe5823000
    d504:	e59f2284 	.word	0xe59f2284
    d508:	e59f3230 	.word	0xe59f3230
    d50c:	e5823000 	.word	0xe5823000
    d510:	e51b0044 	.word	0xe51b0044
    d514:	e59f1244 	.word	0xe59f1244
    d518:	ebfff3b2 	.word	0xebfff3b2
    d51c:	e1a03000 	.word	0xe1a03000
    d520:	e3530000 	.word	0xe3530000
    d524:	ba000000 	.word	0xba000000
    d528:	ea000006 	.word	0xea000006
    d52c:	e3a03000 	.word	0xe3a03000
    d530:	e50b305c 	.word	0xe50b305c
    d534:	e3a03001 	.word	0xe3a03001
    d538:	e50b3058 	.word	0xe50b3058
    d53c:	e51b3044 	.word	0xe51b3044
    d540:	e50b3024 	.word	0xe50b3024
    d544:	ea00000d 	.word	0xea00000d
    d548:	e51b0044 	.word	0xe51b0044
    d54c:	e59f1240 	.word	0xe59f1240
    d550:	ebfff3a4 	.word	0xebfff3a4
    d554:	e1a03000 	.word	0xe1a03000
    d558:	e3530000 	.word	0xe3530000
    d55c:	ba000000 	.word	0xba000000
    d560:	ea000006 	.word	0xea000006
    d564:	e51b3058 	.word	0xe51b3058
    d568:	e3530000 	.word	0xe3530000
    d56c:	1a000003 	.word	0x1a000003
    d570:	e3a03001 	.word	0xe3a03001
    d574:	e50b305c 	.word	0xe50b305c
    d578:	e51b3044 	.word	0xe51b3044
    d57c:	e50b3028 	.word	0xe50b3028
    d580:	e59f31cc 	.word	0xe59f31cc
    d584:	e5933000 	.word	0xe5933000
    d588:	e3c33102 	.word	0xe3c33102
    d58c:	e1a00003 	.word	0xe1a00003
    d590:	ebfff06b 	.word	0xebfff06b
    d594:	e1a03000 	.word	0xe1a03000
    d598:	e1a04001 	.word	0xe1a04001
    d59c:	e3a00101 	.word	0xe3a00101
    d5a0:	e2800856 	.word	0xe2800856
    d5a4:	e2800902 	.word	0xe2800902
    d5a8:	e3a01000 	.word	0xe3a01000
    d5ac:	e1a02003 	.word	0xe1a02003
    d5b0:	e1a03004 	.word	0xe1a03004
    d5b4:	ebffef88 	.word	0xebffef88
    d5b8:	e1a03000 	.word	0xe1a03000
    d5bc:	e1a04001 	.word	0xe1a04001
    d5c0:	e1a00003 	.word	0xe1a00003
    d5c4:	e1a01004 	.word	0xe1a01004
    d5c8:	e28f2f59 	.word	0xe28f2f59
    d5cc:	e892000c 	.word	0xe892000c
    d5d0:	ebfff1b4 	.word	0xebfff1b4
    d5d4:	e1a03000 	.word	0xe1a03000
    d5d8:	e3530000 	.word	0xe3530000
    d5dc:	da000000 	.word	0xda000000
    d5e0:	ea000013 	.word	0xea000013
    d5e4:	e59f3154 	.word	0xe59f3154
    d5e8:	e50b3050 	.word	0xe50b3050
    d5ec:	e59f314c 	.word	0xe59f314c
    d5f0:	e50b304c 	.word	0xe50b304c
    d5f4:	e59f2184 	.word	0xe59f2184
    d5f8:	e59f3140 	.word	0xe59f3140
    d5fc:	e5823000 	.word	0xe5823000
    d600:	e59f3138 	.word	0xe59f3138
    d604:	e50b3040 	.word	0xe50b3040
    d608:	e59f3130 	.word	0xe59f3130
    d60c:	e50b303c 	.word	0xe50b303c
    d610:	e59f2178 	.word	0xe59f2178
    d614:	e59f3124 	.word	0xe59f3124
    d618:	e5823000 	.word	0xe5823000
    d61c:	e3a03001 	.word	0xe3a03001
    d620:	e50b3054 	.word	0xe50b3054
    d624:	e3a03000 	.word	0xe3a03000
    d628:	e50b305c 	.word	0xe50b305c
    d62c:	e3a03000 	.word	0xe3a03000
    d630:	e50b3058 	.word	0xe50b3058
    d634:	e59b3004 	.word	0xe59b3004
    d638:	e3a02000 	.word	0xe3a02000
    d63c:	e5832000 	.word	0xe5832000
    d640:	e51b305c 	.word	0xe51b305c
    d644:	e3530000 	.word	0xe3530000
    d648:	0a000004 	.word	0x0a000004
    d64c:	e59b3004 	.word	0xe59b3004
    d650:	e5933000 	.word	0xe5933000
    d654:	e3832001 	.word	0xe3832001
    d658:	e59b3004 	.word	0xe59b3004
    d65c:	e5832000 	.word	0xe5832000
    d660:	e51b3058 	.word	0xe51b3058
    d664:	e3530000 	.word	0xe3530000
    d668:	0a000004 	.word	0x0a000004
    d66c:	e59b3004 	.word	0xe59b3004
    d670:	e5933000 	.word	0xe5933000
    d674:	e3832002 	.word	0xe3832002
    d678:	e59b3004 	.word	0xe59b3004
    d67c:	e5832000 	.word	0xe5832000
    d680:	e51b3054 	.word	0xe51b3054
    d684:	e3530000 	.word	0xe3530000
    d688:	0a000007 	.word	0x0a000007
    d68c:	e59b3004 	.word	0xe59b3004
    d690:	e5933000 	.word	0xe5933000
    d694:	e3832004 	.word	0xe3832004
    d698:	e59b3004 	.word	0xe59b3004
    d69c:	e5832000 	.word	0xe5832000
    d6a0:	e3a03000 	.word	0xe3a03000
    d6a4:	e50b3070 	.word	0xe50b3070
    d6a8:	ea00001c 	.word	0xea00001c
    d6ac:	e59f30d0 	.word	0xe59f30d0
    d6b0:	e5933000 	.word	0xe5933000
    d6b4:	e1a00003 	.word	0xe1a00003
    d6b8:	ebfff021 	.word	0xebfff021
    d6bc:	e1a03000 	.word	0xe1a03000
    d6c0:	e1a04001 	.word	0xe1a04001
    d6c4:	e1a00003 	.word	0xe1a00003
    d6c8:	e1a01004 	.word	0xe1a01004
    d6cc:	e3a02101 	.word	0xe3a02101
    d6d0:	e2822709 	.word	0xe2822709
    d6d4:	e3a03000 	.word	0xe3a03000
    d6d8:	ebfff049 	.word	0xebfff049
    d6dc:	e1a03000 	.word	0xe1a03000
    d6e0:	e1a04001 	.word	0xe1a04001
    d6e4:	e1a00003 	.word	0xe1a00003
    d6e8:	e1a01004 	.word	0xe1a01004
    d6ec:	ebfff1bb 	.word	0xebfff1bb
    d6f0:	e1a02000 	.word	0xe1a02000
    d6f4:	e59f309c 	.word	0xe59f309c
    d6f8:	e5832000 	.word	0xe5832000
    d6fc:	e59f307c 	.word	0xe59f307c
    d700:	e5933000 	.word	0xe5933000
    d704:	e1a00003 	.word	0xe1a00003
    d708:	e59f1050 	.word	0xe59f1050
    d70c:	ebfff275 	.word	0xebfff275
    d710:	e1a03000 	.word	0xe1a03000
    d714:	e1a00003 	.word	0xe1a00003
    d718:	ebfff374 	.word	0xebfff374
    d71c:	e50b0070 	.word	0xe50b0070
    d720:	e51b3070 	.word	0xe51b3070
    d724:	e1a00003 	.word	0xe1a00003
    d728:	e24bd020 	.word	0xe24bd020
    d72c:	e89d69f0 	.word	0xe89d69f0
    d730:	e12fff1e 	.word	0xe12fff1e
    d734:	3f50624d 	.word	0x3f50624d
    d738:	d2f1a9fc 	.word	0xd2f1a9fc
    d73c:	3c8efa35 	.word	0x3c8efa35
    d740:	00000000 	.word	0x00000000
    d744:	40a00000 	.word	0x40a00000
    d748:	40001e5c 	.word	0x40001e5c
    d74c:	47c34f80 	.word	0x47c34f80
    d750:	4b189680 	.word	0x4b189680
    d754:	40001e54 	.word	0x40001e54
    d758:	40001e50 	.word	0x40001e50
    d75c:	40001e58 	.word	0x40001e58
    d760:	447a0000 	.word	0x447a0000
    d764:	40001e48 	.word	0x40001e48
    d768:	40001e44 	.word	0x40001e44
    d76c:	40001e40 	.word	0x40001e40
    d770:	40001e3c 	.word	0x40001e3c
    d774:	40001e38 	.word	0x40001e38
    d778:	40001e34 	.word	0x40001e34
    d77c:	40001e30 	.word	0x40001e30
    d780:	40001e2c 	.word	0x40001e2c
    d784:	40001e28 	.word	0x40001e28
    d788:	40001e24 	.word	0x40001e24
    d78c:	42c80000 	.word	0x42c80000
    d790:	40001e4c 	.word	0x40001e4c
    d794:	459c4000 	.word	0x459c4000
    d798:	400011a0 	.word	0x400011a0

0000d79c <uBloxSendMessage>:
    d79c:	e1a0c00d 	.word	0xe1a0c00d
    d7a0:	e92dd800 	.word	0xe92dd800
    d7a4:	e24cb004 	.word	0xe24cb004
    d7a8:	e24dd01c 	.word	0xe24dd01c
    d7ac:	e50b2024 	.word	0xe50b2024
    d7b0:	e1a02003 	.word	0xe1a02003
    d7b4:	e1a03000 	.word	0xe1a03000
    d7b8:	e54b301c 	.word	0xe54b301c
    d7bc:	e1a03001 	.word	0xe1a03001
    d7c0:	e54b3020 	.word	0xe54b3020
    d7c4:	e1a03002 	.word	0xe1a03002
    d7c8:	e54b3028 	.word	0xe54b3028
    d7cc:	e3e0304a 	.word	0xe3e0304a
    d7d0:	e54b3014 	.word	0xe54b3014
    d7d4:	e3a03062 	.word	0xe3a03062
    d7d8:	e54b3013 	.word	0xe54b3013
    d7dc:	e3a03000 	.word	0xe3a03000
    d7e0:	e54b3011 	.word	0xe54b3011
    d7e4:	e3a03000 	.word	0xe3a03000
    d7e8:	e54b3012 	.word	0xe54b3012
    d7ec:	e55b2011 	.word	0xe55b2011
    d7f0:	e55b301c 	.word	0xe55b301c
    d7f4:	e0823003 	.word	0xe0823003
    d7f8:	e20330ff 	.word	0xe20330ff
    d7fc:	e54b3011 	.word	0xe54b3011
    d800:	e55b2012 	.word	0xe55b2012
    d804:	e55b3011 	.word	0xe55b3011
    d808:	e0823003 	.word	0xe0823003
    d80c:	e20330ff 	.word	0xe20330ff
    d810:	e54b3012 	.word	0xe54b3012
    d814:	e55b2011 	.word	0xe55b2011
    d818:	e55b3020 	.word	0xe55b3020
    d81c:	e0823003 	.word	0xe0823003
    d820:	e20330ff 	.word	0xe20330ff
    d824:	e54b3011 	.word	0xe54b3011
    d828:	e55b2012 	.word	0xe55b2012
    d82c:	e55b3011 	.word	0xe55b3011
    d830:	e0823003 	.word	0xe0823003
    d834:	e20330ff 	.word	0xe20330ff
    d838:	e54b3012 	.word	0xe54b3012
    d83c:	e55b2011 	.word	0xe55b2011
    d840:	e55b3028 	.word	0xe55b3028
    d844:	e0823003 	.word	0xe0823003
    d848:	e20330ff 	.word	0xe20330ff
    d84c:	e54b3011 	.word	0xe54b3011
    d850:	e55b2012 	.word	0xe55b2012
    d854:	e55b3011 	.word	0xe55b3011
    d858:	e0823003 	.word	0xe0823003
    d85c:	e20330ff 	.word	0xe20330ff
    d860:	e54b3012 	.word	0xe54b3012
    d864:	e55b3028 	.word	0xe55b3028
    d868:	e1a03443 	.word	0xe1a03443
    d86c:	e20320ff 	.word	0xe20320ff
    d870:	e55b3011 	.word	0xe55b3011
    d874:	e0823003 	.word	0xe0823003
    d878:	e20330ff 	.word	0xe20330ff
    d87c:	e54b3011 	.word	0xe54b3011
    d880:	e55b2012 	.word	0xe55b2012
    d884:	e55b3011 	.word	0xe55b3011
    d888:	e0823003 	.word	0xe0823003
    d88c:	e20330ff 	.word	0xe20330ff
    d890:	e54b3012 	.word	0xe54b3012
    d894:	e3a03000 	.word	0xe3a03000
    d898:	e50b3010 	.word	0xe50b3010
    d89c:	ea000010 	.word	0xea000010
    d8a0:	e51b3010 	.word	0xe51b3010
    d8a4:	e1a02003 	.word	0xe1a02003
    d8a8:	e51b3024 	.word	0xe51b3024
    d8ac:	e0823003 	.word	0xe0823003
    d8b0:	e5d32000 	.word	0xe5d32000
    d8b4:	e55b3011 	.word	0xe55b3011
    d8b8:	e0823003 	.word	0xe0823003
    d8bc:	e20330ff 	.word	0xe20330ff
    d8c0:	e54b3011 	.word	0xe54b3011
    d8c4:	e55b2012 	.word	0xe55b2012
    d8c8:	e55b3011 	.word	0xe55b3011
    d8cc:	e0823003 	.word	0xe0823003
    d8d0:	e20330ff 	.word	0xe20330ff
    d8d4:	e54b3012 	.word	0xe54b3012
    d8d8:	e51b3010 	.word	0xe51b3010
    d8dc:	e2833001 	.word	0xe2833001
    d8e0:	e50b3010 	.word	0xe50b3010
    d8e4:	e55b2028 	.word	0xe55b2028
    d8e8:	e51b3010 	.word	0xe51b3010
    d8ec:	e1520003 	.word	0xe1520003
    d8f0:	caffffea 	.word	0xcaffffea
    d8f4:	e24b3014 	.word	0xe24b3014
    d8f8:	e1a00003 	.word	0xe1a00003
    d8fc:	e3a01002 	.word	0xe3a01002
    d900:	ebffe5ee 	.word	0xebffe5ee
    d904:	e24b301c 	.word	0xe24b301c
    d908:	e1a00003 	.word	0xe1a00003
    d90c:	e3a01001 	.word	0xe3a01001
    d910:	ebffe5ea 	.word	0xebffe5ea
    d914:	e24b3020 	.word	0xe24b3020
    d918:	e1a00003 	.word	0xe1a00003
    d91c:	e3a01001 	.word	0xe3a01001
    d920:	ebffe5e6 	.word	0xebffe5e6
    d924:	e55b3028 	.word	0xe55b3028
    d928:	e54b3015 	.word	0xe54b3015
    d92c:	e24b3015 	.word	0xe24b3015
    d930:	e1a00003 	.word	0xe1a00003
    d934:	e3a01001 	.word	0xe3a01001
    d938:	ebffe5e0 	.word	0xebffe5e0
    d93c:	e55b3028 	.word	0xe55b3028
    d940:	e1a03443 	.word	0xe1a03443
    d944:	e20330ff 	.word	0xe20330ff
    d948:	e54b3015 	.word	0xe54b3015
    d94c:	e24b3015 	.word	0xe24b3015
    d950:	e1a00003 	.word	0xe1a00003
    d954:	e3a01001 	.word	0xe3a01001
    d958:	ebffe5d8 	.word	0xebffe5d8
    d95c:	e55b3028 	.word	0xe55b3028
    d960:	e51b0024 	.word	0xe51b0024
    d964:	e1a01003 	.word	0xe1a01003
    d968:	ebffe5d4 	.word	0xebffe5d4
    d96c:	e24b3011 	.word	0xe24b3011
    d970:	e1a00003 	.word	0xe1a00003
    d974:	e3a01001 	.word	0xe3a01001
    d978:	ebffe5d0 	.word	0xebffe5d0
    d97c:	e24b3012 	.word	0xe24b3012
    d980:	e1a00003 	.word	0xe1a00003
    d984:	e3a01001 	.word	0xe3a01001
    d988:	ebffe5cc 	.word	0xebffe5cc
    d98c:	e3a0320e 	.word	0xe3a0320e
    d990:	e2833801 	.word	0xe2833801
    d994:	e2833014 	.word	0xe2833014
    d998:	e5933000 	.word	0xe5933000
    d99c:	e2033040 	.word	0xe2033040
    d9a0:	e3530000 	.word	0xe3530000
    d9a4:	0afffff8 	.word	0x0afffff8
    d9a8:	e24bd00c 	.word	0xe24bd00c
    d9ac:	e89d6800 	.word	0xe89d6800
    d9b0:	e12fff1e 	.word	0xe12fff1e

0000d9b4 <pollMessageRate>:
    d9b4:	e1a0c00d 	.word	0xe1a0c00d
    d9b8:	e92dd800 	.word	0xe92dd800
    d9bc:	e24cb004 	.word	0xe24cb004
    d9c0:	e24dd00c 	.word	0xe24dd00c
    d9c4:	e1a03000 	.word	0xe1a03000
    d9c8:	e1a02001 	.word	0xe1a02001
    d9cc:	e54b3014 	.word	0xe54b3014
    d9d0:	e1a03002 	.word	0xe1a03002
    d9d4:	e54b3018 	.word	0xe54b3018
    d9d8:	e55b3014 	.word	0xe55b3014
    d9dc:	e54b300e 	.word	0xe54b300e
    d9e0:	e55b3018 	.word	0xe55b3018
    d9e4:	e54b300d 	.word	0xe54b300d
    d9e8:	e24b300e 	.word	0xe24b300e
    d9ec:	e3a00006 	.word	0xe3a00006
    d9f0:	e3a01001 	.word	0xe3a01001
    d9f4:	e1a02003 	.word	0xe1a02003
    d9f8:	e3a03002 	.word	0xe3a03002
    d9fc:	ebffff66 	.word	0xebffff66
    da00:	e24bd00c 	.word	0xe24bd00c
    da04:	e89d6800 	.word	0xe89d6800
    da08:	e12fff1e 	.word	0xe12fff1e

0000da0c <setMessageRate>:
    da0c:	e1a0c00d 	.word	0xe1a0c00d
    da10:	e92dd800 	.word	0xe92dd800
    da14:	e24cb004 	.word	0xe24cb004
    da18:	e24dd010 	.word	0xe24dd010
    da1c:	e1a03000 	.word	0xe1a03000
    da20:	e54b3014 	.word	0xe54b3014
    da24:	e1a03001 	.word	0xe1a03001
    da28:	e54b3018 	.word	0xe54b3018
    da2c:	e1a03002 	.word	0xe1a03002
    da30:	e54b301c 	.word	0xe54b301c
    da34:	e55b3014 	.word	0xe55b3014
    da38:	e54b300f 	.word	0xe54b300f
    da3c:	e55b3018 	.word	0xe55b3018
    da40:	e54b300e 	.word	0xe54b300e
    da44:	e55b301c 	.word	0xe55b301c
    da48:	e54b300d 	.word	0xe54b300d
    da4c:	e24b300f 	.word	0xe24b300f
    da50:	e3a00006 	.word	0xe3a00006
    da54:	e3a01001 	.word	0xe3a01001
    da58:	e1a02003 	.word	0xe1a02003
    da5c:	e3a03003 	.word	0xe3a03003
    da60:	ebffff4d 	.word	0xebffff4d
    da64:	e24bd00c 	.word	0xe24bd00c
    da68:	e89d6800 	.word	0xe89d6800
    da6c:	e12fff1e 	.word	0xe12fff1e

0000da70 <uBloxResetConfiguration>:
    da70:	e1a0c00d 	.word	0xe1a0c00d
    da74:	e92dd800 	.word	0xe92dd800
    da78:	e24cb004 	.word	0xe24cb004
    da7c:	e24dd010 	.word	0xe24dd010
    da80:	e3e03000 	.word	0xe3e03000
    da84:	e54b3019 	.word	0xe54b3019
    da88:	e3e03000 	.word	0xe3e03000
    da8c:	e54b3018 	.word	0xe54b3018
    da90:	e3a03000 	.word	0xe3a03000
    da94:	e54b3017 	.word	0xe54b3017
    da98:	e3a03000 	.word	0xe3a03000
    da9c:	e54b3016 	.word	0xe54b3016
    daa0:	e3e03000 	.word	0xe3e03000
    daa4:	e54b3011 	.word	0xe54b3011
    daa8:	e3e03000 	.word	0xe3e03000
    daac:	e54b3010 	.word	0xe54b3010
    dab0:	e3a03000 	.word	0xe3a03000
    dab4:	e54b300f 	.word	0xe54b300f
    dab8:	e3a03000 	.word	0xe3a03000
    dabc:	e54b300e 	.word	0xe54b300e
    dac0:	e3a03000 	.word	0xe3a03000
    dac4:	e54b3015 	.word	0xe54b3015
    dac8:	e3a03000 	.word	0xe3a03000
    dacc:	e54b3014 	.word	0xe54b3014
    dad0:	e3a03000 	.word	0xe3a03000
    dad4:	e54b3013 	.word	0xe54b3013
    dad8:	e3a03000 	.word	0xe3a03000
    dadc:	e54b3012 	.word	0xe54b3012
    dae0:	e3a03007 	.word	0xe3a03007
    dae4:	e54b300d 	.word	0xe54b300d
    dae8:	e24b3019 	.word	0xe24b3019
    daec:	e3a00006 	.word	0xe3a00006
    daf0:	e3a01009 	.word	0xe3a01009
    daf4:	e1a02003 	.word	0xe1a02003
    daf8:	e3a0300d 	.word	0xe3a0300d
    dafc:	ebffff26 	.word	0xebffff26
    db00:	e24bd00c 	.word	0xe24bd00c
    db04:	e89d6800 	.word	0xe89d6800
    db08:	e12fff1e 	.word	0xe12fff1e

0000db0c <uBloxHandleMessage>:
    db0c:	e1a0c00d 	.word	0xe1a0c00d
    db10:	e92dd800 	.word	0xe92dd800
    db14:	e24cb004 	.word	0xe24cb004
    db18:	e24dd034 	.word	0xe24dd034
    db1c:	e50b2034 	.word	0xe50b2034
    db20:	e1a02003 	.word	0xe1a02003
    db24:	e1a03000 	.word	0xe1a03000
    db28:	e54b302c 	.word	0xe54b302c
    db2c:	e1a03001 	.word	0xe1a03001
    db30:	e54b3030 	.word	0xe54b3030
    db34:	e14b23b8 	.word	0xe14b23b8
    db38:	e59f3738 	.word	0xe59f3738
    db3c:	e1d330b0 	.word	0xe1d330b0
    db40:	e2833001 	.word	0xe2833001
    db44:	e1a03803 	.word	0xe1a03803
    db48:	e1a02823 	.word	0xe1a02823
    db4c:	e59f3724 	.word	0xe59f3724
    db50:	e1c320b0 	.word	0xe1c320b0
    db54:	e55b102c 	.word	0xe55b102c
    db58:	e50b1040 	.word	0xe50b1040
    db5c:	e51b2040 	.word	0xe51b2040
    db60:	e3520005 	.word	0xe3520005
    db64:	0a00014a 	.word	0x0a00014a
    db68:	e51b3040 	.word	0xe51b3040
    db6c:	e353000a 	.word	0xe353000a
    db70:	0a00017b 	.word	0x0a00017b
    db74:	e51b1040 	.word	0xe51b1040
    db78:	e3510001 	.word	0xe3510001
    db7c:	0a000000 	.word	0x0a000000
    db80:	ea0001b9 	.word	0xea0001b9
    db84:	e55b3030 	.word	0xe55b3030
    db88:	e2433002 	.word	0xe2433002
    db8c:	e353002e 	.word	0xe353002e
    db90:	979ff103 	.word	0x979ff103
    db94:	ea0001b4 	.word	0xea0001b4
    db98:	0000dc54 	.word	0x0000dc54
    db9c:	0000dd78 	.word	0x0000dd78
    dba0:	0000e26c 	.word	0x0000e26c
    dba4:	0000e26c 	.word	0x0000e26c
    dba8:	0000ddb4 	.word	0x0000ddb4
    dbac:	0000e26c 	.word	0x0000e26c
    dbb0:	0000e26c 	.word	0x0000e26c
    dbb4:	0000e26c 	.word	0x0000e26c
    dbb8:	0000e26c 	.word	0x0000e26c
    dbbc:	0000e26c 	.word	0x0000e26c
    dbc0:	0000e26c 	.word	0x0000e26c
    dbc4:	0000e26c 	.word	0x0000e26c
    dbc8:	0000e26c 	.word	0x0000e26c
    dbcc:	0000e26c 	.word	0x0000e26c
    dbd0:	0000e26c 	.word	0x0000e26c
    dbd4:	0000e26c 	.word	0x0000e26c
    dbd8:	0000de40 	.word	0x0000de40
    dbdc:	0000e26c 	.word	0x0000e26c
    dbe0:	0000e26c 	.word	0x0000e26c
    dbe4:	0000e26c 	.word	0x0000e26c
    dbe8:	0000e26c 	.word	0x0000e26c
    dbec:	0000e26c 	.word	0x0000e26c
    dbf0:	0000e26c 	.word	0x0000e26c
    dbf4:	0000e26c 	.word	0x0000e26c
    dbf8:	0000e26c 	.word	0x0000e26c
    dbfc:	0000e26c 	.word	0x0000e26c
    dc00:	0000e26c 	.word	0x0000e26c
    dc04:	0000e26c 	.word	0x0000e26c
    dc08:	0000e26c 	.word	0x0000e26c
    dc0c:	0000e26c 	.word	0x0000e26c
    dc10:	0000e26c 	.word	0x0000e26c
    dc14:	0000e26c 	.word	0x0000e26c
    dc18:	0000e26c 	.word	0x0000e26c
    dc1c:	0000e26c 	.word	0x0000e26c
    dc20:	0000e26c 	.word	0x0000e26c
    dc24:	0000e26c 	.word	0x0000e26c
    dc28:	0000e26c 	.word	0x0000e26c
    dc2c:	0000e26c 	.word	0x0000e26c
    dc30:	0000e26c 	.word	0x0000e26c
    dc34:	0000e26c 	.word	0x0000e26c
    dc38:	0000e26c 	.word	0x0000e26c
    dc3c:	0000e26c 	.word	0x0000e26c
    dc40:	0000e26c 	.word	0x0000e26c
    dc44:	0000e26c 	.word	0x0000e26c
    dc48:	0000e26c 	.word	0x0000e26c
    dc4c:	0000e26c 	.word	0x0000e26c
    dc50:	0000e034 	.word	0x0000e034
    dc54:	e51b3034 	.word	0xe51b3034
    dc58:	e50b3028 	.word	0xe50b3028
    dc5c:	e51b2028 	.word	0xe51b2028
    dc60:	e5d21008 	.word	0xe5d21008
    dc64:	e5d23009 	.word	0xe5d23009
    dc68:	e1a03403 	.word	0xe1a03403
    dc6c:	e1831001 	.word	0xe1831001
    dc70:	e5d2300a 	.word	0xe5d2300a
    dc74:	e1a03803 	.word	0xe1a03803
    dc78:	e1831001 	.word	0xe1831001
    dc7c:	e5d2300b 	.word	0xe5d2300b
    dc80:	e1a03c03 	.word	0xe1a03c03
    dc84:	e1833001 	.word	0xe1833001
    dc88:	e1a02003 	.word	0xe1a02003
    dc8c:	e59f35e8 	.word	0xe59f35e8
    dc90:	e5832000 	.word	0xe5832000
    dc94:	e51b2028 	.word	0xe51b2028
    dc98:	e5d21004 	.word	0xe5d21004
    dc9c:	e5d23005 	.word	0xe5d23005
    dca0:	e1a03403 	.word	0xe1a03403
    dca4:	e1831001 	.word	0xe1831001
    dca8:	e5d23006 	.word	0xe5d23006
    dcac:	e1a03803 	.word	0xe1a03803
    dcb0:	e1831001 	.word	0xe1831001
    dcb4:	e5d23007 	.word	0xe5d23007
    dcb8:	e1a03c03 	.word	0xe1a03c03
    dcbc:	e1833001 	.word	0xe1833001
    dcc0:	e1a02003 	.word	0xe1a02003
    dcc4:	e59f35b0 	.word	0xe59f35b0
    dcc8:	e5832004 	.word	0xe5832004
    dccc:	e51b2028 	.word	0xe51b2028
    dcd0:	e5d2100c 	.word	0xe5d2100c
    dcd4:	e5d2300d 	.word	0xe5d2300d
    dcd8:	e1a03403 	.word	0xe1a03403
    dcdc:	e1831001 	.word	0xe1831001
    dce0:	e5d2300e 	.word	0xe5d2300e
    dce4:	e1a03803 	.word	0xe1a03803
    dce8:	e1831001 	.word	0xe1831001
    dcec:	e5d2300f 	.word	0xe5d2300f
    dcf0:	e1a03c03 	.word	0xe1a03c03
    dcf4:	e1833001 	.word	0xe1833001
    dcf8:	e1a02003 	.word	0xe1a02003
    dcfc:	e59f3578 	.word	0xe59f3578
    dd00:	e5832008 	.word	0xe5832008
    dd04:	e51b2028 	.word	0xe51b2028
    dd08:	e5d21014 	.word	0xe5d21014
    dd0c:	e5d23015 	.word	0xe5d23015
    dd10:	e1a03403 	.word	0xe1a03403
    dd14:	e1831001 	.word	0xe1831001
    dd18:	e5d23016 	.word	0xe5d23016
    dd1c:	e1a03803 	.word	0xe1a03803
    dd20:	e1831001 	.word	0xe1831001
    dd24:	e5d23017 	.word	0xe5d23017
    dd28:	e1a03c03 	.word	0xe1a03c03
    dd2c:	e1833001 	.word	0xe1833001
    dd30:	e1a02003 	.word	0xe1a02003
    dd34:	e59f3540 	.word	0xe59f3540
    dd38:	e5832018 	.word	0xe5832018
    dd3c:	e51b2028 	.word	0xe51b2028
    dd40:	e5d21018 	.word	0xe5d21018
    dd44:	e5d23019 	.word	0xe5d23019
    dd48:	e1a03403 	.word	0xe1a03403
    dd4c:	e1831001 	.word	0xe1831001
    dd50:	e5d2301a 	.word	0xe5d2301a
    dd54:	e1a03803 	.word	0xe1a03803
    dd58:	e1831001 	.word	0xe1831001
    dd5c:	e5d2301b 	.word	0xe5d2301b
    dd60:	e1a03c03 	.word	0xe1a03c03
    dd64:	e1833001 	.word	0xe1833001
    dd68:	e1a02003 	.word	0xe1a02003
    dd6c:	e59f3508 	.word	0xe59f3508
    dd70:	e583201c 	.word	0xe583201c
    dd74:	ea00013c 	.word	0xea00013c
    dd78:	e51b3034 	.word	0xe51b3034
    dd7c:	e50b3024 	.word	0xe50b3024
    dd80:	e51b3024 	.word	0xe51b3024
    dd84:	e5d33005 	.word	0xe5d33005
    dd88:	e1a02403 	.word	0xe1a02403
    dd8c:	e51b3024 	.word	0xe51b3024
    dd90:	e5d33006 	.word	0xe5d33006
    dd94:	e1a03803 	.word	0xe1a03803
    dd98:	e1822003 	.word	0xe1822003
    dd9c:	e51b3024 	.word	0xe51b3024
    dda0:	e5d33004 	.word	0xe5d33004
    dda4:	e1822003 	.word	0xe1822003
    dda8:	e59f34cc 	.word	0xe59f34cc
    ddac:	e5832028 	.word	0xe5832028
    ddb0:	ea00012d 	.word	0xea00012d
    ddb4:	e51b3034 	.word	0xe51b3034
    ddb8:	e50b3020 	.word	0xe50b3020
    ddbc:	e51b3020 	.word	0xe51b3020
    ddc0:	e5d32008 	.word	0xe5d32008
    ddc4:	e5d33009 	.word	0xe5d33009
    ddc8:	e1a03403 	.word	0xe1a03403
    ddcc:	e1833002 	.word	0xe1833002
    ddd0:	e1a03803 	.word	0xe1a03803
    ddd4:	e1a03843 	.word	0xe1a03843
    ddd8:	e1a03803 	.word	0xe1a03803
    dddc:	e1a03823 	.word	0xe1a03823
    dde0:	e1a03803 	.word	0xe1a03803
    dde4:	e1a02823 	.word	0xe1a02823
    dde8:	e59f3490 	.word	0xe59f3490
    ddec:	e1c320b4 	.word	0xe1c320b4
    ddf0:	e51b2020 	.word	0xe51b2020
    ddf4:	e5d21000 	.word	0xe5d21000
    ddf8:	e5d23001 	.word	0xe5d23001
    ddfc:	e1a03403 	.word	0xe1a03403
    de00:	e1831001 	.word	0xe1831001
    de04:	e5d23002 	.word	0xe5d23002
    de08:	e1a03803 	.word	0xe1a03803
    de0c:	e1831001 	.word	0xe1831001
    de10:	e5d23003 	.word	0xe5d23003
    de14:	e1a03c03 	.word	0xe1a03c03
    de18:	e1833001 	.word	0xe1833001
    de1c:	e1a02003 	.word	0xe1a02003
    de20:	e59f3458 	.word	0xe59f3458
    de24:	e5832000 	.word	0xe5832000
    de28:	e51b3020 	.word	0xe51b3020
    de2c:	e5d3302f 	.word	0xe5d3302f
    de30:	e1a02003 	.word	0xe1a02003
    de34:	e59f3440 	.word	0xe59f3440
    de38:	e5832024 	.word	0xe5832024
    de3c:	ea00010a 	.word	0xea00010a
    de40:	e51b3034 	.word	0xe51b3034
    de44:	e50b301c 	.word	0xe50b301c
    de48:	e51b201c 	.word	0xe51b201c
    de4c:	e5d21008 	.word	0xe5d21008
    de50:	e5d23009 	.word	0xe5d23009
    de54:	e1a03403 	.word	0xe1a03403
    de58:	e1831001 	.word	0xe1831001
    de5c:	e5d2300a 	.word	0xe5d2300a
    de60:	e1a03803 	.word	0xe1a03803
    de64:	e1831001 	.word	0xe1831001
    de68:	e5d2300b 	.word	0xe5d2300b
    de6c:	e1a03c03 	.word	0xe1a03c03
    de70:	e1833001 	.word	0xe1833001
    de74:	e1a02003 	.word	0xe1a02003
    de78:	e1a03002 	.word	0xe1a03002
    de7c:	e1a03103 	.word	0xe1a03103
    de80:	e0833002 	.word	0xe0833002
    de84:	e1a03083 	.word	0xe1a03083
    de88:	e1a02003 	.word	0xe1a02003
    de8c:	e59f33e8 	.word	0xe59f33e8
    de90:	e583200c 	.word	0xe583200c
    de94:	e51b201c 	.word	0xe51b201c
    de98:	e5d21004 	.word	0xe5d21004
    de9c:	e5d23005 	.word	0xe5d23005
    dea0:	e1a03403 	.word	0xe1a03403
    dea4:	e1831001 	.word	0xe1831001
    dea8:	e5d23006 	.word	0xe5d23006
    deac:	e1a03803 	.word	0xe1a03803
    deb0:	e1831001 	.word	0xe1831001
    deb4:	e5d23007 	.word	0xe5d23007
    deb8:	e1a03c03 	.word	0xe1a03c03
    debc:	e1833001 	.word	0xe1833001
    dec0:	e1a02003 	.word	0xe1a02003
    dec4:	e1a03002 	.word	0xe1a03002
    dec8:	e1a03103 	.word	0xe1a03103
    decc:	e0833002 	.word	0xe0833002
    ded0:	e1a03083 	.word	0xe1a03083
    ded4:	e1a02003 	.word	0xe1a02003
    ded8:	e59f339c 	.word	0xe59f339c
    dedc:	e5832010 	.word	0xe5832010
    dee0:	e51b201c 	.word	0xe51b201c
    dee4:	e5d2101c 	.word	0xe5d2101c
    dee8:	e5d2301d 	.word	0xe5d2301d
    deec:	e1a03403 	.word	0xe1a03403
    def0:	e1831001 	.word	0xe1831001
    def4:	e5d2301e 	.word	0xe5d2301e
    def8:	e1a03803 	.word	0xe1a03803
    defc:	e1831001 	.word	0xe1831001
    df00:	e5d2301f 	.word	0xe5d2301f
    df04:	e1a03c03 	.word	0xe1a03c03
    df08:	e1833001 	.word	0xe1833001
    df0c:	e1a02003 	.word	0xe1a02003
    df10:	e1a03002 	.word	0xe1a03002
    df14:	e1a03103 	.word	0xe1a03103
    df18:	e0833002 	.word	0xe0833002
    df1c:	e1a03083 	.word	0xe1a03083
    df20:	e1a02003 	.word	0xe1a02003
    df24:	e59f3350 	.word	0xe59f3350
    df28:	e5832020 	.word	0xe5832020
    df2c:	e51b201c 	.word	0xe51b201c
    df30:	e5d21018 	.word	0xe5d21018
    df34:	e5d23019 	.word	0xe5d23019
    df38:	e1a03403 	.word	0xe1a03403
    df3c:	e1831001 	.word	0xe1831001
    df40:	e5d2301a 	.word	0xe5d2301a
    df44:	e1a03803 	.word	0xe1a03803
    df48:	e1831001 	.word	0xe1831001
    df4c:	e5d2301b 	.word	0xe5d2301b
    df50:	e1a03c03 	.word	0xe1a03c03
    df54:	e1833001 	.word	0xe1833001
    df58:	e1a01003 	.word	0xe1a01003
    df5c:	e59f3320 	.word	0xe59f3320
    df60:	e0c32391 	.word	0xe0c32391
    df64:	e1a022c3 	.word	0xe1a022c3
    df68:	e1a03fc1 	.word	0xe1a03fc1
    df6c:	e0632002 	.word	0xe0632002
    df70:	e59f3304 	.word	0xe59f3304
    df74:	e5832014 	.word	0xe5832014
    df78:	e59f3308 	.word	0xe59f3308
    df7c:	e5933000 	.word	0xe5933000
    df80:	e1a03083 	.word	0xe1a03083
    df84:	e1a00003 	.word	0xe1a00003
    df88:	e51b201c 	.word	0xe51b201c
    df8c:	e5d2101c 	.word	0xe5d2101c
    df90:	e5d2301d 	.word	0xe5d2301d
    df94:	e1a03403 	.word	0xe1a03403
    df98:	e1831001 	.word	0xe1831001
    df9c:	e5d2301e 	.word	0xe5d2301e
    dfa0:	e1a03803 	.word	0xe1a03803
    dfa4:	e1831001 	.word	0xe1831001
    dfa8:	e5d2301f 	.word	0xe5d2301f
    dfac:	e1a03c03 	.word	0xe1a03c03
    dfb0:	e1833001 	.word	0xe1833001
    dfb4:	e0802003 	.word	0xe0802003
    dfb8:	e59f32cc 	.word	0xe59f32cc
    dfbc:	e0831392 	.word	0xe0831392
    dfc0:	e1a030a3 	.word	0xe1a030a3
    dfc4:	e1a02003 	.word	0xe1a02003
    dfc8:	e59f32b8 	.word	0xe59f32b8
    dfcc:	e5832000 	.word	0xe5832000
    dfd0:	e59f32a4 	.word	0xe59f32a4
    dfd4:	e5932018 	.word	0xe5932018
    dfd8:	e3a03dea 	.word	0xe3a03dea
    dfdc:	e2833018 	.word	0xe2833018
    dfe0:	e1520003 	.word	0xe1520003
    dfe4:	8a000003 	.word	0x8a000003
    dfe8:	e59f3298 	.word	0xe59f3298
    dfec:	e5933000 	.word	0xe5933000
    dff0:	e35300e6 	.word	0xe35300e6
    dff4:	da000004 	.word	0xda000004
    dff8:	e59f327c 	.word	0xe59f327c
    dffc:	e5933028 	.word	0xe5933028
    e000:	e3c32003 	.word	0xe3c32003
    e004:	e59f3270 	.word	0xe59f3270
    e008:	e5832028 	.word	0xe5832028
    e00c:	e59f227c 	.word	0xe59f227c
    e010:	e3a03001 	.word	0xe3a03001
    e014:	e5823000 	.word	0xe5823000
    e018:	e59f2274 	.word	0xe59f2274
    e01c:	e3a03001 	.word	0xe3a03001
    e020:	e5c23000 	.word	0xe5c23000
    e024:	e59f226c 	.word	0xe59f226c
    e028:	e3a03000 	.word	0xe3a03000
    e02c:	e5823000 	.word	0xe5823000
    e030:	ea00008d 	.word	0xea00008d
    e034:	e51b3034 	.word	0xe51b3034
    e038:	e50b3018 	.word	0xe50b3018
    e03c:	e51b3018 	.word	0xe51b3018
    e040:	e5d33004 	.word	0xe5d33004
    e044:	e3530010 	.word	0xe3530010
    e048:	8a000087 	.word	0x8a000087
    e04c:	e51b3034 	.word	0xe51b3034
    e050:	e2830008 	.word	0xe2830008
    e054:	e51b3018 	.word	0xe51b3018
    e058:	e5d33004 	.word	0xe5d33004
    e05c:	e1a02003 	.word	0xe1a02003
    e060:	e1a03002 	.word	0xe1a03002
    e064:	e1a03083 	.word	0xe1a03083
    e068:	e0833002 	.word	0xe0833002
    e06c:	e1a03103 	.word	0xe1a03103
    e070:	e1a01003 	.word	0xe1a01003
    e074:	e59f3220 	.word	0xe59f3220
    e078:	e1a02000 	.word	0xe1a02000
    e07c:	e1a0c001 	.word	0xe1a0c001
    e080:	e1a00003 	.word	0xe1a00003
    e084:	e1a01002 	.word	0xe1a01002
    e088:	e1a0200c 	.word	0xe1a0200c
    e08c:	eb001102 	.word	0xeb001102
    e090:	ea000075 	.word	0xea000075
    e094:	e51b3034 	.word	0xe51b3034
    e098:	e5d33000 	.word	0xe5d33000
    e09c:	e59f21fc 	.word	0xe59f21fc
    e0a0:	e5c23000 	.word	0xe5c23000
    e0a4:	e51b3034 	.word	0xe51b3034
    e0a8:	e2833001 	.word	0xe2833001
    e0ac:	e5d33000 	.word	0xe5d33000
    e0b0:	e59f21ec 	.word	0xe59f21ec
    e0b4:	e5c23000 	.word	0xe5c23000
    e0b8:	e59f31e8 	.word	0xe59f31e8
    e0bc:	e5d33000 	.word	0xe5d33000
    e0c0:	e20330ff 	.word	0xe20330ff
    e0c4:	e3530000 	.word	0xe3530000
    e0c8:	0a00001d 	.word	0x0a00001d
    e0cc:	e59f31cc 	.word	0xe59f31cc
    e0d0:	e5d33000 	.word	0xe5d33000
    e0d4:	e20330ff 	.word	0xe20330ff
    e0d8:	e3530006 	.word	0xe3530006
    e0dc:	1a000018 	.word	0x1a000018
    e0e0:	e59f31bc 	.word	0xe59f31bc
    e0e4:	e5d33000 	.word	0xe5d33000
    e0e8:	e20330ff 	.word	0xe20330ff
    e0ec:	e3530024 	.word	0xe3530024
    e0f0:	1a000013 	.word	0x1a000013
    e0f4:	e59f21ac 	.word	0xe59f21ac
    e0f8:	e3a03000 	.word	0xe3a03000
    e0fc:	e5c23000 	.word	0xe5c23000
    e100:	e55b3030 	.word	0xe55b3030
    e104:	e3530001 	.word	0xe3530001
    e108:	1a000006 	.word	0x1a000006
    e10c:	e59f2198 	.word	0xe59f2198
    e110:	e3a03002 	.word	0xe3a03002
    e114:	e5c23000 	.word	0xe5c23000
    e118:	e59f2190 	.word	0xe59f2190
    e11c:	e59f3190 	.word	0xe59f3190
    e120:	e5823000 	.word	0xe5823000
    e124:	ea000050 	.word	0xea000050
    e128:	e59f217c 	.word	0xe59f217c
    e12c:	e3a03001 	.word	0xe3a03001
    e130:	e5c23000 	.word	0xe5c23000
    e134:	e59f2174 	.word	0xe59f2174
    e138:	e59f3178 	.word	0xe59f3178
    e13c:	e5823000 	.word	0xe5823000
    e140:	ea000049 	.word	0xea000049
    e144:	e55b3030 	.word	0xe55b3030
    e148:	e3530001 	.word	0xe3530001
    e14c:	0a000000 	.word	0x0a000000
    e150:	ea000045 	.word	0xea000045
    e154:	e59f3160 	.word	0xe59f3160
    e158:	e3a02001 	.word	0xe3a02001
    e15c:	e5c32000 	.word	0xe5c32000
    e160:	ea000041 	.word	0xea000041
    e164:	e55b2030 	.word	0xe55b2030
    e168:	e50b203c 	.word	0xe50b203c
    e16c:	e51b303c 	.word	0xe51b303c
    e170:	e3530001 	.word	0xe3530001
    e174:	0a000003 	.word	0x0a000003
    e178:	e51b103c 	.word	0xe51b103c
    e17c:	e3510009 	.word	0xe3510009
    e180:	0a000003 	.word	0x0a000003
    e184:	ea000038 	.word	0xea000038
    e188:	e51b3034 	.word	0xe51b3034
    e18c:	e50b3010 	.word	0xe50b3010
    e190:	ea000035 	.word	0xea000035
    e194:	e51b3034 	.word	0xe51b3034
    e198:	e50b3014 	.word	0xe50b3014
    e19c:	e51b3014 	.word	0xe51b3014
    e1a0:	e5d33014 	.word	0xe5d33014
    e1a4:	e59f2114 	.word	0xe59f2114
    e1a8:	e5c23000 	.word	0xe5c23000
    e1ac:	e51b3014 	.word	0xe51b3014
    e1b0:	e5d33015 	.word	0xe5d33015
    e1b4:	e59f2104 	.word	0xe59f2104
    e1b8:	e5c23001 	.word	0xe5c23001
    e1bc:	e51b3014 	.word	0xe51b3014
    e1c0:	e5d32012 	.word	0xe5d32012
    e1c4:	e5d33013 	.word	0xe5d33013
    e1c8:	e1a03403 	.word	0xe1a03403
    e1cc:	e1833002 	.word	0xe1833002
    e1d0:	e1a03803 	.word	0xe1a03803
    e1d4:	e1a00823 	.word	0xe1a00823
    e1d8:	e59fc0e0 	.word	0xe59fc0e0
    e1dc:	e20010ff 	.word	0xe20010ff
    e1e0:	e3a03000 	.word	0xe3a03000
    e1e4:	e1a02003 	.word	0xe1a02003
    e1e8:	e1a03001 	.word	0xe1a03001
    e1ec:	e1823003 	.word	0xe1823003
    e1f0:	e5cc3002 	.word	0xe5cc3002
    e1f4:	e1a03420 	.word	0xe1a03420
    e1f8:	e1a03803 	.word	0xe1a03803
    e1fc:	e1a01823 	.word	0xe1a01823
    e200:	e3a03000 	.word	0xe3a03000
    e204:	e1a02003 	.word	0xe1a02003
    e208:	e1a03001 	.word	0xe1a03001
    e20c:	e1823003 	.word	0xe1823003
    e210:	e5cc3003 	.word	0xe5cc3003
    e214:	e51b3014 	.word	0xe51b3014
    e218:	e5d32010 	.word	0xe5d32010
    e21c:	e5d33011 	.word	0xe5d33011
    e220:	e1a03403 	.word	0xe1a03403
    e224:	e1833002 	.word	0xe1833002
    e228:	e1a03803 	.word	0xe1a03803
    e22c:	e1a00823 	.word	0xe1a00823
    e230:	e59fc088 	.word	0xe59fc088
    e234:	e20010ff 	.word	0xe20010ff
    e238:	e3a03000 	.word	0xe3a03000
    e23c:	e1a02003 	.word	0xe1a02003
    e240:	e1a03001 	.word	0xe1a03001
    e244:	e1823003 	.word	0xe1823003
    e248:	e5cc3004 	.word	0xe5cc3004
    e24c:	e1a03420 	.word	0xe1a03420
    e250:	e1a03803 	.word	0xe1a03803
    e254:	e1a01823 	.word	0xe1a01823
    e258:	e3a03000 	.word	0xe3a03000
    e25c:	e1a02003 	.word	0xe1a02003
    e260:	e1a03001 	.word	0xe1a03001
    e264:	e1823003 	.word	0xe1823003
    e268:	e5cc3005 	.word	0xe5cc3005
    e26c:	e24bd00c 	.word	0xe24bd00c
    e270:	e89d6800 	.word	0xe89d6800
    e274:	e12fff1e 	.word	0xe12fff1e
    e278:	40001e6e 	.word	0x40001e6e
    e27c:	40001f38 	.word	0x40001f38
    e280:	40002054 	.word	0x40002054
    e284:	51eb851f 	.word	0x51eb851f
    e288:	40001e74 	.word	0x40001e74
    e28c:	aaaaaaab 	.word	0xaaaaaaab
    e290:	40000b98 	.word	0x40000b98
    e294:	40000774 	.word	0x40000774
    e298:	40000e30 	.word	0x40000e30
    e29c:	400026bc 	.word	0x400026bc
    e2a0:	40001e69 	.word	0x40001e69
    e2a4:	40001e6a 	.word	0x40001e6a
    e2a8:	40001e6c 	.word	0x40001e6c
    e2ac:	40001e70 	.word	0x40001e70
    e2b0:	40002780 	.word	0x40002780
    e2b4:	0001259c 	.word	0x0001259c
    e2b8:	000125a2 	.word	0x000125a2
    e2bc:	40001e68 	.word	0x40001e68
    e2c0:	40002784 	.word	0x40002784

0000e2c4 <uBloxReceiveHandler>:
    e2c4:	e1a0c00d 	.word	0xe1a0c00d
    e2c8:	e92dd800 	.word	0xe92dd800
    e2cc:	e24cb004 	.word	0xe24cb004
    e2d0:	e24dd004 	.word	0xe24dd004
    e2d4:	e1a03000 	.word	0xe1a03000
    e2d8:	e54b3010 	.word	0xe54b3010
    e2dc:	e59f3670 	.word	0xe59f3670
    e2e0:	e5d3200a 	.word	0xe5d3200a
    e2e4:	e5d3300b 	.word	0xe5d3300b
    e2e8:	e1a03403 	.word	0xe1a03403
    e2ec:	e1833002 	.word	0xe1833002
    e2f0:	e1a03803 	.word	0xe1a03803
    e2f4:	e1a03823 	.word	0xe1a03823
    e2f8:	e2833001 	.word	0xe2833001
    e2fc:	e1a03803 	.word	0xe1a03803
    e300:	e1a00823 	.word	0xe1a00823
    e304:	e59fc648 	.word	0xe59fc648
    e308:	e20010ff 	.word	0xe20010ff
    e30c:	e3a03000 	.word	0xe3a03000
    e310:	e1a02003 	.word	0xe1a02003
    e314:	e1a03001 	.word	0xe1a03001
    e318:	e1823003 	.word	0xe1823003
    e31c:	e5cc300a 	.word	0xe5cc300a
    e320:	e1a03420 	.word	0xe1a03420
    e324:	e1a03803 	.word	0xe1a03803
    e328:	e1a01823 	.word	0xe1a01823
    e32c:	e3a03000 	.word	0xe3a03000
    e330:	e1a02003 	.word	0xe1a02003
    e334:	e1a03001 	.word	0xe1a03001
    e338:	e1823003 	.word	0xe1823003
    e33c:	e5cc300b 	.word	0xe5cc300b
    e340:	e59f3610 	.word	0xe59f3610
    e344:	e5d33000 	.word	0xe5d33000
    e348:	e3530009 	.word	0xe3530009
    e34c:	979ff103 	.word	0x979ff103
    e350:	ea000179 	.word	0xea000179
    e354:	0000e37c 	.word	0x0000e37c
    e358:	0000e398 	.word	0x0000e398
    e35c:	0000e440 	.word	0x0000e440
    e360:	0000e498 	.word	0x0000e498
    e364:	0000e4f0 	.word	0x0000e4f0
    e368:	0000e548 	.word	0x0000e548
    e36c:	0000e674 	.word	0x0000e674
    e370:	0000e724 	.word	0x0000e724
    e374:	0000e740 	.word	0x0000e740
    e378:	0000e820 	.word	0x0000e820
    e37c:	e55b3010 	.word	0xe55b3010
    e380:	e35300b5 	.word	0xe35300b5
    e384:	1a00016f 	.word	0x1a00016f
    e388:	e59f35c8 	.word	0xe59f35c8
    e38c:	e3a02001 	.word	0xe3a02001
    e390:	e5c32000 	.word	0xe5c32000
    e394:	ea00016b 	.word	0xea00016b
    e398:	e55b3010 	.word	0xe55b3010
    e39c:	e3530062 	.word	0xe3530062
    e3a0:	1a000022 	.word	0x1a000022
    e3a4:	e59f25ac 	.word	0xe59f25ac
    e3a8:	e3a03002 	.word	0xe3a03002
    e3ac:	e5c23000 	.word	0xe5c23000
    e3b0:	e59f25a4 	.word	0xe59f25a4
    e3b4:	e3a03000 	.word	0xe3a03000
    e3b8:	e5c23000 	.word	0xe5c23000
    e3bc:	e59f259c 	.word	0xe59f259c
    e3c0:	e3a03000 	.word	0xe3a03000
    e3c4:	e5c23000 	.word	0xe5c23000
    e3c8:	e59f3584 	.word	0xe59f3584
    e3cc:	e5d32008 	.word	0xe5d32008
    e3d0:	e5d33009 	.word	0xe5d33009
    e3d4:	e1a03403 	.word	0xe1a03403
    e3d8:	e1833002 	.word	0xe1833002
    e3dc:	e1a03803 	.word	0xe1a03803
    e3e0:	e1a03823 	.word	0xe1a03823
    e3e4:	e2833001 	.word	0xe2833001
    e3e8:	e1a03803 	.word	0xe1a03803
    e3ec:	e1a00823 	.word	0xe1a00823
    e3f0:	e59fc55c 	.word	0xe59fc55c
    e3f4:	e20010ff 	.word	0xe20010ff
    e3f8:	e3a03000 	.word	0xe3a03000
    e3fc:	e1a02003 	.word	0xe1a02003
    e400:	e1a03001 	.word	0xe1a03001
    e404:	e1823003 	.word	0xe1823003
    e408:	e5cc3008 	.word	0xe5cc3008
    e40c:	e1a03420 	.word	0xe1a03420
    e410:	e1a03803 	.word	0xe1a03803
    e414:	e1a01823 	.word	0xe1a01823
    e418:	e3a03000 	.word	0xe3a03000
    e41c:	e1a02003 	.word	0xe1a02003
    e420:	e1a03001 	.word	0xe1a03001
    e424:	e1823003 	.word	0xe1823003
    e428:	e5cc3009 	.word	0xe5cc3009
    e42c:	ea000145 	.word	0xea000145
    e430:	e59f3520 	.word	0xe59f3520
    e434:	e3a02000 	.word	0xe3a02000
    e438:	e5c32000 	.word	0xe5c32000
    e43c:	ea000141 	.word	0xea000141
    e440:	e59f251c 	.word	0xe59f251c
    e444:	e55b3010 	.word	0xe55b3010
    e448:	e5c23000 	.word	0xe5c23000
    e44c:	e59f2504 	.word	0xe59f2504
    e450:	e3a03003 	.word	0xe3a03003
    e454:	e5c23000 	.word	0xe5c23000
    e458:	e59f34fc 	.word	0xe59f34fc
    e45c:	e5d32000 	.word	0xe5d32000
    e460:	e55b3010 	.word	0xe55b3010
    e464:	e0823003 	.word	0xe0823003
    e468:	e20330ff 	.word	0xe20330ff
    e46c:	e59f24e8 	.word	0xe59f24e8
    e470:	e5c23000 	.word	0xe5c23000
    e474:	e59f34e4 	.word	0xe59f34e4
    e478:	e5d32000 	.word	0xe5d32000
    e47c:	e59f34d8 	.word	0xe59f34d8
    e480:	e5d33000 	.word	0xe5d33000
    e484:	e0823003 	.word	0xe0823003
    e488:	e20330ff 	.word	0xe20330ff
    e48c:	e59f24cc 	.word	0xe59f24cc
    e490:	e5c23000 	.word	0xe5c23000
    e494:	ea00012b 	.word	0xea00012b
    e498:	e59f24c8 	.word	0xe59f24c8
    e49c:	e55b3010 	.word	0xe55b3010
    e4a0:	e5c23000 	.word	0xe5c23000
    e4a4:	e59f24ac 	.word	0xe59f24ac
    e4a8:	e3a03004 	.word	0xe3a03004
    e4ac:	e5c23000 	.word	0xe5c23000
    e4b0:	e59f34a4 	.word	0xe59f34a4
    e4b4:	e5d32000 	.word	0xe5d32000
    e4b8:	e55b3010 	.word	0xe55b3010
    e4bc:	e0823003 	.word	0xe0823003
    e4c0:	e20330ff 	.word	0xe20330ff
    e4c4:	e59f2490 	.word	0xe59f2490
    e4c8:	e5c23000 	.word	0xe5c23000
    e4cc:	e59f348c 	.word	0xe59f348c
    e4d0:	e5d32000 	.word	0xe5d32000
    e4d4:	e59f3480 	.word	0xe59f3480
    e4d8:	e5d33000 	.word	0xe5d33000
    e4dc:	e0823003 	.word	0xe0823003
    e4e0:	e20330ff 	.word	0xe20330ff
    e4e4:	e59f2474 	.word	0xe59f2474
    e4e8:	e5c23000 	.word	0xe5c23000
    e4ec:	ea000115 	.word	0xea000115
    e4f0:	e55b2010 	.word	0xe55b2010
    e4f4:	e59f3470 	.word	0xe59f3470
    e4f8:	e1c320b0 	.word	0xe1c320b0
    e4fc:	e59f2454 	.word	0xe59f2454
    e500:	e3a03005 	.word	0xe3a03005
    e504:	e5c23000 	.word	0xe5c23000
    e508:	e59f344c 	.word	0xe59f344c
    e50c:	e5d32000 	.word	0xe5d32000
    e510:	e55b3010 	.word	0xe55b3010
    e514:	e0823003 	.word	0xe0823003
    e518:	e20330ff 	.word	0xe20330ff
    e51c:	e59f2438 	.word	0xe59f2438
    e520:	e5c23000 	.word	0xe5c23000
    e524:	e59f3434 	.word	0xe59f3434
    e528:	e5d32000 	.word	0xe5d32000
    e52c:	e59f3428 	.word	0xe59f3428
    e530:	e5d33000 	.word	0xe5d33000
    e534:	e0823003 	.word	0xe0823003
    e538:	e20330ff 	.word	0xe20330ff
    e53c:	e59f241c 	.word	0xe59f241c
    e540:	e5c23000 	.word	0xe5c23000
    e544:	ea0000ff 	.word	0xea0000ff
    e548:	e55b3010 	.word	0xe55b3010
    e54c:	e1a03403 	.word	0xe1a03403
    e550:	e1a03803 	.word	0xe1a03803
    e554:	e1a02823 	.word	0xe1a02823
    e558:	e59f340c 	.word	0xe59f340c
    e55c:	e1d330b0 	.word	0xe1d330b0
    e560:	e1823003 	.word	0xe1823003
    e564:	e1a03803 	.word	0xe1a03803
    e568:	e1a03823 	.word	0xe1a03823
    e56c:	e1a03803 	.word	0xe1a03803
    e570:	e1a02823 	.word	0xe1a02823
    e574:	e59f33f0 	.word	0xe59f33f0
    e578:	e1c320b0 	.word	0xe1c320b0
    e57c:	e59f23ec 	.word	0xe59f23ec
    e580:	e3a03000 	.word	0xe3a03000
    e584:	e1c230b0 	.word	0xe1c230b0
    e588:	e59f33cc 	.word	0xe59f33cc
    e58c:	e5d32000 	.word	0xe5d32000
    e590:	e55b3010 	.word	0xe55b3010
    e594:	e0823003 	.word	0xe0823003
    e598:	e20330ff 	.word	0xe20330ff
    e59c:	e59f23b8 	.word	0xe59f23b8
    e5a0:	e5c23000 	.word	0xe5c23000
    e5a4:	e59f33b4 	.word	0xe59f33b4
    e5a8:	e5d32000 	.word	0xe5d32000
    e5ac:	e59f33a8 	.word	0xe59f33a8
    e5b0:	e5d33000 	.word	0xe5d33000
    e5b4:	e0823003 	.word	0xe0823003
    e5b8:	e20330ff 	.word	0xe20330ff
    e5bc:	e59f239c 	.word	0xe59f239c
    e5c0:	e5c23000 	.word	0xe5c23000
    e5c4:	e59f3398 	.word	0xe59f3398
    e5c8:	e5d33000 	.word	0xe5d33000
    e5cc:	e3530002 	.word	0xe3530002
    e5d0:	1a000015 	.word	0x1a000015
    e5d4:	e59f338c 	.word	0xe59f338c
    e5d8:	e5d33000 	.word	0xe5d33000
    e5dc:	e3530010 	.word	0xe3530010
    e5e0:	1a000011 	.word	0x1a000011
    e5e4:	e59f3380 	.word	0xe59f3380
    e5e8:	e1d330b0 	.word	0xe1d330b0
    e5ec:	e3530f5e 	.word	0xe3530f5e
    e5f0:	da000009 	.word	0xda000009
    e5f4:	e59f235c 	.word	0xe59f235c
    e5f8:	e3a03000 	.word	0xe3a03000
    e5fc:	e5c23000 	.word	0xe5c23000
    e600:	e59f334c 	.word	0xe59f334c
    e604:	e5d3300c 	.word	0xe5d3300c
    e608:	e2833001 	.word	0xe2833001
    e60c:	e20330ff 	.word	0xe20330ff
    e610:	e59f233c 	.word	0xe59f233c
    e614:	e5c2300c 	.word	0xe5c2300c
    e618:	ea0000ca 	.word	0xea0000ca
    e61c:	e59f3334 	.word	0xe59f3334
    e620:	e3a02009 	.word	0xe3a02009
    e624:	e5c32000 	.word	0xe5c32000
    e628:	ea0000c6 	.word	0xea0000c6
    e62c:	e59f3338 	.word	0xe59f3338
    e630:	e1d330b0 	.word	0xe1d330b0
    e634:	e3530c01 	.word	0xe3530c01
    e638:	9a000009 	.word	0x9a000009
    e63c:	e59f2314 	.word	0xe59f2314
    e640:	e3a03000 	.word	0xe3a03000
    e644:	e5c23000 	.word	0xe5c23000
    e648:	e59f3304 	.word	0xe59f3304
    e64c:	e5d3300c 	.word	0xe5d3300c
    e650:	e2833001 	.word	0xe2833001
    e654:	e20330ff 	.word	0xe20330ff
    e658:	e59f22f4 	.word	0xe59f22f4
    e65c:	e5c2300c 	.word	0xe5c2300c
    e660:	ea0000b8 	.word	0xea0000b8
    e664:	e59f32ec 	.word	0xe59f32ec
    e668:	e3a02006 	.word	0xe3a02006
    e66c:	e5c32000 	.word	0xe5c32000
    e670:	ea0000b4 	.word	0xea0000b4
    e674:	e59f32e0 	.word	0xe59f32e0
    e678:	e5d32000 	.word	0xe5d32000
    e67c:	e55b3010 	.word	0xe55b3010
    e680:	e0823003 	.word	0xe0823003
    e684:	e20330ff 	.word	0xe20330ff
    e688:	e59f22cc 	.word	0xe59f22cc
    e68c:	e5c23000 	.word	0xe5c23000
    e690:	e59f32c8 	.word	0xe59f32c8
    e694:	e5d32000 	.word	0xe5d32000
    e698:	e59f32bc 	.word	0xe59f32bc
    e69c:	e5d33000 	.word	0xe5d33000
    e6a0:	e0823003 	.word	0xe0823003
    e6a4:	e20330ff 	.word	0xe20330ff
    e6a8:	e59f22b0 	.word	0xe59f22b0
    e6ac:	e5c23000 	.word	0xe5c23000
    e6b0:	e59f32b8 	.word	0xe59f32b8
    e6b4:	e1d330b0 	.word	0xe1d330b0
    e6b8:	e35300ff 	.word	0xe35300ff
    e6bc:	9a000003 	.word	0x9a000003
    e6c0:	e59f3290 	.word	0xe59f3290
    e6c4:	e3a02000 	.word	0xe3a02000
    e6c8:	e5c32000 	.word	0xe5c32000
    e6cc:	ea00009d 	.word	0xea00009d
    e6d0:	e59f3298 	.word	0xe59f3298
    e6d4:	e1d310b0 	.word	0xe1d310b0
    e6d8:	e1a00001 	.word	0xe1a00001
    e6dc:	e59f2290 	.word	0xe59f2290
    e6e0:	e55b3010 	.word	0xe55b3010
    e6e4:	e7c23000 	.word	0xe7c23000
    e6e8:	e2813001 	.word	0xe2813001
    e6ec:	e1a03803 	.word	0xe1a03803
    e6f0:	e1a02823 	.word	0xe1a02823
    e6f4:	e59f3274 	.word	0xe59f3274
    e6f8:	e1c320b0 	.word	0xe1c320b0
    e6fc:	e59f326c 	.word	0xe59f326c
    e700:	e1d320b0 	.word	0xe1d320b0
    e704:	e59f3260 	.word	0xe59f3260
    e708:	e1d330b0 	.word	0xe1d330b0
    e70c:	e1520003 	.word	0xe1520003
    e710:	1a00008c 	.word	0x1a00008c
    e714:	e59f323c 	.word	0xe59f323c
    e718:	e3a02007 	.word	0xe3a02007
    e71c:	e5c32000 	.word	0xe5c32000
    e720:	ea000088 	.word	0xea000088
    e724:	e59f224c 	.word	0xe59f224c
    e728:	e55b3010 	.word	0xe55b3010
    e72c:	e5c23000 	.word	0xe5c23000
    e730:	e59f2220 	.word	0xe59f2220
    e734:	e3a03008 	.word	0xe3a03008
    e738:	e5c23000 	.word	0xe5c23000
    e73c:	ea000081 	.word	0xea000081
    e740:	e59f2234 	.word	0xe59f2234
    e744:	e55b3010 	.word	0xe55b3010
    e748:	e5c23000 	.word	0xe5c23000
    e74c:	e59f3208 	.word	0xe59f3208
    e750:	e5d32000 	.word	0xe5d32000
    e754:	e59f321c 	.word	0xe59f321c
    e758:	e5d33000 	.word	0xe5d33000
    e75c:	e1520003 	.word	0xe1520003
    e760:	1a00002a 	.word	0x1a00002a
    e764:	e59f31f4 	.word	0xe59f31f4
    e768:	e5d32000 	.word	0xe5d32000
    e76c:	e59f3208 	.word	0xe59f3208
    e770:	e5d33000 	.word	0xe5d33000
    e774:	e1520003 	.word	0xe1520003
    e778:	1a000024 	.word	0x1a000024
    e77c:	e59f31d0 	.word	0xe59f31d0
    e780:	e5d32006 	.word	0xe5d32006
    e784:	e5d33007 	.word	0xe5d33007
    e788:	e1a03403 	.word	0xe1a03403
    e78c:	e1833002 	.word	0xe1833002
    e790:	e1a03803 	.word	0xe1a03803
    e794:	e1a03823 	.word	0xe1a03823
    e798:	e2833001 	.word	0xe2833001
    e79c:	e1a03803 	.word	0xe1a03803
    e7a0:	e1a00823 	.word	0xe1a00823
    e7a4:	e59fc1a8 	.word	0xe59fc1a8
    e7a8:	e20010ff 	.word	0xe20010ff
    e7ac:	e3a03000 	.word	0xe3a03000
    e7b0:	e1a02003 	.word	0xe1a02003
    e7b4:	e1a03001 	.word	0xe1a03001
    e7b8:	e1823003 	.word	0xe1823003
    e7bc:	e5cc3006 	.word	0xe5cc3006
    e7c0:	e1a03420 	.word	0xe1a03420
    e7c4:	e1a03803 	.word	0xe1a03803
    e7c8:	e1a01823 	.word	0xe1a01823
    e7cc:	e3a03000 	.word	0xe3a03000
    e7d0:	e1a02003 	.word	0xe1a02003
    e7d4:	e1a03001 	.word	0xe1a03001
    e7d8:	e1823003 	.word	0xe1823003
    e7dc:	e5cc3007 	.word	0xe5cc3007
    e7e0:	e59f317c 	.word	0xe59f317c
    e7e4:	e5d33000 	.word	0xe5d33000
    e7e8:	e1a01003 	.word	0xe1a01003
    e7ec:	e59f3174 	.word	0xe59f3174
    e7f0:	e5d33000 	.word	0xe5d33000
    e7f4:	e1a02003 	.word	0xe1a02003
    e7f8:	e59f316c 	.word	0xe59f316c
    e7fc:	e1d330b0 	.word	0xe1d330b0
    e800:	e1a00001 	.word	0xe1a00001
    e804:	e1a01002 	.word	0xe1a01002
    e808:	e59f2164 	.word	0xe59f2164
    e80c:	ebfffcbe 	.word	0xebfffcbe
    e810:	e59f3140 	.word	0xe59f3140
    e814:	e3a02000 	.word	0xe3a02000
    e818:	e5c32000 	.word	0xe5c32000
    e81c:	ea000049 	.word	0xea000049
    e820:	e59f3148 	.word	0xe59f3148
    e824:	e1d330b0 	.word	0xe1d330b0
    e828:	e1a02003 	.word	0xe1a02003
    e82c:	e3a03f5e 	.word	0xe3a03f5e
    e830:	e2833001 	.word	0xe2833001
    e834:	e1520003 	.word	0xe1520003
    e838:	da000006 	.word	0xda000006
    e83c:	e59f212c 	.word	0xe59f212c
    e840:	e3a03000 	.word	0xe3a03000
    e844:	e1c230b0 	.word	0xe1c230b0
    e848:	e59f2108 	.word	0xe59f2108
    e84c:	e3a03000 	.word	0xe3a03000
    e850:	e5c23000 	.word	0xe5c23000
    e854:	ea00003b 	.word	0xea00003b
    e858:	e59f3110 	.word	0xe59f3110
    e85c:	e1d330b0 	.word	0xe1d330b0
    e860:	e2831006 	.word	0xe2831006
    e864:	e59f2114 	.word	0xe59f2114
    e868:	e55b3010 	.word	0xe55b3010
    e86c:	e7c23001 	.word	0xe7c23001
    e870:	e59f30f8 	.word	0xe59f30f8
    e874:	e1d330b0 	.word	0xe1d330b0
    e878:	e2833001 	.word	0xe2833001
    e87c:	e1a03803 	.word	0xe1a03803
    e880:	e1a02823 	.word	0xe1a02823
    e884:	e59f30e4 	.word	0xe59f30e4
    e888:	e1c320b0 	.word	0xe1c320b0
    e88c:	e59f30dc 	.word	0xe59f30dc
    e890:	e1d330b0 	.word	0xe1d330b0
    e894:	e1a02003 	.word	0xe1a02003
    e898:	e59f30cc 	.word	0xe59f30cc
    e89c:	e1d330b0 	.word	0xe1d330b0
    e8a0:	e2833002 	.word	0xe2833002
    e8a4:	e1520003 	.word	0xe1520003
    e8a8:	1a000026 	.word	0x1a000026
    e8ac:	e59f20cc 	.word	0xe59f20cc
    e8b0:	e3e0304a 	.word	0xe3e0304a
    e8b4:	e5c23000 	.word	0xe5c23000
    e8b8:	e59f20c0 	.word	0xe59f20c0
    e8bc:	e3a03062 	.word	0xe3a03062
    e8c0:	e5c23001 	.word	0xe5c23001
    e8c4:	e59f20b4 	.word	0xe59f20b4
    e8c8:	e3a03002 	.word	0xe3a03002
    e8cc:	e5c23002 	.word	0xe5c23002
    e8d0:	e59f20a8 	.word	0xe59f20a8
    e8d4:	e3a03010 	.word	0xe3a03010
    e8d8:	e5c23003 	.word	0xe5c23003
    e8dc:	e59f3088 	.word	0xe59f3088
    e8e0:	e1d330b0 	.word	0xe1d330b0
    e8e4:	e20330ff 	.word	0xe20330ff
    e8e8:	e20330ff 	.word	0xe20330ff
    e8ec:	e59f208c 	.word	0xe59f208c
    e8f0:	e5c23004 	.word	0xe5c23004
    e8f4:	e59f3070 	.word	0xe59f3070
    e8f8:	e1d330b0 	.word	0xe1d330b0
    e8fc:	e1a03423 	.word	0xe1a03423
    e900:	e1a03803 	.word	0xe1a03803
    e904:	e1a03823 	.word	0xe1a03823
    e908:	e20330ff 	.word	0xe20330ff
    e90c:	e59f206c 	.word	0xe59f206c
    e910:	e5c23005 	.word	0xe5c23005
    e914:	e59f3050 	.word	0xe59f3050
    e918:	e1d330b0 	.word	0xe1d330b0
    e91c:	e2833008 	.word	0xe2833008
    e920:	e1a02003 	.word	0xe1a02003
    e924:	e59f3058 	.word	0xe59f3058
    e928:	e5832000 	.word	0xe5832000
    e92c:	e59f2024 	.word	0xe59f2024
    e930:	e3a03000 	.word	0xe3a03000
    e934:	e5c23000 	.word	0xe5c23000
    e938:	ea000002 	.word	0xea000002
    e93c:	e59f3014 	.word	0xe59f3014
    e940:	e3a02000 	.word	0xe3a02000
    e944:	e5c32000 	.word	0xe5c32000
    e948:	e24bd00c 	.word	0xe24bd00c
    e94c:	e89d6800 	.word	0xe89d6800
    e950:	e12fff1e 	.word	0xe12fff1e
    e954:	40002784 	.word	0x40002784
    e958:	40001e82 	.word	0x40001e82
    e95c:	40001e79 	.word	0x40001e79
    e960:	40001e78 	.word	0x40001e78
    e964:	40001e81 	.word	0x40001e81
    e968:	40001e80 	.word	0x40001e80
    e96c:	40001e7e 	.word	0x40001e7e
    e970:	40001e7c 	.word	0x40001e7c
    e974:	400025bc 	.word	0x400025bc
    e978:	40001e7b 	.word	0x40001e7b
    e97c:	40001e7a 	.word	0x40001e7a
    e980:	4000243c 	.word	0x4000243c
    e984:	40001e64 	.word	0x40001e64

0000e988 <uBloxReceiveEngine>:
    e988:	e1a0c00d 	.word	0xe1a0c00d
    e98c:	e92dd800 	.word	0xe92dd800
    e990:	e24cb004 	.word	0xe24cb004
    e994:	e24dd014 	.word	0xe24dd014
    e998:	e59f3c10 	.word	0xe59f3c10
    e99c:	e24b2014 	.word	0xe24b2014
    e9a0:	e3a0c004 	.word	0xe3a0c004
    e9a4:	e1a00002 	.word	0xe1a00002
    e9a8:	e1a01003 	.word	0xe1a01003
    e9ac:	e1a0200c 	.word	0xe1a0200c
    e9b0:	eb000eb9 	.word	0xeb000eb9
    e9b4:	e59f3bf8 	.word	0xe59f3bf8
    e9b8:	e24b201c 	.word	0xe24b201c
    e9bc:	e3a0c008 	.word	0xe3a0c008
    e9c0:	e1a00002 	.word	0xe1a00002
    e9c4:	e1a01003 	.word	0xe1a01003
    e9c8:	e1a0200c 	.word	0xe1a0200c
    e9cc:	eb000eb2 	.word	0xeb000eb2
    e9d0:	e59f3be0 	.word	0xe59f3be0
    e9d4:	e5933000 	.word	0xe5933000
    e9d8:	e2832001 	.word	0xe2832001
    e9dc:	e59f3bd4 	.word	0xe59f3bd4
    e9e0:	e5832000 	.word	0xe5832000
    e9e4:	e59f3bcc 	.word	0xe59f3bcc
    e9e8:	e5932000 	.word	0xe5932000
    e9ec:	e59f3bc8 	.word	0xe59f3bc8
    e9f0:	e0831392 	.word	0xe0831392
    e9f4:	e1a031a3 	.word	0xe1a031a3
    e9f8:	e50b3020 	.word	0xe50b3020
    e9fc:	e51b3020 	.word	0xe51b3020
    ea00:	e1a03103 	.word	0xe1a03103
    ea04:	e51b1020 	.word	0xe51b1020
    ea08:	e0833001 	.word	0xe0833001
    ea0c:	e1a03083 	.word	0xe1a03083
    ea10:	e0632002 	.word	0xe0632002
    ea14:	e50b2020 	.word	0xe50b2020
    ea18:	e51b3020 	.word	0xe51b3020
    ea1c:	e3530000 	.word	0xe3530000
    ea20:	1a0002df 	.word	0x1a0002df
    ea24:	e59f3b94 	.word	0xe59f3b94
    ea28:	e5d33000 	.word	0xe5d33000
    ea2c:	e3530000 	.word	0xe3530000
    ea30:	0a0002db 	.word	0x0a0002db
    ea34:	e59f3b88 	.word	0xe59f3b88
    ea38:	e5d33000 	.word	0xe5d33000
    ea3c:	e3530005 	.word	0xe3530005
    ea40:	979ff103 	.word	0x979ff103
    ea44:	ea0002d6 	.word	0xea0002d6
    ea48:	0000ea60 	.word	0x0000ea60
    ea4c:	0000eb38 	.word	0x0000eb38
    ea50:	0000ec50 	.word	0x0000ec50
    ea54:	0000f5a4 	.word	0x0000f5a4
    ea58:	0000ee4c 	.word	0x0000ee4c
    ea5c:	0000f32c 	.word	0x0000f32c
    ea60:	e59f2b60 	.word	0xe59f2b60
    ea64:	e3a03000 	.word	0xe3a03000
    ea68:	e5c23006 	.word	0xe5c23006
    ea6c:	e3a03000 	.word	0xe3a03000
    ea70:	e5c23007 	.word	0xe5c23007
    ea74:	e59f2b4c 	.word	0xe59f2b4c
    ea78:	e3a03000 	.word	0xe3a03000
    ea7c:	e5c23008 	.word	0xe5c23008
    ea80:	e3a03000 	.word	0xe3a03000
    ea84:	e5c23009 	.word	0xe5c23009
    ea88:	e59f2b38 	.word	0xe59f2b38
    ea8c:	e3a03000 	.word	0xe3a03000
    ea90:	e5c2300a 	.word	0xe5c2300a
    ea94:	e3a03000 	.word	0xe3a03000
    ea98:	e5c2300b 	.word	0xe5c2300b
    ea9c:	e59f2b24 	.word	0xe59f2b24
    eaa0:	e3a03000 	.word	0xe3a03000
    eaa4:	e5c2300c 	.word	0xe5c2300c
    eaa8:	e59f2b18 	.word	0xe59f2b18
    eaac:	e3a03000 	.word	0xe3a03000
    eab0:	e5c2300d 	.word	0xe5c2300d
    eab4:	e59f2b10 	.word	0xe59f2b10
    eab8:	e3a03000 	.word	0xe3a03000
    eabc:	e5c23000 	.word	0xe5c23000
    eac0:	e59f3b04 	.word	0xe59f3b04
    eac4:	e5d33000 	.word	0xe5d33000
    eac8:	e59f2b00 	.word	0xe59f2b00
    eacc:	e1a03083 	.word	0xe1a03083
    ead0:	e0833002 	.word	0xe0833002
    ead4:	e1d320b0 	.word	0xe1d320b0
    ead8:	e59f3af4 	.word	0xe59f3af4
    eadc:	e1c320b0 	.word	0xe1c320b0
    eae0:	e59f2af0 	.word	0xe59f2af0
    eae4:	e3a03000 	.word	0xe3a03000
    eae8:	e1c230b0 	.word	0xe1c230b0
    eaec:	e59f2ae8 	.word	0xe59f2ae8
    eaf0:	e59f3ae8 	.word	0xe59f3ae8
    eaf4:	e5823000 	.word	0xe5823000
    eaf8:	e59f3ae4 	.word	0xe59f3ae4
    eafc:	e1d330b0 	.word	0xe1d330b0
    eb00:	e3530000 	.word	0xe3530000
    eb04:	0a000007 	.word	0x0a000007
    eb08:	e59f3ad4 	.word	0xe59f3ad4
    eb0c:	e1d330b0 	.word	0xe1d330b0
    eb10:	e2433001 	.word	0xe2433001
    eb14:	e1a03803 	.word	0xe1a03803
    eb18:	e1a02823 	.word	0xe1a02823
    eb1c:	e59f3ac0 	.word	0xe59f3ac0
    eb20:	e1c320b0 	.word	0xe1c320b0
    eb24:	ea00029e 	.word	0xea00029e
    eb28:	e59f3a94 	.word	0xe59f3a94
    eb2c:	e3a02001 	.word	0xe3a02001
    eb30:	e5c32000 	.word	0xe5c32000
    eb34:	ea00029a 	.word	0xea00029a
    eb38:	e3a0320e 	.word	0xe3a0320e
    eb3c:	e2833801 	.word	0xe2833801
    eb40:	e2833014 	.word	0xe2833014
    eb44:	e5933000 	.word	0xe5933000
    eb48:	e2033040 	.word	0xe2033040
    eb4c:	e3530000 	.word	0xe3530000
    eb50:	0afffff8 	.word	0x0afffff8
    eb54:	e59f3a78 	.word	0xe59f3a78
    eb58:	e1d330b0 	.word	0xe1d330b0
    eb5c:	e1a00003 	.word	0xe1a00003
    eb60:	ebffe09f 	.word	0xebffe09f
    eb64:	e3a0328e 	.word	0xe3a0328e
    eb68:	e2833801 	.word	0xe2833801
    eb6c:	e3a02003 	.word	0xe3a02003
    eb70:	e5832000 	.word	0xe5832000
    eb74:	ebfffbbd 	.word	0xebfffbbd
    eb78:	ebfffbbc 	.word	0xebfffbbc
    eb7c:	ebfffbbb 	.word	0xebfffbbb
    eb80:	e59f3a44 	.word	0xe59f3a44
    eb84:	e5d33000 	.word	0xe5d33000
    eb88:	e2833001 	.word	0xe2833001
    eb8c:	e20330ff 	.word	0xe20330ff
    eb90:	e59f2a34 	.word	0xe59f2a34
    eb94:	e5c23000 	.word	0xe5c23000
    eb98:	e59f3a2c 	.word	0xe59f3a2c
    eb9c:	e5d33000 	.word	0xe5d33000
    eba0:	e3530001 	.word	0xe3530001
    eba4:	8a000008 	.word	0x8a000008
    eba8:	e59f3a1c 	.word	0xe59f3a1c
    ebac:	e5d33000 	.word	0xe5d33000
    ebb0:	e59f2a18 	.word	0xe59f2a18
    ebb4:	e1a03083 	.word	0xe1a03083
    ebb8:	e0833002 	.word	0xe0833002
    ebbc:	e1d320b0 	.word	0xe1d320b0
    ebc0:	e59f3a0c 	.word	0xe59f3a0c
    ebc4:	e1c320b0 	.word	0xe1c320b0
    ebc8:	ea000275 	.word	0xea000275
    ebcc:	e59f3a00 	.word	0xe59f3a00
    ebd0:	e3a02d96 	.word	0xe3a02d96
    ebd4:	e1c320b0 	.word	0xe1c320b0
    ebd8:	e3a0320e 	.word	0xe3a0320e
    ebdc:	e2833801 	.word	0xe2833801
    ebe0:	e2833014 	.word	0xe2833014
    ebe4:	e5933000 	.word	0xe5933000
    ebe8:	e2033040 	.word	0xe2033040
    ebec:	e3530000 	.word	0xe3530000
    ebf0:	0afffff8 	.word	0x0afffff8
    ebf4:	e59f39d8 	.word	0xe59f39d8
    ebf8:	e1d330b0 	.word	0xe1d330b0
    ebfc:	e1a00003 	.word	0xe1a00003
    ec00:	ebffe077 	.word	0xebffe077
    ec04:	e3a0328e 	.word	0xe3a0328e
    ec08:	e2833801 	.word	0xe2833801
    ec0c:	e3a02003 	.word	0xe3a02003
    ec10:	e5832000 	.word	0xe5832000
    ec14:	e59f29a8 	.word	0xe59f29a8
    ec18:	e3a03002 	.word	0xe3a03002
    ec1c:	e5c23000 	.word	0xe5c23000
    ec20:	e59f29c0 	.word	0xe59f29c0
    ec24:	e3a03001 	.word	0xe3a03001
    ec28:	e5c23000 	.word	0xe5c23000
    ec2c:	e3a00006 	.word	0xe3a00006
    ec30:	e3a01024 	.word	0xe3a01024
    ec34:	e3a02000 	.word	0xe3a02000
    ec38:	e3a03000 	.word	0xe3a03000
    ec3c:	ebfffad6 	.word	0xebfffad6
    ec40:	e59f29a4 	.word	0xe59f29a4
    ec44:	e3a0300a 	.word	0xe3a0300a
    ec48:	e5c23000 	.word	0xe5c23000
    ec4c:	ea000254 	.word	0xea000254
    ec50:	e59f3990 	.word	0xe59f3990
    ec54:	e5d33000 	.word	0xe5d33000
    ec58:	e3530000 	.word	0xe3530000
    ec5c:	1a000057 	.word	0x1a000057
    ec60:	e59f396c 	.word	0xe59f396c
    ec64:	e1d330b0 	.word	0xe1d330b0
    ec68:	e3530d96 	.word	0xe3530d96
    ec6c:	1a000037 	.word	0x1a000037
    ec70:	e3a03000 	.word	0xe3a03000
    ec74:	e50b3010 	.word	0xe50b3010
    ec78:	ea00001f 	.word	0xea00001f
    ec7c:	e59f396c 	.word	0xe59f396c
    ec80:	e5d33000 	.word	0xe5d33000
    ec84:	e3530001 	.word	0xe3530001
    ec88:	1a00000c 	.word	0x1a00000c
    ec8c:	e59f3960 	.word	0xe59f3960
    ec90:	e5d33000 	.word	0xe5d33000
    ec94:	e1a02003 	.word	0xe1a02003
    ec98:	e59f393c 	.word	0xe59f393c
    ec9c:	e5933000 	.word	0xe5933000
    eca0:	e0823003 	.word	0xe0823003
    eca4:	e5d33000 	.word	0xe5d33000
    eca8:	e3a00006 	.word	0xe3a00006
    ecac:	e1a01003 	.word	0xe1a01003
    ecb0:	e59f2940 	.word	0xe59f2940
    ecb4:	e3a03014 	.word	0xe3a03014
    ecb8:	ebfffab7 	.word	0xebfffab7
    ecbc:	ea00000b 	.word	0xea00000b
    ecc0:	e59f392c 	.word	0xe59f392c
    ecc4:	e5d33000 	.word	0xe5d33000
    ecc8:	e1a02003 	.word	0xe1a02003
    eccc:	e59f3908 	.word	0xe59f3908
    ecd0:	e5933000 	.word	0xe5933000
    ecd4:	e0823003 	.word	0xe0823003
    ecd8:	e5d33000 	.word	0xe5d33000
    ecdc:	e3a00006 	.word	0xe3a00006
    ece0:	e1a01003 	.word	0xe1a01003
    ece4:	e59f2910 	.word	0xe59f2910
    ece8:	e3a03014 	.word	0xe3a03014
    ecec:	ebfffaaa 	.word	0xebfffaaa
    ecf0:	e51b3010 	.word	0xe51b3010
    ecf4:	e2833001 	.word	0xe2833001
    ecf8:	e50b3010 	.word	0xe50b3010
    ecfc:	e51b3010 	.word	0xe51b3010
    ed00:	e3530002 	.word	0xe3530002
    ed04:	daffffdc 	.word	0xdaffffdc
    ed08:	e59f38c4 	.word	0xe59f38c4
    ed0c:	e3a02ce1 	.word	0xe3a02ce1
    ed10:	e1c320b0 	.word	0xe1c320b0
    ed14:	e3a0320e 	.word	0xe3a0320e
    ed18:	e2833801 	.word	0xe2833801
    ed1c:	e2833014 	.word	0xe2833014
    ed20:	e5933000 	.word	0xe5933000
    ed24:	e2033040 	.word	0xe2033040
    ed28:	e3530000 	.word	0xe3530000
    ed2c:	0afffff8 	.word	0x0afffff8
    ed30:	e59f389c 	.word	0xe59f389c
    ed34:	e1d330b0 	.word	0xe1d330b0
    ed38:	e1a00003 	.word	0xe1a00003
    ed3c:	ebffe028 	.word	0xebffe028
    ed40:	e3a0328e 	.word	0xe3a0328e
    ed44:	e2833801 	.word	0xe2833801
    ed48:	e3a02003 	.word	0xe3a02003
    ed4c:	e5832000 	.word	0xe5832000
    ed50:	e59f286c 	.word	0xe59f286c
    ed54:	e3a03004 	.word	0xe3a03004
    ed58:	e5c23000 	.word	0xe5c23000
    ed5c:	e59f289c 	.word	0xe59f289c
    ed60:	e3a03000 	.word	0xe3a03000
    ed64:	e5c23000 	.word	0xe5c23000
    ed68:	e59f2884 	.word	0xe59f2884
    ed6c:	e3a03001 	.word	0xe3a03001
    ed70:	e5c23000 	.word	0xe5c23000
    ed74:	e59f2888 	.word	0xe59f2888
    ed78:	e3a03000 	.word	0xe3a03000
    ed7c:	e5c23000 	.word	0xe5c23000
    ed80:	e59f2864 	.word	0xe59f2864
    ed84:	e3a0300a 	.word	0xe3a0300a
    ed88:	e5c23000 	.word	0xe5c23000
    ed8c:	e59f3860 	.word	0xe59f3860
    ed90:	e5d33000 	.word	0xe5d33000
    ed94:	e1a02003 	.word	0xe1a02003
    ed98:	e59f383c 	.word	0xe59f383c
    ed9c:	e5933000 	.word	0xe5933000
    eda0:	e0823003 	.word	0xe0823003
    eda4:	e5d33000 	.word	0xe5d33000
    eda8:	e3a00006 	.word	0xe3a00006
    edac:	e1a01003 	.word	0xe1a01003
    edb0:	e59f2850 	.word	0xe59f2850
    edb4:	e3a03006 	.word	0xe3a03006
    edb8:	ebfffa77 	.word	0xebfffa77
    edbc:	ea0001f8 	.word	0xea0001f8
    edc0:	e59f3824 	.word	0xe59f3824
    edc4:	e5d33000 	.word	0xe5d33000
    edc8:	e3530000 	.word	0xe3530000
    edcc:	0a000006 	.word	0x0a000006
    edd0:	e59f3814 	.word	0xe59f3814
    edd4:	e5d33000 	.word	0xe5d33000
    edd8:	e2433001 	.word	0xe2433001
    eddc:	e20330ff 	.word	0xe20330ff
    ede0:	e59f2804 	.word	0xe59f2804
    ede4:	e5c23000 	.word	0xe5c23000
    ede8:	ea0001ed 	.word	0xea0001ed
    edec:	e59f37cc 	.word	0xe59f37cc
    edf0:	e5d33000 	.word	0xe5d33000
    edf4:	e2433001 	.word	0xe2433001
    edf8:	e20330ff 	.word	0xe20330ff
    edfc:	e59f27bc 	.word	0xe59f27bc
    ee00:	e5c23000 	.word	0xe5c23000
    ee04:	e59f27cc 	.word	0xe59f27cc
    ee08:	e3a03000 	.word	0xe3a03000
    ee0c:	e1c230b0 	.word	0xe1c230b0
    ee10:	e59f27ac 	.word	0xe59f27ac
    ee14:	e3a03002 	.word	0xe3a03002
    ee18:	e5c23000 	.word	0xe5c23000
    ee1c:	e59f27c4 	.word	0xe59f27c4
    ee20:	e3a03001 	.word	0xe3a03001
    ee24:	e5c23000 	.word	0xe5c23000
    ee28:	e3a00006 	.word	0xe3a00006
    ee2c:	e3a01024 	.word	0xe3a01024
    ee30:	e3a02000 	.word	0xe3a02000
    ee34:	e3a03000 	.word	0xe3a03000
    ee38:	ebfffa57 	.word	0xebfffa57
    ee3c:	e59f27a8 	.word	0xe59f27a8
    ee40:	e3a0300a 	.word	0xe3a0300a
    ee44:	e5c23000 	.word	0xe5c23000
    ee48:	ea0001d5 	.word	0xea0001d5
    ee4c:	e59f37ac 	.word	0xe59f37ac
    ee50:	e5d33000 	.word	0xe5d33000
    ee54:	e3530000 	.word	0xe3530000
    ee58:	0a0000bc 	.word	0x0a0000bc
    ee5c:	e59f37a8 	.word	0xe59f37a8
    ee60:	e5d33000 	.word	0xe5d33000
    ee64:	e3530006 	.word	0xe3530006
    ee68:	1a0000b8 	.word	0x1a0000b8
    ee6c:	e59f3780 	.word	0xe59f3780
    ee70:	e5d33000 	.word	0xe5d33000
    ee74:	e1a02003 	.word	0xe1a02003
    ee78:	e59f375c 	.word	0xe59f375c
    ee7c:	e5933000 	.word	0xe5933000
    ee80:	e0823003 	.word	0xe0823003
    ee84:	e5d32000 	.word	0xe5d32000
    ee88:	e59f3780 	.word	0xe59f3780
    ee8c:	e5d33000 	.word	0xe5d33000
    ee90:	e1520003 	.word	0xe1520003
    ee94:	1a0000ad 	.word	0x1a0000ad
    ee98:	e59f2760 	.word	0xe59f2760
    ee9c:	e3a03000 	.word	0xe3a03000
    eea0:	e5c23000 	.word	0xe5c23000
    eea4:	e59f2714 	.word	0xe59f2714
    eea8:	e3a03050 	.word	0xe3a03050
    eeac:	e5c23000 	.word	0xe5c23000
    eeb0:	e59f373c 	.word	0xe59f373c
    eeb4:	e5d33000 	.word	0xe5d33000
    eeb8:	e2833001 	.word	0xe2833001
    eebc:	e20330ff 	.word	0xe20330ff
    eec0:	e59f272c 	.word	0xe59f272c
    eec4:	e5c23000 	.word	0xe5c23000
    eec8:	e59f3720 	.word	0xe59f3720
    eecc:	e5d33000 	.word	0xe5d33000
    eed0:	e3530002 	.word	0xe3530002
    eed4:	1a000003 	.word	0x1a000003
    eed8:	e59f3714 	.word	0xe59f3714
    eedc:	e5d33000 	.word	0xe5d33000
    eee0:	e3530006 	.word	0xe3530006
    eee4:	0a000007 	.word	0x0a000007
    eee8:	e59f3700 	.word	0xe59f3700
    eeec:	e5d33000 	.word	0xe5d33000
    eef0:	e3530001 	.word	0xe3530001
    eef4:	1a000032 	.word	0x1a000032
    eef8:	e59f36f4 	.word	0xe59f36f4
    eefc:	e5d33000 	.word	0xe5d33000
    ef00:	e3530005 	.word	0xe3530005
    ef04:	1a00002e 	.word	0x1a00002e
    ef08:	e59f26b4 	.word	0xe59f26b4
    ef0c:	e3a03005 	.word	0xe3a03005
    ef10:	e5c23000 	.word	0xe5c23000
    ef14:	e59f26d8 	.word	0xe59f26d8
    ef18:	e3a03000 	.word	0xe3a03000
    ef1c:	e5c23000 	.word	0xe5c23000
    ef20:	e59f26c4 	.word	0xe59f26c4
    ef24:	e3a0300a 	.word	0xe3a0300a
    ef28:	e5c23000 	.word	0xe5c23000
    ef2c:	e59f36c0 	.word	0xe59f36c0
    ef30:	e5d33000 	.word	0xe5d33000
    ef34:	e1a02003 	.word	0xe1a02003
    ef38:	e59f16d4 	.word	0xe59f16d4
    ef3c:	e1a03002 	.word	0xe1a03002
    ef40:	e1a03083 	.word	0xe1a03083
    ef44:	e0833002 	.word	0xe0833002
    ef48:	e0833001 	.word	0xe0833001
    ef4c:	e5d33000 	.word	0xe5d33000
    ef50:	e1a0c003 	.word	0xe1a0c003
    ef54:	e59f3698 	.word	0xe59f3698
    ef58:	e5d33000 	.word	0xe5d33000
    ef5c:	e1a02003 	.word	0xe1a02003
    ef60:	e59f16ac 	.word	0xe59f16ac
    ef64:	e3a00001 	.word	0xe3a00001
    ef68:	e1a03002 	.word	0xe1a03002
    ef6c:	e1a03083 	.word	0xe1a03083
    ef70:	e0833002 	.word	0xe0833002
    ef74:	e0833001 	.word	0xe0833001
    ef78:	e0833000 	.word	0xe0833000
    ef7c:	e5d33000 	.word	0xe5d33000
    ef80:	e1a0e003 	.word	0xe1a0e003
    ef84:	e59f3668 	.word	0xe59f3668
    ef88:	e5d33000 	.word	0xe5d33000
    ef8c:	e1a02003 	.word	0xe1a02003
    ef90:	e59f167c 	.word	0xe59f167c
    ef94:	e3a00002 	.word	0xe3a00002
    ef98:	e1a03002 	.word	0xe1a03002
    ef9c:	e1a03083 	.word	0xe1a03083
    efa0:	e0833002 	.word	0xe0833002
    efa4:	e0833001 	.word	0xe0833001
    efa8:	e0833000 	.word	0xe0833000
    efac:	e5d33000 	.word	0xe5d33000
    efb0:	e1a0000c 	.word	0xe1a0000c
    efb4:	e1a0100e 	.word	0xe1a0100e
    efb8:	e1a02003 	.word	0xe1a02003
    efbc:	ebfffa92 	.word	0xebfffa92
    efc0:	ea000177 	.word	0xea000177
    efc4:	e59f2620 	.word	0xe59f2620
    efc8:	e3a0300a 	.word	0xe3a0300a
    efcc:	e5c23000 	.word	0xe5c23000
    efd0:	e59f361c 	.word	0xe59f361c
    efd4:	e5d33000 	.word	0xe5d33000
    efd8:	e3530001 	.word	0xe3530001
    efdc:	1a00000c 	.word	0x1a00000c
    efe0:	e59f360c 	.word	0xe59f360c
    efe4:	e5d33000 	.word	0xe5d33000
    efe8:	e1a02003 	.word	0xe1a02003
    efec:	e59f35e8 	.word	0xe59f35e8
    eff0:	e5933000 	.word	0xe5933000
    eff4:	e0823003 	.word	0xe0823003
    eff8:	e5d33000 	.word	0xe5d33000
    effc:	e3a00006 	.word	0xe3a00006
    f000:	e1a01003 	.word	0xe1a01003
    f004:	e59f25fc 	.word	0xe59f25fc
    f008:	e3a03006 	.word	0xe3a03006
    f00c:	ebfff9e2 	.word	0xebfff9e2
    f010:	ea000163 	.word	0xea000163
    f014:	e59f35d8 	.word	0xe59f35d8
    f018:	e5d33000 	.word	0xe5d33000
    f01c:	e3530002 	.word	0xe3530002
    f020:	1a00000c 	.word	0x1a00000c
    f024:	e59f35c8 	.word	0xe59f35c8
    f028:	e5d33000 	.word	0xe5d33000
    f02c:	e1a02003 	.word	0xe1a02003
    f030:	e59f35a4 	.word	0xe59f35a4
    f034:	e5933000 	.word	0xe5933000
    f038:	e0823003 	.word	0xe0823003
    f03c:	e5d33000 	.word	0xe5d33000
    f040:	e24b2014 	.word	0xe24b2014
    f044:	e3a00006 	.word	0xe3a00006
    f048:	e1a01003 	.word	0xe1a01003
    f04c:	e3a03004 	.word	0xe3a03004
    f050:	ebfff9d1 	.word	0xebfff9d1
    f054:	ea000152 	.word	0xea000152
    f058:	e59f3594 	.word	0xe59f3594
    f05c:	e5d33000 	.word	0xe5d33000
    f060:	e3530003 	.word	0xe3530003
    f064:	1a00000c 	.word	0x1a00000c
    f068:	e59f3584 	.word	0xe59f3584
    f06c:	e5d33000 	.word	0xe5d33000
    f070:	e1a02003 	.word	0xe1a02003
    f074:	e59f3560 	.word	0xe59f3560
    f078:	e5933000 	.word	0xe5933000
    f07c:	e0823003 	.word	0xe0823003
    f080:	e5d33000 	.word	0xe5d33000
    f084:	e24b201c 	.word	0xe24b201c
    f088:	e3a00006 	.word	0xe3a00006
    f08c:	e1a01003 	.word	0xe1a01003
    f090:	e3a03008 	.word	0xe3a03008
    f094:	ebfff9c0 	.word	0xebfff9c0
    f098:	ea000141 	.word	0xea000141
    f09c:	e59f3550 	.word	0xe59f3550
    f0a0:	e5d33000 	.word	0xe5d33000
    f0a4:	e1a02003 	.word	0xe1a02003
    f0a8:	e59f352c 	.word	0xe59f352c
    f0ac:	e5933000 	.word	0xe5933000
    f0b0:	e0823003 	.word	0xe0823003
    f0b4:	e5d33000 	.word	0xe5d33000
    f0b8:	e3530023 	.word	0xe3530023
    f0bc:	1a000005 	.word	0x1a000005
    f0c0:	e3a00006 	.word	0xe3a00006
    f0c4:	e3a01023 	.word	0xe3a01023
    f0c8:	e59f2548 	.word	0xe59f2548
    f0cc:	e3a03028 	.word	0xe3a03028
    f0d0:	ebfff9b1 	.word	0xebfff9b1
    f0d4:	ea000132 	.word	0xea000132
    f0d8:	e59f3514 	.word	0xe59f3514
    f0dc:	e5d33000 	.word	0xe5d33000
    f0e0:	e1a02003 	.word	0xe1a02003
    f0e4:	e59f34f0 	.word	0xe59f34f0
    f0e8:	e5933000 	.word	0xe5933000
    f0ec:	e0823003 	.word	0xe0823003
    f0f0:	e5d33000 	.word	0xe5d33000
    f0f4:	e3530024 	.word	0xe3530024
    f0f8:	1a000005 	.word	0x1a000005
    f0fc:	e3a00006 	.word	0xe3a00006
    f100:	e3a01024 	.word	0xe3a01024
    f104:	e59f2510 	.word	0xe59f2510
    f108:	e3a03024 	.word	0xe3a03024
    f10c:	ebfff9a2 	.word	0xebfff9a2
    f110:	ea000123 	.word	0xea000123
    f114:	e59f34d8 	.word	0xe59f34d8
    f118:	e5d33000 	.word	0xe5d33000
    f11c:	e1a02003 	.word	0xe1a02003
    f120:	e59f34b4 	.word	0xe59f34b4
    f124:	e5933000 	.word	0xe5933000
    f128:	e0823003 	.word	0xe0823003
    f12c:	e5d33000 	.word	0xe5d33000
    f130:	e353001a 	.word	0xe353001a
    f134:	1a00011a 	.word	0x1a00011a
    f138:	e3a00006 	.word	0xe3a00006
    f13c:	e3a0101a 	.word	0xe3a0101a
    f140:	e59f24d8 	.word	0xe59f24d8
    f144:	e3a03028 	.word	0xe3a03028
    f148:	ebfff993 	.word	0xebfff993
    f14c:	ea000114 	.word	0xea000114
    f150:	e59f3494 	.word	0xe59f3494
    f154:	e5d33000 	.word	0xe5d33000
    f158:	e3530000 	.word	0xe3530000
    f15c:	0a000006 	.word	0x0a000006
    f160:	e59f3484 	.word	0xe59f3484
    f164:	e5d33000 	.word	0xe5d33000
    f168:	e2433001 	.word	0xe2433001
    f16c:	e20330ff 	.word	0xe20330ff
    f170:	e59f2474 	.word	0xe59f2474
    f174:	e5c23000 	.word	0xe5c23000
    f178:	ea000109 	.word	0xea000109
    f17c:	e59f343c 	.word	0xe59f343c
    f180:	e5d33000 	.word	0xe5d33000
    f184:	e2433001 	.word	0xe2433001
    f188:	e20330ff 	.word	0xe20330ff
    f18c:	e59f242c 	.word	0xe59f242c
    f190:	e5c23000 	.word	0xe5c23000
    f194:	e59f2464 	.word	0xe59f2464
    f198:	e3a03000 	.word	0xe3a03000
    f19c:	e5c23000 	.word	0xe5c23000
    f1a0:	e59f2444 	.word	0xe59f2444
    f1a4:	e3a0300a 	.word	0xe3a0300a
    f1a8:	e5c23000 	.word	0xe5c23000
    f1ac:	e59f3440 	.word	0xe59f3440
    f1b0:	e5d33000 	.word	0xe5d33000
    f1b4:	e3530001 	.word	0xe3530001
    f1b8:	1a00000c 	.word	0x1a00000c
    f1bc:	e59f3430 	.word	0xe59f3430
    f1c0:	e5d33000 	.word	0xe5d33000
    f1c4:	e1a02003 	.word	0xe1a02003
    f1c8:	e59f340c 	.word	0xe59f340c
    f1cc:	e5933000 	.word	0xe5933000
    f1d0:	e0823003 	.word	0xe0823003
    f1d4:	e5d33000 	.word	0xe5d33000
    f1d8:	e3a00006 	.word	0xe3a00006
    f1dc:	e1a01003 	.word	0xe1a01003
    f1e0:	e59f2420 	.word	0xe59f2420
    f1e4:	e3a03006 	.word	0xe3a03006
    f1e8:	ebfff96b 	.word	0xebfff96b
    f1ec:	ea0000ec 	.word	0xea0000ec
    f1f0:	e59f33fc 	.word	0xe59f33fc
    f1f4:	e5d33000 	.word	0xe5d33000
    f1f8:	e3530002 	.word	0xe3530002
    f1fc:	1a00000c 	.word	0x1a00000c
    f200:	e59f33ec 	.word	0xe59f33ec
    f204:	e5d33000 	.word	0xe5d33000
    f208:	e1a02003 	.word	0xe1a02003
    f20c:	e59f33c8 	.word	0xe59f33c8
    f210:	e5933000 	.word	0xe5933000
    f214:	e0823003 	.word	0xe0823003
    f218:	e5d33000 	.word	0xe5d33000
    f21c:	e24b2014 	.word	0xe24b2014
    f220:	e3a00006 	.word	0xe3a00006
    f224:	e1a01003 	.word	0xe1a01003
    f228:	e3a03004 	.word	0xe3a03004
    f22c:	ebfff95a 	.word	0xebfff95a
    f230:	ea0000db 	.word	0xea0000db
    f234:	e59f33b8 	.word	0xe59f33b8
    f238:	e5d33000 	.word	0xe5d33000
    f23c:	e3530003 	.word	0xe3530003
    f240:	1a00000c 	.word	0x1a00000c
    f244:	e59f33a8 	.word	0xe59f33a8
    f248:	e5d33000 	.word	0xe5d33000
    f24c:	e1a02003 	.word	0xe1a02003
    f250:	e59f3384 	.word	0xe59f3384
    f254:	e5933000 	.word	0xe5933000
    f258:	e0823003 	.word	0xe0823003
    f25c:	e5d33000 	.word	0xe5d33000
    f260:	e24b201c 	.word	0xe24b201c
    f264:	e3a00006 	.word	0xe3a00006
    f268:	e1a01003 	.word	0xe1a01003
    f26c:	e3a03008 	.word	0xe3a03008
    f270:	ebfff949 	.word	0xebfff949
    f274:	ea0000ca 	.word	0xea0000ca
    f278:	e59f3374 	.word	0xe59f3374
    f27c:	e5d33000 	.word	0xe5d33000
    f280:	e1a02003 	.word	0xe1a02003
    f284:	e59f3350 	.word	0xe59f3350
    f288:	e5933000 	.word	0xe5933000
    f28c:	e0823003 	.word	0xe0823003
    f290:	e5d33000 	.word	0xe5d33000
    f294:	e3530023 	.word	0xe3530023
    f298:	1a000005 	.word	0x1a000005
    f29c:	e3a00006 	.word	0xe3a00006
    f2a0:	e3a01023 	.word	0xe3a01023
    f2a4:	e59f236c 	.word	0xe59f236c
    f2a8:	e3a03028 	.word	0xe3a03028
    f2ac:	ebfff93a 	.word	0xebfff93a
    f2b0:	ea0000bb 	.word	0xea0000bb
    f2b4:	e59f3338 	.word	0xe59f3338
    f2b8:	e5d33000 	.word	0xe5d33000
    f2bc:	e1a02003 	.word	0xe1a02003
    f2c0:	e59f3314 	.word	0xe59f3314
    f2c4:	e5933000 	.word	0xe5933000
    f2c8:	e0823003 	.word	0xe0823003
    f2cc:	e5d33000 	.word	0xe5d33000
    f2d0:	e3530024 	.word	0xe3530024
    f2d4:	1a000005 	.word	0x1a000005
    f2d8:	e3a00006 	.word	0xe3a00006
    f2dc:	e3a01024 	.word	0xe3a01024
    f2e0:	e59f2334 	.word	0xe59f2334
    f2e4:	e3a03024 	.word	0xe3a03024
    f2e8:	ebfff92b 	.word	0xebfff92b
    f2ec:	ea0000ac 	.word	0xea0000ac
    f2f0:	e59f32fc 	.word	0xe59f32fc
    f2f4:	e5d33000 	.word	0xe5d33000
    f2f8:	e1a02003 	.word	0xe1a02003
    f2fc:	e59f32d8 	.word	0xe59f32d8
    f300:	e5933000 	.word	0xe5933000
    f304:	e0823003 	.word	0xe0823003
    f308:	e5d33000 	.word	0xe5d33000
    f30c:	e353001a 	.word	0xe353001a
    f310:	1a0000a3 	.word	0x1a0000a3
    f314:	e3a00006 	.word	0xe3a00006
    f318:	e3a0101a 	.word	0xe3a0101a
    f31c:	e59f22fc 	.word	0xe59f22fc
    f320:	e3a03028 	.word	0xe3a03028
    f324:	ebfff91c 	.word	0xebfff91c
    f328:	ea00009d 	.word	0xea00009d
    f32c:	e59f32cc 	.word	0xe59f32cc
    f330:	e5d33000 	.word	0xe5d33000
    f334:	e3530000 	.word	0xe3530000
    f338:	0a00005a 	.word	0x0a00005a
    f33c:	e59f22bc 	.word	0xe59f22bc
    f340:	e3a03000 	.word	0xe3a03000
    f344:	e5c23000 	.word	0xe5c23000
    f348:	e59f32a4 	.word	0xe59f32a4
    f34c:	e5d33000 	.word	0xe5d33000
    f350:	e2833001 	.word	0xe2833001
    f354:	e20330ff 	.word	0xe20330ff
    f358:	e59f2294 	.word	0xe59f2294
    f35c:	e5c23000 	.word	0xe5c23000
    f360:	e59f2258 	.word	0xe59f2258
    f364:	e3a03050 	.word	0xe3a03050
    f368:	e5c23000 	.word	0xe5c23000
    f36c:	e59f327c 	.word	0xe59f327c
    f370:	e5d33000 	.word	0xe5d33000
    f374:	e3530002 	.word	0xe3530002
    f378:	1a000009 	.word	0x1a000009
    f37c:	e59f3270 	.word	0xe59f3270
    f380:	e5d33000 	.word	0xe5d33000
    f384:	e3530006 	.word	0xe3530006
    f388:	1a000005 	.word	0x1a000005
    f38c:	e59f3260 	.word	0xe59f3260
    f390:	e5d33000 	.word	0xe5d33000
    f394:	e2833001 	.word	0xe2833001
    f398:	e20330ff 	.word	0xe20330ff
    f39c:	e59f2250 	.word	0xe59f2250
    f3a0:	e5c23000 	.word	0xe5c23000
    f3a4:	e59f3248 	.word	0xe59f3248
    f3a8:	e5d33000 	.word	0xe5d33000
    f3ac:	e3530007 	.word	0xe3530007
    f3b0:	1a000005 	.word	0x1a000005
    f3b4:	e59f3238 	.word	0xe59f3238
    f3b8:	e5d33000 	.word	0xe5d33000
    f3bc:	e2833001 	.word	0xe2833001
    f3c0:	e20330ff 	.word	0xe20330ff
    f3c4:	e59f2228 	.word	0xe59f2228
    f3c8:	e5c23000 	.word	0xe5c23000
    f3cc:	e59f3220 	.word	0xe59f3220
    f3d0:	e5d33000 	.word	0xe5d33000
    f3d4:	e3530008 	.word	0xe3530008
    f3d8:	1a000003 	.word	0x1a000003
    f3dc:	e59f31e0 	.word	0xe59f31e0
    f3e0:	e3a02006 	.word	0xe3a02006
    f3e4:	e5c32000 	.word	0xe5c32000
    f3e8:	ea00006d 	.word	0xea00006d
    f3ec:	e59f21d0 	.word	0xe59f21d0
    f3f0:	e3a03005 	.word	0xe3a03005
    f3f4:	e5c23000 	.word	0xe5c23000
    f3f8:	e59f2204 	.word	0xe59f2204
    f3fc:	e3a03000 	.word	0xe3a03000
    f400:	e5c23000 	.word	0xe5c23000
    f404:	e59f21e0 	.word	0xe59f21e0
    f408:	e3a0300a 	.word	0xe3a0300a
    f40c:	e5c23000 	.word	0xe5c23000
    f410:	e59f31dc 	.word	0xe59f31dc
    f414:	e5d33000 	.word	0xe5d33000
    f418:	e1a02003 	.word	0xe1a02003
    f41c:	e59f11f0 	.word	0xe59f11f0
    f420:	e1a03002 	.word	0xe1a03002
    f424:	e1a03083 	.word	0xe1a03083
    f428:	e0833002 	.word	0xe0833002
    f42c:	e0833001 	.word	0xe0833001
    f430:	e5d33000 	.word	0xe5d33000
    f434:	e1a0c003 	.word	0xe1a0c003
    f438:	e59f31b4 	.word	0xe59f31b4
    f43c:	e5d33000 	.word	0xe5d33000
    f440:	e1a02003 	.word	0xe1a02003
    f444:	e59f11c8 	.word	0xe59f11c8
    f448:	e3a00001 	.word	0xe3a00001
    f44c:	e1a03002 	.word	0xe1a03002
    f450:	e1a03083 	.word	0xe1a03083
    f454:	e0833002 	.word	0xe0833002
    f458:	e0833001 	.word	0xe0833001
    f45c:	e0833000 	.word	0xe0833000
    f460:	e5d33000 	.word	0xe5d33000
    f464:	e1a0e003 	.word	0xe1a0e003
    f468:	e59f3184 	.word	0xe59f3184
    f46c:	e5d33000 	.word	0xe5d33000
    f470:	e1a02003 	.word	0xe1a02003
    f474:	e59f1198 	.word	0xe59f1198
    f478:	e3a00002 	.word	0xe3a00002
    f47c:	e1a03002 	.word	0xe1a03002
    f480:	e1a03083 	.word	0xe1a03083
    f484:	e0833002 	.word	0xe0833002
    f488:	e0833001 	.word	0xe0833001
    f48c:	e0833000 	.word	0xe0833000
    f490:	e5d33000 	.word	0xe5d33000
    f494:	e1a0000c 	.word	0xe1a0000c
    f498:	e1a0100e 	.word	0xe1a0100e
    f49c:	e1a02003 	.word	0xe1a02003
    f4a0:	ebfff959 	.word	0xebfff959
    f4a4:	ea00003e 	.word	0xea00003e
    f4a8:	e59f313c 	.word	0xe59f313c
    f4ac:	e5d33000 	.word	0xe5d33000
    f4b0:	e3530000 	.word	0xe3530000
    f4b4:	0a000006 	.word	0x0a000006
    f4b8:	e59f312c 	.word	0xe59f312c
    f4bc:	e5d33000 	.word	0xe5d33000
    f4c0:	e2433001 	.word	0xe2433001
    f4c4:	e20330ff 	.word	0xe20330ff
    f4c8:	e59f211c 	.word	0xe59f211c
    f4cc:	e5c23000 	.word	0xe5c23000
    f4d0:	ea000033 	.word	0xea000033
    f4d4:	e59f30e4 	.word	0xe59f30e4
    f4d8:	e5d33000 	.word	0xe5d33000
    f4dc:	e2433001 	.word	0xe2433001
    f4e0:	e20330ff 	.word	0xe20330ff
    f4e4:	e59f20d4 	.word	0xe59f20d4
    f4e8:	e5c23000 	.word	0xe5c23000
    f4ec:	e59f3100 	.word	0xe59f3100
    f4f0:	e5d33000 	.word	0xe5d33000
    f4f4:	e1a02003 	.word	0xe1a02003
    f4f8:	e59f1114 	.word	0xe59f1114
    f4fc:	e1a03002 	.word	0xe1a03002
    f500:	e1a03083 	.word	0xe1a03083
    f504:	e0833002 	.word	0xe0833002
    f508:	e0833001 	.word	0xe0833001
    f50c:	e5d33000 	.word	0xe5d33000
    f510:	e1a0c003 	.word	0xe1a0c003
    f514:	e59f30d8 	.word	0xe59f30d8
    f518:	e5d33000 	.word	0xe5d33000
    f51c:	e1a02003 	.word	0xe1a02003
    f520:	e59f10ec 	.word	0xe59f10ec
    f524:	e3a00001 	.word	0xe3a00001
    f528:	e1a03002 	.word	0xe1a03002
    f52c:	e1a03083 	.word	0xe1a03083
    f530:	e0833002 	.word	0xe0833002
    f534:	e0833001 	.word	0xe0833001
    f538:	e0833000 	.word	0xe0833000
    f53c:	e5d33000 	.word	0xe5d33000
    f540:	e1a0e003 	.word	0xe1a0e003
    f544:	e59f30a8 	.word	0xe59f30a8
    f548:	e5d33000 	.word	0xe5d33000
    f54c:	e1a02003 	.word	0xe1a02003
    f550:	e59f10bc 	.word	0xe59f10bc
    f554:	e3a00002 	.word	0xe3a00002
    f558:	e1a03002 	.word	0xe1a03002
    f55c:	e1a03083 	.word	0xe1a03083
    f560:	e0833002 	.word	0xe0833002
    f564:	e0833001 	.word	0xe0833001
    f568:	e0833000 	.word	0xe0833000
    f56c:	e5d33000 	.word	0xe5d33000
    f570:	e1a0000c 	.word	0xe1a0000c
    f574:	e1a0100e 	.word	0xe1a0100e
    f578:	e1a02003 	.word	0xe1a02003
    f57c:	ebfff922 	.word	0xebfff922
    f580:	e59f2064 	.word	0xe59f2064
    f584:	e3a0300a 	.word	0xe3a0300a
    f588:	e5c23000 	.word	0xe5c23000
    f58c:	e59f206c 	.word	0xe59f206c
    f590:	e3a03000 	.word	0xe3a03000
    f594:	e5c23000 	.word	0xe5c23000
    f598:	e59f2024 	.word	0xe59f2024
    f59c:	e3a03005 	.word	0xe3a03005
    f5a0:	e5c23000 	.word	0xe5c23000
    f5a4:	e24bd00c 	.word	0xe24bd00c
    f5a8:	e89d6800 	.word	0xe89d6800
    f5ac:	e12fff1e 	.word	0xe12fff1e
    f5b0:	00012679 	.word	0x00012679
    f5b4:	00012671 	.word	0x00012671
    f5b8:	40001e60 	.word	0x40001e60
    f5bc:	cccccccd 	.word	0xcccccccd
    f5c0:	4000077a 	.word	0x4000077a
    f5c4:	40001e85 	.word	0x40001e85
    f5c8:	40002784 	.word	0x40002784
    f5cc:	40001e83 	.word	0x40001e83
    f5d0:	000125a8 	.word	0x000125a8
    f5d4:	40000778 	.word	0x40000778
    f5d8:	40001e6e 	.word	0x40001e6e
    f5dc:	40002780 	.word	0x40002780
    f5e0:	000125b2 	.word	0x000125b2
    f5e4:	40000776 	.word	0x40000776
    f5e8:	40001e6c 	.word	0x40001e6c
    f5ec:	40001e84 	.word	0x40001e84
    f5f0:	40001e70 	.word	0x40001e70
    f5f4:	4000277c 	.word	0x4000277c
    f5f8:	0001265d 	.word	0x0001265d
    f5fc:	00012649 	.word	0x00012649
    f600:	40001e68 	.word	0x40001e68
    f604:	40001e6b 	.word	0x40001e6b
    f608:	00012643 	.word	0x00012643
    f60c:	40001e69 	.word	0x40001e69
    f610:	40001e6a 	.word	0x40001e6a
    f614:	0001262b 	.word	0x0001262b
    f618:	000125b7 	.word	0x000125b7
    f61c:	000125df 	.word	0x000125df
    f620:	00012603 	.word	0x00012603

0000f624 <cos>:
    f624:	b570      	push	{r4, r5, r6, lr}
    f626:	4a28      	ldr	r2, [pc, #160]	; (f6c8 <cos+0xa4>)
    f628:	4b28      	ldr	r3, [pc, #160]	; (f6cc <cos+0xa8>)
    f62a:	4002      	ands	r2, r0
    f62c:	b085      	sub	sp, #20
    f62e:	1c05      	adds	r5, r0, #0
    f630:	1c0e      	adds	r6, r1, #0
    f632:	429a      	cmp	r2, r3
    f634:	dd23      	ble.n	f67e <cos+0x5a>
    f636:	4b26      	ldr	r3, [pc, #152]	; (f6d0 <cos+0xac>)
    f638:	429a      	cmp	r2, r3
    f63a:	dd0b      	ble.n	f654 <cos+0x30>
    f63c:	1c33      	adds	r3, r6, #0
    f63e:	1c2a      	adds	r2, r5, #0
    f640:	f002 ff92 	bl	12568 <____subdf3_from_thumb>
    f644:	1c03      	adds	r3, r0, #0
    f646:	1c0c      	adds	r4, r1, #0
    f648:	1c18      	adds	r0, r3, #0
    f64a:	1c21      	adds	r1, r4, #0
    f64c:	b005      	add	sp, #20
    f64e:	bc70      	pop	{r4, r5, r6}
    f650:	bc04      	pop	{r2}
    f652:	4710      	bx	r2
    f654:	aa01      	add	r2, sp, #4
    f656:	f000 fb01 	bl	fc5c <__ieee754_rem_pio2>
    f65a:	2303      	movs	r3, #3
    f65c:	1c04      	adds	r4, r0, #0
    f65e:	401c      	ands	r4, r3
    f660:	2c01      	cmp	r4, #1
    f662:	d013      	beq.n	f68c <cos+0x68>
    f664:	2c02      	cmp	r4, #2
    f666:	d028      	beq.n	f6ba <cos+0x96>
    f668:	2c00      	cmp	r4, #0
    f66a:	d11b      	bne.n	f6a4 <cos+0x80>
    f66c:	9a03      	ldr	r2, [sp, #12]
    f66e:	9b04      	ldr	r3, [sp, #16]
    f670:	9801      	ldr	r0, [sp, #4]
    f672:	9902      	ldr	r1, [sp, #8]
    f674:	f000 ff82 	bl	1057c <__kernel_cos>
    f678:	1c03      	adds	r3, r0, #0
    f67a:	1c0c      	adds	r4, r1, #0
    f67c:	e7e4      	b.n	f648 <cos+0x24>
    f67e:	4a15      	ldr	r2, [pc, #84]	; (f6d4 <cos+0xb0>)
    f680:	4b15      	ldr	r3, [pc, #84]	; (f6d8 <cos+0xb4>)
    f682:	f000 ff7b 	bl	1057c <__kernel_cos>
    f686:	1c03      	adds	r3, r0, #0
    f688:	1c0c      	adds	r4, r1, #0
    f68a:	e7dd      	b.n	f648 <cos+0x24>
    f68c:	9801      	ldr	r0, [sp, #4]
    f68e:	9902      	ldr	r1, [sp, #8]
    f690:	9a03      	ldr	r2, [sp, #12]
    f692:	9b04      	ldr	r3, [sp, #16]
    f694:	9400      	str	r4, [sp, #0]
    f696:	f001 fd05 	bl	110a4 <__kernel_sin>
    f69a:	2280      	movs	r2, #128	; 0x80
    f69c:	0612      	lsls	r2, r2, #24
    f69e:	1883      	adds	r3, r0, r2
    f6a0:	1c0c      	adds	r4, r1, #0
    f6a2:	e7d1      	b.n	f648 <cos+0x24>
    f6a4:	9a03      	ldr	r2, [sp, #12]
    f6a6:	9b04      	ldr	r3, [sp, #16]
    f6a8:	2401      	movs	r4, #1
    f6aa:	9801      	ldr	r0, [sp, #4]
    f6ac:	9902      	ldr	r1, [sp, #8]
    f6ae:	9400      	str	r4, [sp, #0]
    f6b0:	f001 fcf8 	bl	110a4 <__kernel_sin>
    f6b4:	1c03      	adds	r3, r0, #0
    f6b6:	1c0c      	adds	r4, r1, #0
    f6b8:	e7c6      	b.n	f648 <cos+0x24>
    f6ba:	9801      	ldr	r0, [sp, #4]
    f6bc:	9902      	ldr	r1, [sp, #8]
    f6be:	9a03      	ldr	r2, [sp, #12]
    f6c0:	9b04      	ldr	r3, [sp, #16]
    f6c2:	f000 ff5b 	bl	1057c <__kernel_cos>
    f6c6:	e7e8      	b.n	f69a <cos+0x76>
    f6c8:	7fffffff 	.word	0x7fffffff
    f6cc:	3fe921fb 	.word	0x3fe921fb
    f6d0:	7fefffff 	.word	0x7fefffff
	...

0000f6dc <sin>:
    f6dc:	b570      	push	{r4, r5, r6, lr}
    f6de:	4a29      	ldr	r2, [pc, #164]	; (f784 <sin+0xa8>)
    f6e0:	4b29      	ldr	r3, [pc, #164]	; (f788 <sin+0xac>)
    f6e2:	4002      	ands	r2, r0
    f6e4:	b085      	sub	sp, #20
    f6e6:	1c05      	adds	r5, r0, #0
    f6e8:	1c0e      	adds	r6, r1, #0
    f6ea:	429a      	cmp	r2, r3
    f6ec:	dd24      	ble.n	f738 <sin+0x5c>
    f6ee:	4b27      	ldr	r3, [pc, #156]	; (f78c <sin+0xb0>)
    f6f0:	429a      	cmp	r2, r3
    f6f2:	dd0b      	ble.n	f70c <sin+0x30>
    f6f4:	1c33      	adds	r3, r6, #0
    f6f6:	1c2a      	adds	r2, r5, #0
    f6f8:	f002 ff36 	bl	12568 <____subdf3_from_thumb>
    f6fc:	1c03      	adds	r3, r0, #0
    f6fe:	1c0c      	adds	r4, r1, #0
    f700:	1c18      	adds	r0, r3, #0
    f702:	1c21      	adds	r1, r4, #0
    f704:	b005      	add	sp, #20
    f706:	bc70      	pop	{r4, r5, r6}
    f708:	bc04      	pop	{r2}
    f70a:	4710      	bx	r2
    f70c:	aa01      	add	r2, sp, #4
    f70e:	f000 faa5 	bl	fc5c <__ieee754_rem_pio2>
    f712:	2303      	movs	r3, #3
    f714:	4018      	ands	r0, r3
    f716:	2801      	cmp	r0, #1
    f718:	d017      	beq.n	f74a <sin+0x6e>
    f71a:	2802      	cmp	r0, #2
    f71c:	d029      	beq.n	f772 <sin+0x96>
    f71e:	2800      	cmp	r0, #0
    f720:	d11c      	bne.n	f75c <sin+0x80>
    f722:	9a03      	ldr	r2, [sp, #12]
    f724:	9b04      	ldr	r3, [sp, #16]
    f726:	2401      	movs	r4, #1
    f728:	9801      	ldr	r0, [sp, #4]
    f72a:	9902      	ldr	r1, [sp, #8]
    f72c:	9400      	str	r4, [sp, #0]
    f72e:	f001 fcb9 	bl	110a4 <__kernel_sin>
    f732:	1c03      	adds	r3, r0, #0
    f734:	1c0c      	adds	r4, r1, #0
    f736:	e7e3      	b.n	f700 <sin+0x24>
    f738:	2300      	movs	r3, #0
    f73a:	9300      	str	r3, [sp, #0]
    f73c:	4a14      	ldr	r2, [pc, #80]	; (f790 <sin+0xb4>)
    f73e:	4b15      	ldr	r3, [pc, #84]	; (f794 <sin+0xb8>)
    f740:	f001 fcb0 	bl	110a4 <__kernel_sin>
    f744:	1c03      	adds	r3, r0, #0
    f746:	1c0c      	adds	r4, r1, #0
    f748:	e7da      	b.n	f700 <sin+0x24>
    f74a:	9a03      	ldr	r2, [sp, #12]
    f74c:	9b04      	ldr	r3, [sp, #16]
    f74e:	9801      	ldr	r0, [sp, #4]
    f750:	9902      	ldr	r1, [sp, #8]
    f752:	f000 ff13 	bl	1057c <__kernel_cos>
    f756:	1c03      	adds	r3, r0, #0
    f758:	1c0c      	adds	r4, r1, #0
    f75a:	e7d1      	b.n	f700 <sin+0x24>
    f75c:	9801      	ldr	r0, [sp, #4]
    f75e:	9902      	ldr	r1, [sp, #8]
    f760:	9a03      	ldr	r2, [sp, #12]
    f762:	9b04      	ldr	r3, [sp, #16]
    f764:	f000 ff0a 	bl	1057c <__kernel_cos>
    f768:	2280      	movs	r2, #128	; 0x80
    f76a:	0612      	lsls	r2, r2, #24
    f76c:	1883      	adds	r3, r0, r2
    f76e:	1c0c      	adds	r4, r1, #0
    f770:	e7c6      	b.n	f700 <sin+0x24>
    f772:	2401      	movs	r4, #1
    f774:	9801      	ldr	r0, [sp, #4]
    f776:	9902      	ldr	r1, [sp, #8]
    f778:	9a03      	ldr	r2, [sp, #12]
    f77a:	9b04      	ldr	r3, [sp, #16]
    f77c:	9400      	str	r4, [sp, #0]
    f77e:	f001 fc91 	bl	110a4 <__kernel_sin>
    f782:	e7f1      	b.n	f768 <sin+0x8c>
    f784:	7fffffff 	.word	0x7fffffff
    f788:	3fe921fb 	.word	0x3fe921fb
    f78c:	7fefffff 	.word	0x7fefffff
	...

0000f798 <cosf>:
    f798:	b500      	push	{lr}
    f79a:	4a1d      	ldr	r2, [pc, #116]	; (f810 <cosf+0x78>)
    f79c:	4b1d      	ldr	r3, [pc, #116]	; (f814 <cosf+0x7c>)
    f79e:	4002      	ands	r2, r0
    f7a0:	b082      	sub	sp, #8
    f7a2:	1c01      	adds	r1, r0, #0
    f7a4:	429a      	cmp	r2, r3
    f7a6:	dd17      	ble.n	f7d8 <cosf+0x40>
    f7a8:	4b1b      	ldr	r3, [pc, #108]	; (f818 <cosf+0x80>)
    f7aa:	429a      	cmp	r2, r3
    f7ac:	dd04      	ble.n	f7b8 <cosf+0x20>
    f7ae:	f002 fecb 	bl	12548 <____subsf3_from_thumb>
    f7b2:	b002      	add	sp, #8
    f7b4:	bc02      	pop	{r1}
    f7b6:	4708      	bx	r1
    f7b8:	4669      	mov	r1, sp
    f7ba:	f000 fd5b 	bl	10274 <__ieee754_rem_pio2f>
    f7be:	2303      	movs	r3, #3
    f7c0:	4018      	ands	r0, r3
    f7c2:	2801      	cmp	r0, #1
    f7c4:	d00c      	beq.n	f7e0 <cosf+0x48>
    f7c6:	2802      	cmp	r0, #2
    f7c8:	d019      	beq.n	f7fe <cosf+0x66>
    f7ca:	2800      	cmp	r0, #0
    f7cc:	d111      	bne.n	f7f2 <cosf+0x5a>
    f7ce:	9800      	ldr	r0, [sp, #0]
    f7d0:	9901      	ldr	r1, [sp, #4]
    f7d2:	f001 fd27 	bl	11224 <__kernel_cosf>
    f7d6:	e7ec      	b.n	f7b2 <cosf+0x1a>
    f7d8:	4910      	ldr	r1, [pc, #64]	; (f81c <cosf+0x84>)
    f7da:	f001 fd23 	bl	11224 <__kernel_cosf>
    f7de:	e7e8      	b.n	f7b2 <cosf+0x1a>
    f7e0:	9800      	ldr	r0, [sp, #0]
    f7e2:	9901      	ldr	r1, [sp, #4]
    f7e4:	2201      	movs	r2, #1
    f7e6:	f002 f971 	bl	11acc <__kernel_sinf>
    f7ea:	2380      	movs	r3, #128	; 0x80
    f7ec:	061b      	lsls	r3, r3, #24
    f7ee:	18c0      	adds	r0, r0, r3
    f7f0:	e7df      	b.n	f7b2 <cosf+0x1a>
    f7f2:	9800      	ldr	r0, [sp, #0]
    f7f4:	9901      	ldr	r1, [sp, #4]
    f7f6:	2201      	movs	r2, #1
    f7f8:	f002 f968 	bl	11acc <__kernel_sinf>
    f7fc:	e7d9      	b.n	f7b2 <cosf+0x1a>
    f7fe:	9800      	ldr	r0, [sp, #0]
    f800:	9901      	ldr	r1, [sp, #4]
    f802:	f001 fd0f 	bl	11224 <__kernel_cosf>
    f806:	2380      	movs	r3, #128	; 0x80
    f808:	061b      	lsls	r3, r3, #24
    f80a:	18c0      	adds	r0, r0, r3
    f80c:	e7d1      	b.n	f7b2 <cosf+0x1a>
    f80e:	46c0      	nop			; (mov r8, r8)
    f810:	7fffffff 	.word	0x7fffffff
    f814:	3f490fd8 	.word	0x3f490fd8
    f818:	7f7fffff 	.word	0x7f7fffff
    f81c:	00000000 	.word	0x00000000

0000f820 <sinf>:
    f820:	b500      	push	{lr}
    f822:	4a1d      	ldr	r2, [pc, #116]	; (f898 <sinf+0x78>)
    f824:	4b1d      	ldr	r3, [pc, #116]	; (f89c <sinf+0x7c>)
    f826:	4002      	ands	r2, r0
    f828:	b082      	sub	sp, #8
    f82a:	1c01      	adds	r1, r0, #0
    f82c:	429a      	cmp	r2, r3
    f82e:	dd18      	ble.n	f862 <sinf+0x42>
    f830:	4b1b      	ldr	r3, [pc, #108]	; (f8a0 <sinf+0x80>)
    f832:	429a      	cmp	r2, r3
    f834:	dd04      	ble.n	f840 <sinf+0x20>
    f836:	f002 fe87 	bl	12548 <____subsf3_from_thumb>
    f83a:	b002      	add	sp, #8
    f83c:	bc02      	pop	{r1}
    f83e:	4708      	bx	r1
    f840:	4669      	mov	r1, sp
    f842:	f000 fd17 	bl	10274 <__ieee754_rem_pio2f>
    f846:	2303      	movs	r3, #3
    f848:	4018      	ands	r0, r3
    f84a:	2801      	cmp	r0, #1
    f84c:	d00e      	beq.n	f86c <sinf+0x4c>
    f84e:	2802      	cmp	r0, #2
    f850:	d019      	beq.n	f886 <sinf+0x66>
    f852:	2800      	cmp	r0, #0
    f854:	d10f      	bne.n	f876 <sinf+0x56>
    f856:	9800      	ldr	r0, [sp, #0]
    f858:	9901      	ldr	r1, [sp, #4]
    f85a:	2201      	movs	r2, #1
    f85c:	f002 f936 	bl	11acc <__kernel_sinf>
    f860:	e7eb      	b.n	f83a <sinf+0x1a>
    f862:	4910      	ldr	r1, [pc, #64]	; (f8a4 <sinf+0x84>)
    f864:	2200      	movs	r2, #0
    f866:	f002 f931 	bl	11acc <__kernel_sinf>
    f86a:	e7e6      	b.n	f83a <sinf+0x1a>
    f86c:	9800      	ldr	r0, [sp, #0]
    f86e:	9901      	ldr	r1, [sp, #4]
    f870:	f001 fcd8 	bl	11224 <__kernel_cosf>
    f874:	e7e1      	b.n	f83a <sinf+0x1a>
    f876:	9800      	ldr	r0, [sp, #0]
    f878:	9901      	ldr	r1, [sp, #4]
    f87a:	f001 fcd3 	bl	11224 <__kernel_cosf>
    f87e:	2380      	movs	r3, #128	; 0x80
    f880:	061b      	lsls	r3, r3, #24
    f882:	18c0      	adds	r0, r0, r3
    f884:	e7d9      	b.n	f83a <sinf+0x1a>
    f886:	9800      	ldr	r0, [sp, #0]
    f888:	9901      	ldr	r1, [sp, #4]
    f88a:	2201      	movs	r2, #1
    f88c:	f002 f91e 	bl	11acc <__kernel_sinf>
    f890:	2380      	movs	r3, #128	; 0x80
    f892:	061b      	lsls	r3, r3, #24
    f894:	18c0      	adds	r0, r0, r3
    f896:	e7d0      	b.n	f83a <sinf+0x1a>
    f898:	7fffffff 	.word	0x7fffffff
    f89c:	3f490fd8 	.word	0x3f490fd8
    f8a0:	7f7fffff 	.word	0x7f7fffff
    f8a4:	00000000 	.word	0x00000000

0000f8a8 <atan2>:
    f8a8:	b5f0      	push	{r4, r5, r6, r7, lr}
    f8aa:	4657      	mov	r7, sl
    f8ac:	4646      	mov	r6, r8
    f8ae:	b4c0      	push	{r6, r7}
    f8b0:	b08b      	sub	sp, #44	; 0x2c
    f8b2:	1c1d      	adds	r5, r3, #0
    f8b4:	1c06      	adds	r6, r0, #0
    f8b6:	1c0f      	adds	r7, r1, #0
    f8b8:	1c14      	adds	r4, r2, #0
    f8ba:	f000 f8bf 	bl	fa3c <__ieee754_atan2>
    f8be:	4b2a      	ldr	r3, [pc, #168]	; (f968 <atan2+0xc0>)
    f8c0:	681b      	ldr	r3, [r3, #0]
    f8c2:	9000      	str	r0, [sp, #0]
    f8c4:	9101      	str	r1, [sp, #4]
    f8c6:	4698      	mov	r8, r3
    f8c8:	3301      	adds	r3, #1
    f8ca:	d005      	beq.n	f8d8 <atan2+0x30>
    f8cc:	1c20      	adds	r0, r4, #0
    f8ce:	1c29      	adds	r1, r5, #0
    f8d0:	f002 fc04 	bl	120dc <isnan>
    f8d4:	2800      	cmp	r0, #0
    f8d6:	d008      	beq.n	f8ea <atan2+0x42>
    f8d8:	9800      	ldr	r0, [sp, #0]
    f8da:	9901      	ldr	r1, [sp, #4]
    f8dc:	b00b      	add	sp, #44	; 0x2c
    f8de:	bc0c      	pop	{r2, r3}
    f8e0:	4690      	mov	r8, r2
    f8e2:	469a      	mov	sl, r3
    f8e4:	bcf0      	pop	{r4, r5, r6, r7}
    f8e6:	bc04      	pop	{r2}
    f8e8:	4710      	bx	r2
    f8ea:	1c30      	adds	r0, r6, #0
    f8ec:	1c39      	adds	r1, r7, #0
    f8ee:	f002 fbf5 	bl	120dc <isnan>
    f8f2:	4682      	mov	sl, r0
    f8f4:	2800      	cmp	r0, #0
    f8f6:	d1ef      	bne.n	f8d8 <atan2+0x30>
    f8f8:	1c20      	adds	r0, r4, #0
    f8fa:	1c29      	adds	r1, r5, #0
    f8fc:	4a1b      	ldr	r2, [pc, #108]	; (f96c <atan2+0xc4>)
    f8fe:	4b1c      	ldr	r3, [pc, #112]	; (f970 <atan2+0xc8>)
    f900:	f002 fe0e 	bl	12520 <____eqdf2_from_thumb>
    f904:	2800      	cmp	r0, #0
    f906:	d1e7      	bne.n	f8d8 <atan2+0x30>
    f908:	1c30      	adds	r0, r6, #0
    f90a:	1c39      	adds	r1, r7, #0
    f90c:	4a17      	ldr	r2, [pc, #92]	; (f96c <atan2+0xc4>)
    f90e:	4b18      	ldr	r3, [pc, #96]	; (f970 <atan2+0xc8>)
    f910:	f002 fe06 	bl	12520 <____eqdf2_from_thumb>
    f914:	2800      	cmp	r0, #0
    f916:	d1df      	bne.n	f8d8 <atan2+0x30>
    f918:	2301      	movs	r3, #1
    f91a:	9302      	str	r3, [sp, #8]
    f91c:	4b15      	ldr	r3, [pc, #84]	; (f974 <atan2+0xcc>)
    f91e:	9406      	str	r4, [sp, #24]
    f920:	9507      	str	r5, [sp, #28]
    f922:	4654      	mov	r4, sl
    f924:	9303      	str	r3, [sp, #12]
    f926:	940a      	str	r4, [sp, #40]	; 0x28
    f928:	4b10      	ldr	r3, [pc, #64]	; (f96c <atan2+0xc4>)
    f92a:	4c11      	ldr	r4, [pc, #68]	; (f970 <atan2+0xc8>)
    f92c:	9308      	str	r3, [sp, #32]
    f92e:	9409      	str	r4, [sp, #36]	; 0x24
    f930:	4644      	mov	r4, r8
    f932:	9604      	str	r6, [sp, #16]
    f934:	9705      	str	r7, [sp, #20]
    f936:	2c02      	cmp	r4, #2
    f938:	d00c      	beq.n	f954 <atan2+0xac>
    f93a:	a802      	add	r0, sp, #8
    f93c:	f002 fbdc 	bl	120f8 <matherr>
    f940:	2800      	cmp	r0, #0
    f942:	d007      	beq.n	f954 <atan2+0xac>
    f944:	9b0a      	ldr	r3, [sp, #40]	; 0x28
    f946:	2b00      	cmp	r3, #0
    f948:	d109      	bne.n	f95e <atan2+0xb6>
    f94a:	9b08      	ldr	r3, [sp, #32]
    f94c:	9c09      	ldr	r4, [sp, #36]	; 0x24
    f94e:	9300      	str	r3, [sp, #0]
    f950:	9401      	str	r4, [sp, #4]
    f952:	e7c1      	b.n	f8d8 <atan2+0x30>
    f954:	f002 fd96 	bl	12484 <__errno>
    f958:	2321      	movs	r3, #33	; 0x21
    f95a:	6003      	str	r3, [r0, #0]
    f95c:	e7f2      	b.n	f944 <atan2+0x9c>
    f95e:	f002 fd91 	bl	12484 <__errno>
    f962:	9b0a      	ldr	r3, [sp, #40]	; 0x28
    f964:	6003      	str	r3, [r0, #0]
    f966:	e7f0      	b.n	f94a <atan2+0xa2>
    f968:	00012c78 	.word	0x00012c78
	...
    f974:	00012680 	.word	0x00012680

0000f978 <sqrt>:
    f978:	b5f0      	push	{r4, r5, r6, r7, lr}
    f97a:	4657      	mov	r7, sl
    f97c:	4646      	mov	r6, r8
    f97e:	b4c0      	push	{r6, r7}
    f980:	b089      	sub	sp, #36	; 0x24
    f982:	1c04      	adds	r4, r0, #0
    f984:	1c0d      	adds	r5, r1, #0
    f986:	f000 fb89 	bl	1009c <__ieee754_sqrt>
    f98a:	4b28      	ldr	r3, [pc, #160]	; (fa2c <sqrt+0xb4>)
    f98c:	681b      	ldr	r3, [r3, #0]
    f98e:	1c06      	adds	r6, r0, #0
    f990:	1c0f      	adds	r7, r1, #0
    f992:	4698      	mov	r8, r3
    f994:	3301      	adds	r3, #1
    f996:	d00e      	beq.n	f9b6 <sqrt+0x3e>
    f998:	1c20      	adds	r0, r4, #0
    f99a:	1c29      	adds	r1, r5, #0
    f99c:	f002 fb9e 	bl	120dc <isnan>
    f9a0:	4682      	mov	sl, r0
    f9a2:	2800      	cmp	r0, #0
    f9a4:	d107      	bne.n	f9b6 <sqrt+0x3e>
    f9a6:	1c20      	adds	r0, r4, #0
    f9a8:	1c29      	adds	r1, r5, #0
    f9aa:	4a21      	ldr	r2, [pc, #132]	; (fa30 <sqrt+0xb8>)
    f9ac:	4b21      	ldr	r3, [pc, #132]	; (fa34 <sqrt+0xbc>)
    f9ae:	f002 fdaf 	bl	12510 <____ltdf2_from_thumb>
    f9b2:	2800      	cmp	r0, #0
    f9b4:	db08      	blt.n	f9c8 <sqrt+0x50>
    f9b6:	1c30      	adds	r0, r6, #0
    f9b8:	1c39      	adds	r1, r7, #0
    f9ba:	b009      	add	sp, #36	; 0x24
    f9bc:	bc0c      	pop	{r2, r3}
    f9be:	4690      	mov	r8, r2
    f9c0:	469a      	mov	sl, r3
    f9c2:	bcf0      	pop	{r4, r5, r6, r7}
    f9c4:	bc04      	pop	{r2}
    f9c6:	4710      	bx	r2
    f9c8:	2301      	movs	r3, #1
    f9ca:	9300      	str	r3, [sp, #0]
    f9cc:	4b1a      	ldr	r3, [pc, #104]	; (fa38 <sqrt+0xc0>)
    f9ce:	9404      	str	r4, [sp, #16]
    f9d0:	9505      	str	r5, [sp, #20]
    f9d2:	9301      	str	r3, [sp, #4]
    f9d4:	9402      	str	r4, [sp, #8]
    f9d6:	9503      	str	r5, [sp, #12]
    f9d8:	4653      	mov	r3, sl
    f9da:	4644      	mov	r4, r8
    f9dc:	9308      	str	r3, [sp, #32]
    f9de:	2c00      	cmp	r4, #0
    f9e0:	d10e      	bne.n	fa00 <sqrt+0x88>
    f9e2:	4b13      	ldr	r3, [pc, #76]	; (fa30 <sqrt+0xb8>)
    f9e4:	4c13      	ldr	r4, [pc, #76]	; (fa34 <sqrt+0xbc>)
    f9e6:	9306      	str	r3, [sp, #24]
    f9e8:	9407      	str	r4, [sp, #28]
    f9ea:	4668      	mov	r0, sp
    f9ec:	f002 fb84 	bl	120f8 <matherr>
    f9f0:	2800      	cmp	r0, #0
    f9f2:	d010      	beq.n	fa16 <sqrt+0x9e>
    f9f4:	9b08      	ldr	r3, [sp, #32]
    f9f6:	2b00      	cmp	r3, #0
    f9f8:	d112      	bne.n	fa20 <sqrt+0xa8>
    f9fa:	9e06      	ldr	r6, [sp, #24]
    f9fc:	9f07      	ldr	r7, [sp, #28]
    f9fe:	e7da      	b.n	f9b6 <sqrt+0x3e>
    fa00:	480b      	ldr	r0, [pc, #44]	; (fa30 <sqrt+0xb8>)
    fa02:	490c      	ldr	r1, [pc, #48]	; (fa34 <sqrt+0xbc>)
    fa04:	1c02      	adds	r2, r0, #0
    fa06:	1c0b      	adds	r3, r1, #0
    fa08:	f002 fd86 	bl	12518 <____divdf3_from_thumb>
    fa0c:	4644      	mov	r4, r8
    fa0e:	9006      	str	r0, [sp, #24]
    fa10:	9107      	str	r1, [sp, #28]
    fa12:	2c02      	cmp	r4, #2
    fa14:	d1e9      	bne.n	f9ea <sqrt+0x72>
    fa16:	f002 fd35 	bl	12484 <__errno>
    fa1a:	2321      	movs	r3, #33	; 0x21
    fa1c:	6003      	str	r3, [r0, #0]
    fa1e:	e7e9      	b.n	f9f4 <sqrt+0x7c>
    fa20:	f002 fd30 	bl	12484 <__errno>
    fa24:	9b08      	ldr	r3, [sp, #32]
    fa26:	6003      	str	r3, [r0, #0]
    fa28:	e7e7      	b.n	f9fa <sqrt+0x82>
    fa2a:	46c0      	nop			; (mov r8, r8)
    fa2c:	00012c78 	.word	0x00012c78
	...
    fa38:	00012688 	.word	0x00012688

0000fa3c <__ieee754_atan2>:
    fa3c:	b5f0      	push	{r4, r5, r6, r7, lr}
    fa3e:	4657      	mov	r7, sl
    fa40:	464e      	mov	r6, r9
    fa42:	4645      	mov	r5, r8
    fa44:	b4e0      	push	{r5, r6, r7}
    fa46:	1c1c      	adds	r4, r3, #0
    fa48:	1c0e      	adds	r6, r1, #0
    fa4a:	496b      	ldr	r1, [pc, #428]	; (fbf8 <__ieee754_atan2+0x1bc>)
    fa4c:	b082      	sub	sp, #8
    fa4e:	1c05      	adds	r5, r0, #0
    fa50:	1c20      	adds	r0, r4, #0
    fa52:	9200      	str	r2, [sp, #0]
    fa54:	9301      	str	r3, [sp, #4]
    fa56:	4692      	mov	sl, r2
    fa58:	4243      	negs	r3, r0
    fa5a:	400a      	ands	r2, r1
    fa5c:	4690      	mov	r8, r2
    fa5e:	4303      	orrs	r3, r0
    fa60:	4647      	mov	r7, r8
    fa62:	0fdb      	lsrs	r3, r3, #31
    fa64:	433b      	orrs	r3, r7
    fa66:	4f65      	ldr	r7, [pc, #404]	; (fbfc <__ieee754_atan2+0x1c0>)
    fa68:	468c      	mov	ip, r1
    fa6a:	42bb      	cmp	r3, r7
    fa6c:	d80a      	bhi.n	fa84 <__ieee754_atan2+0x48>
    fa6e:	4273      	negs	r3, r6
    fa70:	4662      	mov	r2, ip
    fa72:	1c29      	adds	r1, r5, #0
    fa74:	4333      	orrs	r3, r6
    fa76:	4011      	ands	r1, r2
    fa78:	0fdb      	lsrs	r3, r3, #31
    fa7a:	430b      	orrs	r3, r1
    fa7c:	46a9      	mov	r9, r5
    fa7e:	468c      	mov	ip, r1
    fa80:	42bb      	cmp	r3, r7
    fa82:	d911      	bls.n	faa8 <__ieee754_atan2+0x6c>
    fa84:	1c28      	adds	r0, r5, #0
    fa86:	1c31      	adds	r1, r6, #0
    fa88:	9a00      	ldr	r2, [sp, #0]
    fa8a:	9b01      	ldr	r3, [sp, #4]
    fa8c:	f002 fd68 	bl	12560 <____adddf3_from_thumb>
    fa90:	1c05      	adds	r5, r0, #0
    fa92:	1c0e      	adds	r6, r1, #0
    fa94:	1c28      	adds	r0, r5, #0
    fa96:	1c31      	adds	r1, r6, #0
    fa98:	b002      	add	sp, #8
    fa9a:	bc1c      	pop	{r2, r3, r4}
    fa9c:	4690      	mov	r8, r2
    fa9e:	4699      	mov	r9, r3
    faa0:	46a2      	mov	sl, r4
    faa2:	bcf0      	pop	{r4, r5, r6, r7}
    faa4:	bc04      	pop	{r2}
    faa6:	4710      	bx	r2
    faa8:	4b55      	ldr	r3, [pc, #340]	; (fc00 <__ieee754_atan2+0x1c4>)
    faaa:	4453      	add	r3, sl
    faac:	4303      	orrs	r3, r0
    faae:	d012      	beq.n	fad6 <__ieee754_atan2+0x9a>
    fab0:	4651      	mov	r1, sl
    fab2:	178a      	asrs	r2, r1, #30
    fab4:	0feb      	lsrs	r3, r5, #31
    fab6:	2102      	movs	r1, #2
    fab8:	400a      	ands	r2, r1
    faba:	1c1f      	adds	r7, r3, #0
    fabc:	4317      	orrs	r7, r2
    fabe:	4662      	mov	r2, ip
    fac0:	4332      	orrs	r2, r6
    fac2:	d111      	bne.n	fae8 <__ieee754_atan2+0xac>
    fac4:	2f02      	cmp	r7, #2
    fac6:	d04a      	beq.n	fb5e <__ieee754_atan2+0x122>
    fac8:	2f02      	cmp	r7, #2
    faca:	dd0b      	ble.n	fae4 <__ieee754_atan2+0xa8>
    facc:	2f03      	cmp	r7, #3
    face:	d10b      	bne.n	fae8 <__ieee754_atan2+0xac>
    fad0:	4d4c      	ldr	r5, [pc, #304]	; (fc04 <__ieee754_atan2+0x1c8>)
    fad2:	4e4d      	ldr	r6, [pc, #308]	; (fc08 <__ieee754_atan2+0x1cc>)
    fad4:	e7de      	b.n	fa94 <__ieee754_atan2+0x58>
    fad6:	1c28      	adds	r0, r5, #0
    fad8:	1c31      	adds	r1, r6, #0
    fada:	f002 f87d 	bl	11bd8 <atan>
    fade:	1c05      	adds	r5, r0, #0
    fae0:	1c0e      	adds	r6, r1, #0
    fae2:	e7d7      	b.n	fa94 <__ieee754_atan2+0x58>
    fae4:	2f00      	cmp	r7, #0
    fae6:	dad5      	bge.n	fa94 <__ieee754_atan2+0x58>
    fae8:	4643      	mov	r3, r8
    faea:	4303      	orrs	r3, r0
    faec:	d105      	bne.n	fafa <__ieee754_atan2+0xbe>
    faee:	464f      	mov	r7, r9
    faf0:	2f00      	cmp	r7, #0
    faf2:	db26      	blt.n	fb42 <__ieee754_atan2+0x106>
    faf4:	4d45      	ldr	r5, [pc, #276]	; (fc0c <__ieee754_atan2+0x1d0>)
    faf6:	4e46      	ldr	r6, [pc, #280]	; (fc10 <__ieee754_atan2+0x1d4>)
    faf8:	e7cc      	b.n	fa94 <__ieee754_atan2+0x58>
    fafa:	4b40      	ldr	r3, [pc, #256]	; (fbfc <__ieee754_atan2+0x1c0>)
    fafc:	4598      	cmp	r8, r3
    fafe:	d023      	beq.n	fb48 <__ieee754_atan2+0x10c>
    fb00:	4b3e      	ldr	r3, [pc, #248]	; (fbfc <__ieee754_atan2+0x1c0>)
    fb02:	459c      	cmp	ip, r3
    fb04:	d01a      	beq.n	fb3c <__ieee754_atan2+0x100>
    fb06:	4661      	mov	r1, ip
    fb08:	4642      	mov	r2, r8
    fb0a:	1a8b      	subs	r3, r1, r2
    fb0c:	151b      	asrs	r3, r3, #20
    fb0e:	2b3c      	cmp	r3, #60	; 0x3c
    fb10:	dd2e      	ble.n	fb70 <__ieee754_atan2+0x134>
    fb12:	4b3e      	ldr	r3, [pc, #248]	; (fc0c <__ieee754_atan2+0x1d0>)
    fb14:	4c3e      	ldr	r4, [pc, #248]	; (fc10 <__ieee754_atan2+0x1d4>)
    fb16:	2f01      	cmp	r7, #1
    fb18:	d024      	beq.n	fb64 <__ieee754_atan2+0x128>
    fb1a:	2f02      	cmp	r7, #2
    fb1c:	d038      	beq.n	fb90 <__ieee754_atan2+0x154>
    fb1e:	2f00      	cmp	r7, #0
    fb20:	d023      	beq.n	fb6a <__ieee754_atan2+0x12e>
    fb22:	1c18      	adds	r0, r3, #0
    fb24:	1c21      	adds	r1, r4, #0
    fb26:	4a3b      	ldr	r2, [pc, #236]	; (fc14 <__ieee754_atan2+0x1d8>)
    fb28:	4b3b      	ldr	r3, [pc, #236]	; (fc18 <__ieee754_atan2+0x1dc>)
    fb2a:	f002 fd1d 	bl	12568 <____subdf3_from_thumb>
    fb2e:	4a3b      	ldr	r2, [pc, #236]	; (fc1c <__ieee754_atan2+0x1e0>)
    fb30:	4b3b      	ldr	r3, [pc, #236]	; (fc20 <__ieee754_atan2+0x1e4>)
    fb32:	f002 fd19 	bl	12568 <____subdf3_from_thumb>
    fb36:	1c05      	adds	r5, r0, #0
    fb38:	1c0e      	adds	r6, r1, #0
    fb3a:	e7ab      	b.n	fa94 <__ieee754_atan2+0x58>
    fb3c:	4648      	mov	r0, r9
    fb3e:	2800      	cmp	r0, #0
    fb40:	dad8      	bge.n	faf4 <__ieee754_atan2+0xb8>
    fb42:	4d38      	ldr	r5, [pc, #224]	; (fc24 <__ieee754_atan2+0x1e8>)
    fb44:	4e38      	ldr	r6, [pc, #224]	; (fc28 <__ieee754_atan2+0x1ec>)
    fb46:	e7a5      	b.n	fa94 <__ieee754_atan2+0x58>
    fb48:	45c4      	cmp	ip, r8
    fb4a:	d035      	beq.n	fbb8 <__ieee754_atan2+0x17c>
    fb4c:	2f01      	cmp	r7, #1
    fb4e:	d03e      	beq.n	fbce <__ieee754_atan2+0x192>
    fb50:	2f01      	cmp	r7, #1
    fb52:	dd3f      	ble.n	fbd4 <__ieee754_atan2+0x198>
    fb54:	2f02      	cmp	r7, #2
    fb56:	d002      	beq.n	fb5e <__ieee754_atan2+0x122>
    fb58:	2f03      	cmp	r7, #3
    fb5a:	d1d1      	bne.n	fb00 <__ieee754_atan2+0xc4>
    fb5c:	e7b8      	b.n	fad0 <__ieee754_atan2+0x94>
    fb5e:	4d2f      	ldr	r5, [pc, #188]	; (fc1c <__ieee754_atan2+0x1e0>)
    fb60:	4e2f      	ldr	r6, [pc, #188]	; (fc20 <__ieee754_atan2+0x1e4>)
    fb62:	e797      	b.n	fa94 <__ieee754_atan2+0x58>
    fb64:	2780      	movs	r7, #128	; 0x80
    fb66:	063f      	lsls	r7, r7, #24
    fb68:	19db      	adds	r3, r3, r7
    fb6a:	1c1d      	adds	r5, r3, #0
    fb6c:	1c26      	adds	r6, r4, #0
    fb6e:	e791      	b.n	fa94 <__ieee754_atan2+0x58>
    fb70:	4650      	mov	r0, sl
    fb72:	2800      	cmp	r0, #0
    fb74:	db1b      	blt.n	fbae <__ieee754_atan2+0x172>
    fb76:	9a00      	ldr	r2, [sp, #0]
    fb78:	9b01      	ldr	r3, [sp, #4]
    fb7a:	1c28      	adds	r0, r5, #0
    fb7c:	1c31      	adds	r1, r6, #0
    fb7e:	f002 fccb 	bl	12518 <____divdf3_from_thumb>
    fb82:	f002 f9e9 	bl	11f58 <fabs>
    fb86:	f002 f827 	bl	11bd8 <atan>
    fb8a:	1c03      	adds	r3, r0, #0
    fb8c:	1c0c      	adds	r4, r1, #0
    fb8e:	e7c2      	b.n	fb16 <__ieee754_atan2+0xda>
    fb90:	1c18      	adds	r0, r3, #0
    fb92:	1c21      	adds	r1, r4, #0
    fb94:	4a1f      	ldr	r2, [pc, #124]	; (fc14 <__ieee754_atan2+0x1d8>)
    fb96:	4b20      	ldr	r3, [pc, #128]	; (fc18 <__ieee754_atan2+0x1dc>)
    fb98:	f002 fce6 	bl	12568 <____subdf3_from_thumb>
    fb9c:	1c02      	adds	r2, r0, #0
    fb9e:	1c0b      	adds	r3, r1, #0
    fba0:	481e      	ldr	r0, [pc, #120]	; (fc1c <__ieee754_atan2+0x1e0>)
    fba2:	491f      	ldr	r1, [pc, #124]	; (fc20 <__ieee754_atan2+0x1e4>)
    fba4:	f002 fce0 	bl	12568 <____subdf3_from_thumb>
    fba8:	1c05      	adds	r5, r0, #0
    fbaa:	1c0e      	adds	r6, r1, #0
    fbac:	e772      	b.n	fa94 <__ieee754_atan2+0x58>
    fbae:	333c      	adds	r3, #60	; 0x3c
    fbb0:	dae1      	bge.n	fb76 <__ieee754_atan2+0x13a>
    fbb2:	4b1e      	ldr	r3, [pc, #120]	; (fc2c <__ieee754_atan2+0x1f0>)
    fbb4:	4c1e      	ldr	r4, [pc, #120]	; (fc30 <__ieee754_atan2+0x1f4>)
    fbb6:	e7ae      	b.n	fb16 <__ieee754_atan2+0xda>
    fbb8:	2f01      	cmp	r7, #1
    fbba:	d010      	beq.n	fbde <__ieee754_atan2+0x1a2>
    fbbc:	2f01      	cmp	r7, #1
    fbbe:	dd14      	ble.n	fbea <__ieee754_atan2+0x1ae>
    fbc0:	2f02      	cmp	r7, #2
    fbc2:	d00f      	beq.n	fbe4 <__ieee754_atan2+0x1a8>
    fbc4:	2f03      	cmp	r7, #3
    fbc6:	d19b      	bne.n	fb00 <__ieee754_atan2+0xc4>
    fbc8:	4d1a      	ldr	r5, [pc, #104]	; (fc34 <__ieee754_atan2+0x1f8>)
    fbca:	4e1b      	ldr	r6, [pc, #108]	; (fc38 <__ieee754_atan2+0x1fc>)
    fbcc:	e762      	b.n	fa94 <__ieee754_atan2+0x58>
    fbce:	4d1b      	ldr	r5, [pc, #108]	; (fc3c <__ieee754_atan2+0x200>)
    fbd0:	4e1b      	ldr	r6, [pc, #108]	; (fc40 <__ieee754_atan2+0x204>)
    fbd2:	e75f      	b.n	fa94 <__ieee754_atan2+0x58>
    fbd4:	2f00      	cmp	r7, #0
    fbd6:	d193      	bne.n	fb00 <__ieee754_atan2+0xc4>
    fbd8:	4d14      	ldr	r5, [pc, #80]	; (fc2c <__ieee754_atan2+0x1f0>)
    fbda:	4e15      	ldr	r6, [pc, #84]	; (fc30 <__ieee754_atan2+0x1f4>)
    fbdc:	e75a      	b.n	fa94 <__ieee754_atan2+0x58>
    fbde:	4d19      	ldr	r5, [pc, #100]	; (fc44 <__ieee754_atan2+0x208>)
    fbe0:	4e19      	ldr	r6, [pc, #100]	; (fc48 <__ieee754_atan2+0x20c>)
    fbe2:	e757      	b.n	fa94 <__ieee754_atan2+0x58>
    fbe4:	4d19      	ldr	r5, [pc, #100]	; (fc4c <__ieee754_atan2+0x210>)
    fbe6:	4e1a      	ldr	r6, [pc, #104]	; (fc50 <__ieee754_atan2+0x214>)
    fbe8:	e754      	b.n	fa94 <__ieee754_atan2+0x58>
    fbea:	2f00      	cmp	r7, #0
    fbec:	d000      	beq.n	fbf0 <__ieee754_atan2+0x1b4>
    fbee:	e787      	b.n	fb00 <__ieee754_atan2+0xc4>
    fbf0:	4d18      	ldr	r5, [pc, #96]	; (fc54 <__ieee754_atan2+0x218>)
    fbf2:	4e19      	ldr	r6, [pc, #100]	; (fc58 <__ieee754_atan2+0x21c>)
    fbf4:	e74e      	b.n	fa94 <__ieee754_atan2+0x58>
    fbf6:	46c0      	nop			; (mov r8, r8)
    fbf8:	7fffffff 	.word	0x7fffffff
    fbfc:	7ff00000 	.word	0x7ff00000
    fc00:	c0100000 	.word	0xc0100000
    fc04:	c00921fb 	.word	0xc00921fb
    fc08:	54442d18 	.word	0x54442d18
    fc0c:	3ff921fb 	.word	0x3ff921fb
    fc10:	54442d18 	.word	0x54442d18
    fc14:	3ca1a626 	.word	0x3ca1a626
    fc18:	33145c07 	.word	0x33145c07
    fc1c:	400921fb 	.word	0x400921fb
    fc20:	54442d18 	.word	0x54442d18
    fc24:	bff921fb 	.word	0xbff921fb
    fc28:	54442d18 	.word	0x54442d18
	...
    fc34:	c002d97c 	.word	0xc002d97c
    fc38:	7f3321d2 	.word	0x7f3321d2
    fc3c:	80000000 	.word	0x80000000
    fc40:	00000000 	.word	0x00000000
    fc44:	bfe921fb 	.word	0xbfe921fb
    fc48:	54442d18 	.word	0x54442d18
    fc4c:	4002d97c 	.word	0x4002d97c
    fc50:	7f3321d2 	.word	0x7f3321d2
    fc54:	3fe921fb 	.word	0x3fe921fb
    fc58:	54442d18 	.word	0x54442d18

0000fc5c <__ieee754_rem_pio2>:
    fc5c:	b5f0      	push	{r4, r5, r6, r7, lr}
    fc5e:	465f      	mov	r7, fp
    fc60:	4656      	mov	r6, sl
    fc62:	464d      	mov	r5, r9
    fc64:	4644      	mov	r4, r8
    fc66:	b4f0      	push	{r4, r5, r6, r7}
    fc68:	4bd2      	ldr	r3, [pc, #840]	; (ffb4 <__ieee754_rem_pio2+0x358>)
    fc6a:	1c07      	adds	r7, r0, #0
    fc6c:	401f      	ands	r7, r3
    fc6e:	4bd2      	ldr	r3, [pc, #840]	; (ffb8 <__ieee754_rem_pio2+0x35c>)
    fc70:	b08e      	sub	sp, #56	; 0x38
    fc72:	1c05      	adds	r5, r0, #0
    fc74:	1c0e      	adds	r6, r1, #0
    fc76:	4690      	mov	r8, r2
    fc78:	4681      	mov	r9, r0
    fc7a:	429f      	cmp	r7, r3
    fc7c:	dc10      	bgt.n	fca0 <__ieee754_rem_pio2+0x44>
    fc7e:	4bcf      	ldr	r3, [pc, #828]	; (ffbc <__ieee754_rem_pio2+0x360>)
    fc80:	4ccf      	ldr	r4, [pc, #828]	; (ffc0 <__ieee754_rem_pio2+0x364>)
    fc82:	6015      	str	r5, [r2, #0]
    fc84:	6056      	str	r6, [r2, #4]
    fc86:	6093      	str	r3, [r2, #8]
    fc88:	60d4      	str	r4, [r2, #12]
    fc8a:	469a      	mov	sl, r3
    fc8c:	4650      	mov	r0, sl
    fc8e:	b00e      	add	sp, #56	; 0x38
    fc90:	bc3c      	pop	{r2, r3, r4, r5}
    fc92:	4690      	mov	r8, r2
    fc94:	4699      	mov	r9, r3
    fc96:	46a2      	mov	sl, r4
    fc98:	46ab      	mov	fp, r5
    fc9a:	bcf0      	pop	{r4, r5, r6, r7}
    fc9c:	bc02      	pop	{r1}
    fc9e:	4708      	bx	r1
    fca0:	4bc8      	ldr	r3, [pc, #800]	; (ffc4 <__ieee754_rem_pio2+0x368>)
    fca2:	429f      	cmp	r7, r3
    fca4:	dd13      	ble.n	fcce <__ieee754_rem_pio2+0x72>
    fca6:	4bc8      	ldr	r3, [pc, #800]	; (ffc8 <__ieee754_rem_pio2+0x36c>)
    fca8:	429f      	cmp	r7, r3
    fcaa:	dd34      	ble.n	fd16 <__ieee754_rem_pio2+0xba>
    fcac:	4bc7      	ldr	r3, [pc, #796]	; (ffcc <__ieee754_rem_pio2+0x370>)
    fcae:	429f      	cmp	r7, r3
    fcb0:	dc00      	bgt.n	fcb4 <__ieee754_rem_pio2+0x58>
    fcb2:	e0eb      	b.n	fe8c <__ieee754_rem_pio2+0x230>
    fcb4:	1c2a      	adds	r2, r5, #0
    fcb6:	1c33      	adds	r3, r6, #0
    fcb8:	f002 fc56 	bl	12568 <____subdf3_from_thumb>
    fcbc:	2400      	movs	r4, #0
    fcbe:	4642      	mov	r2, r8
    fcc0:	4643      	mov	r3, r8
    fcc2:	46a2      	mov	sl, r4
    fcc4:	6090      	str	r0, [r2, #8]
    fcc6:	60d1      	str	r1, [r2, #12]
    fcc8:	6018      	str	r0, [r3, #0]
    fcca:	6059      	str	r1, [r3, #4]
    fccc:	e7de      	b.n	fc8c <__ieee754_rem_pio2+0x30>
    fcce:	2800      	cmp	r0, #0
    fcd0:	dc00      	bgt.n	fcd4 <__ieee754_rem_pio2+0x78>
    fcd2:	e0b9      	b.n	fe48 <__ieee754_rem_pio2+0x1ec>
    fcd4:	4abe      	ldr	r2, [pc, #760]	; (ffd0 <__ieee754_rem_pio2+0x374>)
    fcd6:	4bbf      	ldr	r3, [pc, #764]	; (ffd4 <__ieee754_rem_pio2+0x378>)
    fcd8:	f002 fc46 	bl	12568 <____subdf3_from_thumb>
    fcdc:	4bbe      	ldr	r3, [pc, #760]	; (ffd8 <__ieee754_rem_pio2+0x37c>)
    fcde:	1c04      	adds	r4, r0, #0
    fce0:	1c0d      	adds	r5, r1, #0
    fce2:	429f      	cmp	r7, r3
    fce4:	d100      	bne.n	fce8 <__ieee754_rem_pio2+0x8c>
    fce6:	e127      	b.n	ff38 <__ieee754_rem_pio2+0x2dc>
    fce8:	4abc      	ldr	r2, [pc, #752]	; (ffdc <__ieee754_rem_pio2+0x380>)
    fcea:	4bbd      	ldr	r3, [pc, #756]	; (ffe0 <__ieee754_rem_pio2+0x384>)
    fcec:	f002 fc3c 	bl	12568 <____subdf3_from_thumb>
    fcf0:	1c02      	adds	r2, r0, #0
    fcf2:	1c0b      	adds	r3, r1, #0
    fcf4:	4641      	mov	r1, r8
    fcf6:	600a      	str	r2, [r1, #0]
    fcf8:	604b      	str	r3, [r1, #4]
    fcfa:	1c20      	adds	r0, r4, #0
    fcfc:	1c29      	adds	r1, r5, #0
    fcfe:	f002 fc33 	bl	12568 <____subdf3_from_thumb>
    fd02:	4ab6      	ldr	r2, [pc, #728]	; (ffdc <__ieee754_rem_pio2+0x380>)
    fd04:	4bb6      	ldr	r3, [pc, #728]	; (ffe0 <__ieee754_rem_pio2+0x384>)
    fd06:	f002 fc2f 	bl	12568 <____subdf3_from_thumb>
    fd0a:	2301      	movs	r3, #1
    fd0c:	4642      	mov	r2, r8
    fd0e:	469a      	mov	sl, r3
    fd10:	6090      	str	r0, [r2, #8]
    fd12:	60d1      	str	r1, [r2, #12]
    fd14:	e7ba      	b.n	fc8c <__ieee754_rem_pio2+0x30>
    fd16:	f002 f91f 	bl	11f58 <fabs>
    fd1a:	4ab2      	ldr	r2, [pc, #712]	; (ffe4 <__ieee754_rem_pio2+0x388>)
    fd1c:	4bb2      	ldr	r3, [pc, #712]	; (ffe8 <__ieee754_rem_pio2+0x38c>)
    fd1e:	1c0d      	adds	r5, r1, #0
    fd20:	1c04      	adds	r4, r0, #0
    fd22:	f002 fc15 	bl	12550 <____muldf3_from_thumb>
    fd26:	4ab1      	ldr	r2, [pc, #708]	; (ffec <__ieee754_rem_pio2+0x390>)
    fd28:	4bb1      	ldr	r3, [pc, #708]	; (fff0 <__ieee754_rem_pio2+0x394>)
    fd2a:	f002 fc19 	bl	12560 <____adddf3_from_thumb>
    fd2e:	f002 fc1f 	bl	12570 <____fixdfsi_from_thumb>
    fd32:	4682      	mov	sl, r0
    fd34:	f002 fbe8 	bl	12508 <____floatsidf_from_thumb>
    fd38:	4aae      	ldr	r2, [pc, #696]	; (fff4 <__ieee754_rem_pio2+0x398>)
    fd3a:	4baf      	ldr	r3, [pc, #700]	; (fff8 <__ieee754_rem_pio2+0x39c>)
    fd3c:	9004      	str	r0, [sp, #16]
    fd3e:	9105      	str	r1, [sp, #20]
    fd40:	f002 fc06 	bl	12550 <____muldf3_from_thumb>
    fd44:	1c02      	adds	r2, r0, #0
    fd46:	1c0b      	adds	r3, r1, #0
    fd48:	1c20      	adds	r0, r4, #0
    fd4a:	1c29      	adds	r1, r5, #0
    fd4c:	f002 fc08 	bl	12560 <____adddf3_from_thumb>
    fd50:	4aa2      	ldr	r2, [pc, #648]	; (ffdc <__ieee754_rem_pio2+0x380>)
    fd52:	4ba3      	ldr	r3, [pc, #652]	; (ffe0 <__ieee754_rem_pio2+0x384>)
    fd54:	9002      	str	r0, [sp, #8]
    fd56:	9103      	str	r1, [sp, #12]
    fd58:	9804      	ldr	r0, [sp, #16]
    fd5a:	9905      	ldr	r1, [sp, #20]
    fd5c:	f002 fbf8 	bl	12550 <____muldf3_from_thumb>
    fd60:	1c0e      	adds	r6, r1, #0
    fd62:	4651      	mov	r1, sl
    fd64:	1c05      	adds	r5, r0, #0
    fd66:	291f      	cmp	r1, #31
    fd68:	dc00      	bgt.n	fd6c <__ieee754_rem_pio2+0x110>
    fd6a:	e0fb      	b.n	ff64 <__ieee754_rem_pio2+0x308>
    fd6c:	1c33      	adds	r3, r6, #0
    fd6e:	9802      	ldr	r0, [sp, #8]
    fd70:	9903      	ldr	r1, [sp, #12]
    fd72:	1c2a      	adds	r2, r5, #0
    fd74:	f002 fbf8 	bl	12568 <____subdf3_from_thumb>
    fd78:	4ca0      	ldr	r4, [pc, #640]	; (fffc <__ieee754_rem_pio2+0x3a0>)
    fd7a:	4643      	mov	r3, r8
    fd7c:	6018      	str	r0, [r3, #0]
    fd7e:	6059      	str	r1, [r3, #4]
    fd80:	0d03      	lsrs	r3, r0, #20
    fd82:	153f      	asrs	r7, r7, #20
    fd84:	4023      	ands	r3, r4
    fd86:	1afb      	subs	r3, r7, r3
    fd88:	46bb      	mov	fp, r7
    fd8a:	2b10      	cmp	r3, #16
    fd8c:	dd3e      	ble.n	fe0c <__ieee754_rem_pio2+0x1b0>
    fd8e:	4a9c      	ldr	r2, [pc, #624]	; (10000 <__ieee754_rem_pio2+0x3a4>)
    fd90:	4b9c      	ldr	r3, [pc, #624]	; (10004 <__ieee754_rem_pio2+0x3a8>)
    fd92:	9804      	ldr	r0, [sp, #16]
    fd94:	9905      	ldr	r1, [sp, #20]
    fd96:	f002 fbdb 	bl	12550 <____muldf3_from_thumb>
    fd9a:	1c06      	adds	r6, r0, #0
    fd9c:	1c0f      	adds	r7, r1, #0
    fd9e:	1c32      	adds	r2, r6, #0
    fda0:	1c3b      	adds	r3, r7, #0
    fda2:	9802      	ldr	r0, [sp, #8]
    fda4:	9903      	ldr	r1, [sp, #12]
    fda6:	f002 fbdf 	bl	12568 <____subdf3_from_thumb>
    fdaa:	4a97      	ldr	r2, [pc, #604]	; (10008 <__ieee754_rem_pio2+0x3ac>)
    fdac:	4b97      	ldr	r3, [pc, #604]	; (1000c <__ieee754_rem_pio2+0x3b0>)
    fdae:	9006      	str	r0, [sp, #24]
    fdb0:	9107      	str	r1, [sp, #28]
    fdb2:	9804      	ldr	r0, [sp, #16]
    fdb4:	9905      	ldr	r1, [sp, #20]
    fdb6:	f002 fbcb 	bl	12550 <____muldf3_from_thumb>
    fdba:	9a06      	ldr	r2, [sp, #24]
    fdbc:	9b07      	ldr	r3, [sp, #28]
    fdbe:	1c04      	adds	r4, r0, #0
    fdc0:	1c0d      	adds	r5, r1, #0
    fdc2:	9802      	ldr	r0, [sp, #8]
    fdc4:	9903      	ldr	r1, [sp, #12]
    fdc6:	f002 fbcf 	bl	12568 <____subdf3_from_thumb>
    fdca:	1c32      	adds	r2, r6, #0
    fdcc:	1c3b      	adds	r3, r7, #0
    fdce:	f002 fbcb 	bl	12568 <____subdf3_from_thumb>
    fdd2:	1c02      	adds	r2, r0, #0
    fdd4:	1c0b      	adds	r3, r1, #0
    fdd6:	1c20      	adds	r0, r4, #0
    fdd8:	1c29      	adds	r1, r5, #0
    fdda:	f002 fbc5 	bl	12568 <____subdf3_from_thumb>
    fdde:	1c05      	adds	r5, r0, #0
    fde0:	1c0e      	adds	r6, r1, #0
    fde2:	1c2a      	adds	r2, r5, #0
    fde4:	1c33      	adds	r3, r6, #0
    fde6:	9806      	ldr	r0, [sp, #24]
    fde8:	9907      	ldr	r1, [sp, #28]
    fdea:	f002 fbbd 	bl	12568 <____subdf3_from_thumb>
    fdee:	4c83      	ldr	r4, [pc, #524]	; (fffc <__ieee754_rem_pio2+0x3a0>)
    fdf0:	4642      	mov	r2, r8
    fdf2:	0d03      	lsrs	r3, r0, #20
    fdf4:	6010      	str	r0, [r2, #0]
    fdf6:	6051      	str	r1, [r2, #4]
    fdf8:	4023      	ands	r3, r4
    fdfa:	4659      	mov	r1, fp
    fdfc:	1acb      	subs	r3, r1, r3
    fdfe:	2b31      	cmp	r3, #49	; 0x31
    fe00:	dd00      	ble.n	fe04 <__ieee754_rem_pio2+0x1a8>
    fe02:	e10f      	b.n	10024 <__ieee754_rem_pio2+0x3c8>
    fe04:	9a06      	ldr	r2, [sp, #24]
    fe06:	9b07      	ldr	r3, [sp, #28]
    fe08:	9202      	str	r2, [sp, #8]
    fe0a:	9303      	str	r3, [sp, #12]
    fe0c:	4644      	mov	r4, r8
    fe0e:	6822      	ldr	r2, [r4, #0]
    fe10:	6863      	ldr	r3, [r4, #4]
    fe12:	9802      	ldr	r0, [sp, #8]
    fe14:	9903      	ldr	r1, [sp, #12]
    fe16:	f002 fba7 	bl	12568 <____subdf3_from_thumb>
    fe1a:	1c2a      	adds	r2, r5, #0
    fe1c:	1c33      	adds	r3, r6, #0
    fe1e:	f002 fba3 	bl	12568 <____subdf3_from_thumb>
    fe22:	4642      	mov	r2, r8
    fe24:	464b      	mov	r3, r9
    fe26:	6090      	str	r0, [r2, #8]
    fe28:	60d1      	str	r1, [r2, #12]
    fe2a:	2b00      	cmp	r3, #0
    fe2c:	db00      	blt.n	fe30 <__ieee754_rem_pio2+0x1d4>
    fe2e:	e72d      	b.n	fc8c <__ieee754_rem_pio2+0x30>
    fe30:	6813      	ldr	r3, [r2, #0]
    fe32:	2480      	movs	r4, #128	; 0x80
    fe34:	0624      	lsls	r4, r4, #24
    fe36:	191b      	adds	r3, r3, r4
    fe38:	4651      	mov	r1, sl
    fe3a:	6013      	str	r3, [r2, #0]
    fe3c:	6893      	ldr	r3, [r2, #8]
    fe3e:	4249      	negs	r1, r1
    fe40:	191b      	adds	r3, r3, r4
    fe42:	468a      	mov	sl, r1
    fe44:	6093      	str	r3, [r2, #8]
    fe46:	e721      	b.n	fc8c <__ieee754_rem_pio2+0x30>
    fe48:	4a61      	ldr	r2, [pc, #388]	; (ffd0 <__ieee754_rem_pio2+0x374>)
    fe4a:	4b62      	ldr	r3, [pc, #392]	; (ffd4 <__ieee754_rem_pio2+0x378>)
    fe4c:	f002 fb88 	bl	12560 <____adddf3_from_thumb>
    fe50:	4b61      	ldr	r3, [pc, #388]	; (ffd8 <__ieee754_rem_pio2+0x37c>)
    fe52:	1c04      	adds	r4, r0, #0
    fe54:	1c0d      	adds	r5, r1, #0
    fe56:	429f      	cmp	r7, r3
    fe58:	d100      	bne.n	fe5c <__ieee754_rem_pio2+0x200>
    fe5a:	e095      	b.n	ff88 <__ieee754_rem_pio2+0x32c>
    fe5c:	4a5f      	ldr	r2, [pc, #380]	; (ffdc <__ieee754_rem_pio2+0x380>)
    fe5e:	4b60      	ldr	r3, [pc, #384]	; (ffe0 <__ieee754_rem_pio2+0x384>)
    fe60:	f002 fb7e 	bl	12560 <____adddf3_from_thumb>
    fe64:	1c02      	adds	r2, r0, #0
    fe66:	1c0b      	adds	r3, r1, #0
    fe68:	4641      	mov	r1, r8
    fe6a:	600a      	str	r2, [r1, #0]
    fe6c:	604b      	str	r3, [r1, #4]
    fe6e:	1c20      	adds	r0, r4, #0
    fe70:	1c29      	adds	r1, r5, #0
    fe72:	f002 fb79 	bl	12568 <____subdf3_from_thumb>
    fe76:	4a59      	ldr	r2, [pc, #356]	; (ffdc <__ieee754_rem_pio2+0x380>)
    fe78:	4b59      	ldr	r3, [pc, #356]	; (ffe0 <__ieee754_rem_pio2+0x384>)
    fe7a:	f002 fb71 	bl	12560 <____adddf3_from_thumb>
    fe7e:	2301      	movs	r3, #1
    fe80:	425c      	negs	r4, r3
    fe82:	4642      	mov	r2, r8
    fe84:	46a2      	mov	sl, r4
    fe86:	6090      	str	r0, [r2, #8]
    fe88:	60d1      	str	r1, [r2, #12]
    fe8a:	e6ff      	b.n	fc8c <__ieee754_rem_pio2+0x30>
    fe8c:	4960      	ldr	r1, [pc, #384]	; (10010 <__ieee754_rem_pio2+0x3b4>)
    fe8e:	153a      	asrs	r2, r7, #20
    fe90:	1889      	adds	r1, r1, r2
    fe92:	050a      	lsls	r2, r1, #20
    fe94:	1abb      	subs	r3, r7, r2
    fe96:	1c18      	adds	r0, r3, #0
    fe98:	468a      	mov	sl, r1
    fe9a:	1c31      	adds	r1, r6, #0
    fe9c:	1c1c      	adds	r4, r3, #0
    fe9e:	f002 fb67 	bl	12570 <____fixdfsi_from_thumb>
    fea2:	f002 fb31 	bl	12508 <____floatsidf_from_thumb>
    fea6:	1c02      	adds	r2, r0, #0
    fea8:	1c0b      	adds	r3, r1, #0
    feaa:	1c20      	adds	r0, r4, #0
    feac:	1c31      	adds	r1, r6, #0
    feae:	9208      	str	r2, [sp, #32]
    feb0:	9309      	str	r3, [sp, #36]	; 0x24
    feb2:	f002 fb59 	bl	12568 <____subdf3_from_thumb>
    feb6:	4a57      	ldr	r2, [pc, #348]	; (10014 <__ieee754_rem_pio2+0x3b8>)
    feb8:	4b57      	ldr	r3, [pc, #348]	; (10018 <__ieee754_rem_pio2+0x3bc>)
    feba:	f002 fb49 	bl	12550 <____muldf3_from_thumb>
    febe:	1c0d      	adds	r5, r1, #0
    fec0:	1c04      	adds	r4, r0, #0
    fec2:	f002 fb55 	bl	12570 <____fixdfsi_from_thumb>
    fec6:	f002 fb1f 	bl	12508 <____floatsidf_from_thumb>
    feca:	1c02      	adds	r2, r0, #0
    fecc:	1c0b      	adds	r3, r1, #0
    fece:	1c20      	adds	r0, r4, #0
    fed0:	1c29      	adds	r1, r5, #0
    fed2:	920a      	str	r2, [sp, #40]	; 0x28
    fed4:	930b      	str	r3, [sp, #44]	; 0x2c
    fed6:	f002 fb47 	bl	12568 <____subdf3_from_thumb>
    feda:	4a4e      	ldr	r2, [pc, #312]	; (10014 <__ieee754_rem_pio2+0x3b8>)
    fedc:	4b4e      	ldr	r3, [pc, #312]	; (10018 <__ieee754_rem_pio2+0x3bc>)
    fede:	f002 fb37 	bl	12550 <____muldf3_from_thumb>
    fee2:	2603      	movs	r6, #3
    fee4:	ad0c      	add	r5, sp, #48	; 0x30
    fee6:	900c      	str	r0, [sp, #48]	; 0x30
    fee8:	910d      	str	r1, [sp, #52]	; 0x34
    feea:	e001      	b.n	fef0 <__ieee754_rem_pio2+0x294>
    feec:	1c26      	adds	r6, r4, #0
    feee:	3d08      	subs	r5, #8
    fef0:	6828      	ldr	r0, [r5, #0]
    fef2:	6869      	ldr	r1, [r5, #4]
    fef4:	4a31      	ldr	r2, [pc, #196]	; (ffbc <__ieee754_rem_pio2+0x360>)
    fef6:	4b32      	ldr	r3, [pc, #200]	; (ffc0 <__ieee754_rem_pio2+0x364>)
    fef8:	1e74      	subs	r4, r6, #1
    fefa:	f002 fb11 	bl	12520 <____eqdf2_from_thumb>
    fefe:	2800      	cmp	r0, #0
    ff00:	d0f4      	beq.n	feec <__ieee754_rem_pio2+0x290>
    ff02:	2302      	movs	r3, #2
    ff04:	9300      	str	r3, [sp, #0]
    ff06:	4b45      	ldr	r3, [pc, #276]	; (1001c <__ieee754_rem_pio2+0x3c0>)
    ff08:	4652      	mov	r2, sl
    ff0a:	9301      	str	r3, [sp, #4]
    ff0c:	a808      	add	r0, sp, #32
    ff0e:	4641      	mov	r1, r8
    ff10:	1c33      	adds	r3, r6, #0
    ff12:	f000 fc79 	bl	10808 <__kernel_rem_pio2>
    ff16:	464a      	mov	r2, r9
    ff18:	4682      	mov	sl, r0
    ff1a:	2a00      	cmp	r2, #0
    ff1c:	db00      	blt.n	ff20 <__ieee754_rem_pio2+0x2c4>
    ff1e:	e6b5      	b.n	fc8c <__ieee754_rem_pio2+0x30>
    ff20:	4644      	mov	r4, r8
    ff22:	6823      	ldr	r3, [r4, #0]
    ff24:	2180      	movs	r1, #128	; 0x80
    ff26:	0609      	lsls	r1, r1, #24
    ff28:	185b      	adds	r3, r3, r1
    ff2a:	6023      	str	r3, [r4, #0]
    ff2c:	68a3      	ldr	r3, [r4, #8]
    ff2e:	4242      	negs	r2, r0
    ff30:	185b      	adds	r3, r3, r1
    ff32:	4692      	mov	sl, r2
    ff34:	60a3      	str	r3, [r4, #8]
    ff36:	e6a9      	b.n	fc8c <__ieee754_rem_pio2+0x30>
    ff38:	4a31      	ldr	r2, [pc, #196]	; (10000 <__ieee754_rem_pio2+0x3a4>)
    ff3a:	4b32      	ldr	r3, [pc, #200]	; (10004 <__ieee754_rem_pio2+0x3a8>)
    ff3c:	f002 fb14 	bl	12568 <____subdf3_from_thumb>
    ff40:	4a31      	ldr	r2, [pc, #196]	; (10008 <__ieee754_rem_pio2+0x3ac>)
    ff42:	4b32      	ldr	r3, [pc, #200]	; (1000c <__ieee754_rem_pio2+0x3b0>)
    ff44:	1c04      	adds	r4, r0, #0
    ff46:	1c0d      	adds	r5, r1, #0
    ff48:	f002 fb0e 	bl	12568 <____subdf3_from_thumb>
    ff4c:	1c02      	adds	r2, r0, #0
    ff4e:	1c0b      	adds	r3, r1, #0
    ff50:	4641      	mov	r1, r8
    ff52:	600a      	str	r2, [r1, #0]
    ff54:	604b      	str	r3, [r1, #4]
    ff56:	1c20      	adds	r0, r4, #0
    ff58:	1c29      	adds	r1, r5, #0
    ff5a:	f002 fb05 	bl	12568 <____subdf3_from_thumb>
    ff5e:	4a2a      	ldr	r2, [pc, #168]	; (10008 <__ieee754_rem_pio2+0x3ac>)
    ff60:	4b2a      	ldr	r3, [pc, #168]	; (1000c <__ieee754_rem_pio2+0x3b0>)
    ff62:	e6d0      	b.n	fd06 <__ieee754_rem_pio2+0xaa>
    ff64:	4b2e      	ldr	r3, [pc, #184]	; (10020 <__ieee754_rem_pio2+0x3c4>)
    ff66:	008a      	lsls	r2, r1, #2
    ff68:	18d2      	adds	r2, r2, r3
    ff6a:	3a04      	subs	r2, #4
    ff6c:	6813      	ldr	r3, [r2, #0]
    ff6e:	429f      	cmp	r7, r3
    ff70:	d100      	bne.n	ff74 <__ieee754_rem_pio2+0x318>
    ff72:	e6fb      	b.n	fd6c <__ieee754_rem_pio2+0x110>
    ff74:	1c2a      	adds	r2, r5, #0
    ff76:	9802      	ldr	r0, [sp, #8]
    ff78:	9903      	ldr	r1, [sp, #12]
    ff7a:	1c33      	adds	r3, r6, #0
    ff7c:	f002 faf4 	bl	12568 <____subdf3_from_thumb>
    ff80:	4642      	mov	r2, r8
    ff82:	6010      	str	r0, [r2, #0]
    ff84:	6051      	str	r1, [r2, #4]
    ff86:	e741      	b.n	fe0c <__ieee754_rem_pio2+0x1b0>
    ff88:	4a1d      	ldr	r2, [pc, #116]	; (10000 <__ieee754_rem_pio2+0x3a4>)
    ff8a:	4b1e      	ldr	r3, [pc, #120]	; (10004 <__ieee754_rem_pio2+0x3a8>)
    ff8c:	f002 fae8 	bl	12560 <____adddf3_from_thumb>
    ff90:	4a1d      	ldr	r2, [pc, #116]	; (10008 <__ieee754_rem_pio2+0x3ac>)
    ff92:	4b1e      	ldr	r3, [pc, #120]	; (1000c <__ieee754_rem_pio2+0x3b0>)
    ff94:	1c04      	adds	r4, r0, #0
    ff96:	1c0d      	adds	r5, r1, #0
    ff98:	f002 fae2 	bl	12560 <____adddf3_from_thumb>
    ff9c:	1c02      	adds	r2, r0, #0
    ff9e:	1c0b      	adds	r3, r1, #0
    ffa0:	4641      	mov	r1, r8
    ffa2:	600a      	str	r2, [r1, #0]
    ffa4:	604b      	str	r3, [r1, #4]
    ffa6:	1c20      	adds	r0, r4, #0
    ffa8:	1c29      	adds	r1, r5, #0
    ffaa:	f002 fadd 	bl	12568 <____subdf3_from_thumb>
    ffae:	4a16      	ldr	r2, [pc, #88]	; (10008 <__ieee754_rem_pio2+0x3ac>)
    ffb0:	4b16      	ldr	r3, [pc, #88]	; (1000c <__ieee754_rem_pio2+0x3b0>)
    ffb2:	e762      	b.n	fe7a <__ieee754_rem_pio2+0x21e>
    ffb4:	7fffffff 	.word	0x7fffffff
    ffb8:	3fe921fb 	.word	0x3fe921fb
	...
    ffc4:	4002d97b 	.word	0x4002d97b
    ffc8:	413921fb 	.word	0x413921fb
    ffcc:	7fefffff 	.word	0x7fefffff
    ffd0:	3ff921fb 	.word	0x3ff921fb
    ffd4:	54400000 	.word	0x54400000
    ffd8:	3ff921fb 	.word	0x3ff921fb
    ffdc:	3dd0b461 	.word	0x3dd0b461
    ffe0:	1a626331 	.word	0x1a626331
    ffe4:	3fe45f30 	.word	0x3fe45f30
    ffe8:	6dc9c883 	.word	0x6dc9c883
    ffec:	3fe00000 	.word	0x3fe00000
    fff0:	00000000 	.word	0x00000000
    fff4:	bff921fb 	.word	0xbff921fb
    fff8:	54400000 	.word	0x54400000
    fffc:	000007ff 	.word	0x000007ff
   10000:	3dd0b461 	.word	0x3dd0b461
   10004:	1a600000 	.word	0x1a600000
   10008:	3ba3198a 	.word	0x3ba3198a
   1000c:	2e037073 	.word	0x2e037073
   10010:	fffffbea 	.word	0xfffffbea
   10014:	41700000 	.word	0x41700000
   10018:	00000000 	.word	0x00000000
   1001c:	00012710 	.word	0x00012710
   10020:	00012690 	.word	0x00012690
   10024:	4b1a      	ldr	r3, [pc, #104]	; (10090 <__ieee754_rem_pio2+0x434>)
   10026:	4a19      	ldr	r2, [pc, #100]	; (1008c <__ieee754_rem_pio2+0x430>)
   10028:	9804      	ldr	r0, [sp, #16]
   1002a:	9905      	ldr	r1, [sp, #20]
   1002c:	f002 fa90 	bl	12550 <____muldf3_from_thumb>
   10030:	1c06      	adds	r6, r0, #0
   10032:	1c0f      	adds	r7, r1, #0
   10034:	1c32      	adds	r2, r6, #0
   10036:	1c3b      	adds	r3, r7, #0
   10038:	9806      	ldr	r0, [sp, #24]
   1003a:	9907      	ldr	r1, [sp, #28]
   1003c:	f002 fa94 	bl	12568 <____subdf3_from_thumb>
   10040:	4a14      	ldr	r2, [pc, #80]	; (10094 <__ieee754_rem_pio2+0x438>)
   10042:	4b15      	ldr	r3, [pc, #84]	; (10098 <__ieee754_rem_pio2+0x43c>)
   10044:	9002      	str	r0, [sp, #8]
   10046:	9103      	str	r1, [sp, #12]
   10048:	9804      	ldr	r0, [sp, #16]
   1004a:	9905      	ldr	r1, [sp, #20]
   1004c:	f002 fa80 	bl	12550 <____muldf3_from_thumb>
   10050:	9a02      	ldr	r2, [sp, #8]
   10052:	9b03      	ldr	r3, [sp, #12]
   10054:	1c0d      	adds	r5, r1, #0
   10056:	1c04      	adds	r4, r0, #0
   10058:	9806      	ldr	r0, [sp, #24]
   1005a:	9907      	ldr	r1, [sp, #28]
   1005c:	f002 fa84 	bl	12568 <____subdf3_from_thumb>
   10060:	1c32      	adds	r2, r6, #0
   10062:	1c3b      	adds	r3, r7, #0
   10064:	f002 fa80 	bl	12568 <____subdf3_from_thumb>
   10068:	1c02      	adds	r2, r0, #0
   1006a:	1c0b      	adds	r3, r1, #0
   1006c:	1c20      	adds	r0, r4, #0
   1006e:	1c29      	adds	r1, r5, #0
   10070:	f002 fa7a 	bl	12568 <____subdf3_from_thumb>
   10074:	1c05      	adds	r5, r0, #0
   10076:	1c0e      	adds	r6, r1, #0
   10078:	1c33      	adds	r3, r6, #0
   1007a:	9802      	ldr	r0, [sp, #8]
   1007c:	9903      	ldr	r1, [sp, #12]
   1007e:	1c2a      	adds	r2, r5, #0
   10080:	f002 fa72 	bl	12568 <____subdf3_from_thumb>
   10084:	4643      	mov	r3, r8
   10086:	6018      	str	r0, [r3, #0]
   10088:	6059      	str	r1, [r3, #4]
   1008a:	e6bf      	b.n	fe0c <__ieee754_rem_pio2+0x1b0>
   1008c:	3ba3198a 	.word	0x3ba3198a
   10090:	2e000000 	.word	0x2e000000
   10094:	397b839a 	.word	0x397b839a
   10098:	252049c1 	.word	0x252049c1

0001009c <__ieee754_sqrt>:
   1009c:	b5f0      	push	{r4, r5, r6, r7, lr}
   1009e:	4657      	mov	r7, sl
   100a0:	464e      	mov	r6, r9
   100a2:	4645      	mov	r5, r8
   100a4:	b4e0      	push	{r5, r6, r7}
   100a6:	2200      	movs	r2, #0
   100a8:	2300      	movs	r3, #0
   100aa:	b082      	sub	sp, #8
   100ac:	9200      	str	r2, [sp, #0]
   100ae:	9301      	str	r3, [sp, #4]
   100b0:	1c05      	adds	r5, r0, #0
   100b2:	4a6b      	ldr	r2, [pc, #428]	; (10260 <__ieee754_sqrt+0x1c4>)
   100b4:	1c2b      	adds	r3, r5, #0
   100b6:	1c0e      	adds	r6, r1, #0
   100b8:	4013      	ands	r3, r2
   100ba:	1c07      	adds	r7, r0, #0
   100bc:	1c01      	adds	r1, r0, #0
   100be:	1c30      	adds	r0, r6, #0
   100c0:	4293      	cmp	r3, r2
   100c2:	d100      	bne.n	100c6 <__ieee754_sqrt+0x2a>
   100c4:	e0a1      	b.n	1020a <__ieee754_sqrt+0x16e>
   100c6:	2d00      	cmp	r5, #0
   100c8:	dc00      	bgt.n	100cc <__ieee754_sqrt+0x30>
   100ca:	e0ad      	b.n	10228 <__ieee754_sqrt+0x18c>
   100cc:	150a      	asrs	r2, r1, #20
   100ce:	2a00      	cmp	r2, #0
   100d0:	d118      	bne.n	10104 <__ieee754_sqrt+0x68>
   100d2:	2f00      	cmp	r7, #0
   100d4:	d104      	bne.n	100e0 <__ieee754_sqrt+0x44>
   100d6:	0ac1      	lsrs	r1, r0, #11
   100d8:	3a15      	subs	r2, #21
   100da:	0540      	lsls	r0, r0, #21
   100dc:	2900      	cmp	r1, #0
   100de:	d0fa      	beq.n	100d6 <__ieee754_sqrt+0x3a>
   100e0:	2380      	movs	r3, #128	; 0x80
   100e2:	035b      	lsls	r3, r3, #13
   100e4:	4219      	tst	r1, r3
   100e6:	d000      	beq.n	100ea <__ieee754_sqrt+0x4e>
   100e8:	e0b6      	b.n	10258 <__ieee754_sqrt+0x1bc>
   100ea:	2400      	movs	r4, #0
   100ec:	0049      	lsls	r1, r1, #1
   100ee:	3401      	adds	r4, #1
   100f0:	4219      	tst	r1, r3
   100f2:	d0fb      	beq.n	100ec <__ieee754_sqrt+0x50>
   100f4:	2320      	movs	r3, #32
   100f6:	1b1d      	subs	r5, r3, r4
   100f8:	1b13      	subs	r3, r2, r4
   100fa:	1c5a      	adds	r2, r3, #1
   100fc:	1c03      	adds	r3, r0, #0
   100fe:	40eb      	lsrs	r3, r5
   10100:	4319      	orrs	r1, r3
   10102:	40a0      	lsls	r0, r4
   10104:	4b57      	ldr	r3, [pc, #348]	; (10264 <__ieee754_sqrt+0x1c8>)
   10106:	189b      	adds	r3, r3, r2
   10108:	4699      	mov	r9, r3
   1010a:	4b57      	ldr	r3, [pc, #348]	; (10268 <__ieee754_sqrt+0x1cc>)
   1010c:	1c0a      	adds	r2, r1, #0
   1010e:	401a      	ands	r2, r3
   10110:	2380      	movs	r3, #128	; 0x80
   10112:	035b      	lsls	r3, r3, #13
   10114:	464c      	mov	r4, r9
   10116:	431a      	orrs	r2, r3
   10118:	07e4      	lsls	r4, r4, #31
   1011a:	d468      	bmi.n	101ee <__ieee754_sqrt+0x152>
   1011c:	0fc3      	lsrs	r3, r0, #31
   1011e:	189b      	adds	r3, r3, r2
   10120:	2180      	movs	r1, #128	; 0x80
   10122:	2500      	movs	r5, #0
   10124:	18d2      	adds	r2, r2, r3
   10126:	0040      	lsls	r0, r0, #1
   10128:	0389      	lsls	r1, r1, #14
   1012a:	46aa      	mov	sl, r5
   1012c:	2600      	movs	r6, #0
   1012e:	194b      	adds	r3, r1, r5
   10130:	4293      	cmp	r3, r2
   10132:	dc02      	bgt.n	1013a <__ieee754_sqrt+0x9e>
   10134:	18cd      	adds	r5, r1, r3
   10136:	1ad2      	subs	r2, r2, r3
   10138:	448a      	add	sl, r1
   1013a:	0fc3      	lsrs	r3, r0, #31
   1013c:	2480      	movs	r4, #128	; 0x80
   1013e:	189b      	adds	r3, r3, r2
   10140:	3601      	adds	r6, #1
   10142:	0624      	lsls	r4, r4, #24
   10144:	18d2      	adds	r2, r2, r3
   10146:	0040      	lsls	r0, r0, #1
   10148:	0849      	lsrs	r1, r1, #1
   1014a:	2e16      	cmp	r6, #22
   1014c:	d1ef      	bne.n	1012e <__ieee754_sqrt+0x92>
   1014e:	2700      	movs	r7, #0
   10150:	46b8      	mov	r8, r7
   10152:	2600      	movs	r6, #0
   10154:	46a4      	mov	ip, r4
   10156:	e009      	b.n	1016c <__ieee754_sqrt+0xd0>
   10158:	42aa      	cmp	r2, r5
   1015a:	d044      	beq.n	101e6 <__ieee754_sqrt+0x14a>
   1015c:	0fc3      	lsrs	r3, r0, #31
   1015e:	189b      	adds	r3, r3, r2
   10160:	3601      	adds	r6, #1
   10162:	18d2      	adds	r2, r2, r3
   10164:	0040      	lsls	r0, r0, #1
   10166:	0864      	lsrs	r4, r4, #1
   10168:	2e20      	cmp	r6, #32
   1016a:	d017      	beq.n	1019c <__ieee754_sqrt+0x100>
   1016c:	19e1      	adds	r1, r4, r7
   1016e:	42aa      	cmp	r2, r5
   10170:	ddf2      	ble.n	10158 <__ieee754_sqrt+0xbc>
   10172:	4663      	mov	r3, ip
   10174:	400b      	ands	r3, r1
   10176:	190f      	adds	r7, r1, r4
   10178:	4563      	cmp	r3, ip
   1017a:	d02f      	beq.n	101dc <__ieee754_sqrt+0x140>
   1017c:	1c2b      	adds	r3, r5, #0
   1017e:	1b52      	subs	r2, r2, r5
   10180:	4281      	cmp	r1, r0
   10182:	d900      	bls.n	10186 <__ieee754_sqrt+0xea>
   10184:	3a01      	subs	r2, #1
   10186:	1a40      	subs	r0, r0, r1
   10188:	1c1d      	adds	r5, r3, #0
   1018a:	0fc3      	lsrs	r3, r0, #31
   1018c:	189b      	adds	r3, r3, r2
   1018e:	3601      	adds	r6, #1
   10190:	44a0      	add	r8, r4
   10192:	18d2      	adds	r2, r2, r3
   10194:	0040      	lsls	r0, r0, #1
   10196:	0864      	lsrs	r4, r4, #1
   10198:	2e20      	cmp	r6, #32
   1019a:	d1e7      	bne.n	1016c <__ieee754_sqrt+0xd0>
   1019c:	4302      	orrs	r2, r0
   1019e:	d12b      	bne.n	101f8 <__ieee754_sqrt+0x15c>
   101a0:	4644      	mov	r4, r8
   101a2:	0861      	lsrs	r1, r4, #1
   101a4:	4650      	mov	r0, sl
   101a6:	07c0      	lsls	r0, r0, #31
   101a8:	d502      	bpl.n	101b0 <__ieee754_sqrt+0x114>
   101aa:	2380      	movs	r3, #128	; 0x80
   101ac:	061b      	lsls	r3, r3, #24
   101ae:	4319      	orrs	r1, r3
   101b0:	4653      	mov	r3, sl
   101b2:	4c2e      	ldr	r4, [pc, #184]	; (1026c <__ieee754_sqrt+0x1d0>)
   101b4:	4648      	mov	r0, r9
   101b6:	105a      	asrs	r2, r3, #1
   101b8:	1043      	asrs	r3, r0, #1
   101ba:	1912      	adds	r2, r2, r4
   101bc:	051b      	lsls	r3, r3, #20
   101be:	18d3      	adds	r3, r2, r3
   101c0:	9300      	str	r3, [sp, #0]
   101c2:	9101      	str	r1, [sp, #4]
   101c4:	9d00      	ldr	r5, [sp, #0]
   101c6:	9e01      	ldr	r6, [sp, #4]
   101c8:	1c28      	adds	r0, r5, #0
   101ca:	1c31      	adds	r1, r6, #0
   101cc:	b002      	add	sp, #8
   101ce:	bc1c      	pop	{r2, r3, r4}
   101d0:	4690      	mov	r8, r2
   101d2:	4699      	mov	r9, r3
   101d4:	46a2      	mov	sl, r4
   101d6:	bcf0      	pop	{r4, r5, r6, r7}
   101d8:	bc04      	pop	{r2}
   101da:	4710      	bx	r2
   101dc:	4663      	mov	r3, ip
   101de:	421f      	tst	r7, r3
   101e0:	d1cc      	bne.n	1017c <__ieee754_sqrt+0xe0>
   101e2:	1c6b      	adds	r3, r5, #1
   101e4:	e7cb      	b.n	1017e <__ieee754_sqrt+0xe2>
   101e6:	4281      	cmp	r1, r0
   101e8:	d9c3      	bls.n	10172 <__ieee754_sqrt+0xd6>
   101ea:	1c15      	adds	r5, r2, #0
   101ec:	e7b6      	b.n	1015c <__ieee754_sqrt+0xc0>
   101ee:	0fc3      	lsrs	r3, r0, #31
   101f0:	189b      	adds	r3, r3, r2
   101f2:	18d2      	adds	r2, r2, r3
   101f4:	0040      	lsls	r0, r0, #1
   101f6:	e791      	b.n	1011c <__ieee754_sqrt+0x80>
   101f8:	4640      	mov	r0, r8
   101fa:	3001      	adds	r0, #1
   101fc:	d028      	beq.n	10250 <__ieee754_sqrt+0x1b4>
   101fe:	2301      	movs	r3, #1
   10200:	4644      	mov	r4, r8
   10202:	4023      	ands	r3, r4
   10204:	4443      	add	r3, r8
   10206:	0859      	lsrs	r1, r3, #1
   10208:	e7cc      	b.n	101a4 <__ieee754_sqrt+0x108>
   1020a:	1c2a      	adds	r2, r5, #0
   1020c:	1c33      	adds	r3, r6, #0
   1020e:	1c28      	adds	r0, r5, #0
   10210:	1c31      	adds	r1, r6, #0
   10212:	f002 f99d 	bl	12550 <____muldf3_from_thumb>
   10216:	1c02      	adds	r2, r0, #0
   10218:	1c0b      	adds	r3, r1, #0
   1021a:	1c28      	adds	r0, r5, #0
   1021c:	1c31      	adds	r1, r6, #0
   1021e:	f002 f99f 	bl	12560 <____adddf3_from_thumb>
   10222:	1c05      	adds	r5, r0, #0
   10224:	1c0e      	adds	r6, r1, #0
   10226:	e7cf      	b.n	101c8 <__ieee754_sqrt+0x12c>
   10228:	4b11      	ldr	r3, [pc, #68]	; (10270 <__ieee754_sqrt+0x1d4>)
   1022a:	402b      	ands	r3, r5
   1022c:	4333      	orrs	r3, r6
   1022e:	d0cb      	beq.n	101c8 <__ieee754_sqrt+0x12c>
   10230:	2d00      	cmp	r5, #0
   10232:	d100      	bne.n	10236 <__ieee754_sqrt+0x19a>
   10234:	e74a      	b.n	100cc <__ieee754_sqrt+0x30>
   10236:	1c2a      	adds	r2, r5, #0
   10238:	1c33      	adds	r3, r6, #0
   1023a:	1c28      	adds	r0, r5, #0
   1023c:	1c31      	adds	r1, r6, #0
   1023e:	f002 f993 	bl	12568 <____subdf3_from_thumb>
   10242:	1c02      	adds	r2, r0, #0
   10244:	1c0b      	adds	r3, r1, #0
   10246:	f002 f967 	bl	12518 <____divdf3_from_thumb>
   1024a:	1c05      	adds	r5, r0, #0
   1024c:	1c0e      	adds	r6, r1, #0
   1024e:	e7bb      	b.n	101c8 <__ieee754_sqrt+0x12c>
   10250:	2201      	movs	r2, #1
   10252:	4492      	add	sl, r2
   10254:	2100      	movs	r1, #0
   10256:	e7a5      	b.n	101a4 <__ieee754_sqrt+0x108>
   10258:	2400      	movs	r4, #0
   1025a:	2520      	movs	r5, #32
   1025c:	e74c      	b.n	100f8 <__ieee754_sqrt+0x5c>
   1025e:	46c0      	nop			; (mov r8, r8)
   10260:	7ff00000 	.word	0x7ff00000
   10264:	fffffc01 	.word	0xfffffc01
   10268:	000fffff 	.word	0x000fffff
   1026c:	3fe00000 	.word	0x3fe00000
   10270:	7fffffff 	.word	0x7fffffff

00010274 <__ieee754_rem_pio2f>:
   10274:	b5f0      	push	{r4, r5, r6, r7, lr}
   10276:	465f      	mov	r7, fp
   10278:	4656      	mov	r6, sl
   1027a:	464d      	mov	r5, r9
   1027c:	4644      	mov	r4, r8
   1027e:	b4f0      	push	{r4, r5, r6, r7}
   10280:	4bab      	ldr	r3, [pc, #684]	; (10530 <__ieee754_rem_pio2f+0x2bc>)
   10282:	1c05      	adds	r5, r0, #0
   10284:	401d      	ands	r5, r3
   10286:	4bab      	ldr	r3, [pc, #684]	; (10534 <__ieee754_rem_pio2f+0x2c0>)
   10288:	b086      	sub	sp, #24
   1028a:	1c02      	adds	r2, r0, #0
   1028c:	1c0e      	adds	r6, r1, #0
   1028e:	4680      	mov	r8, r0
   10290:	429d      	cmp	r5, r3
   10292:	dc0d      	bgt.n	102b0 <__ieee754_rem_pio2f+0x3c>
   10294:	4ba8      	ldr	r3, [pc, #672]	; (10538 <__ieee754_rem_pio2f+0x2c4>)
   10296:	6030      	str	r0, [r6, #0]
   10298:	604b      	str	r3, [r1, #4]
   1029a:	2700      	movs	r7, #0
   1029c:	1c38      	adds	r0, r7, #0
   1029e:	b006      	add	sp, #24
   102a0:	bc3c      	pop	{r2, r3, r4, r5}
   102a2:	4690      	mov	r8, r2
   102a4:	4699      	mov	r9, r3
   102a6:	46a2      	mov	sl, r4
   102a8:	46ab      	mov	fp, r5
   102aa:	bcf0      	pop	{r4, r5, r6, r7}
   102ac:	bc02      	pop	{r1}
   102ae:	4708      	bx	r1
   102b0:	4ba2      	ldr	r3, [pc, #648]	; (1053c <__ieee754_rem_pio2f+0x2c8>)
   102b2:	429d      	cmp	r5, r3
   102b4:	dd0d      	ble.n	102d2 <__ieee754_rem_pio2f+0x5e>
   102b6:	4ba2      	ldr	r3, [pc, #648]	; (10540 <__ieee754_rem_pio2f+0x2cc>)
   102b8:	429d      	cmp	r5, r3
   102ba:	dd26      	ble.n	1030a <__ieee754_rem_pio2f+0x96>
   102bc:	4ba1      	ldr	r3, [pc, #644]	; (10544 <__ieee754_rem_pio2f+0x2d0>)
   102be:	429d      	cmp	r5, r3
   102c0:	dc00      	bgt.n	102c4 <__ieee754_rem_pio2f+0x50>
   102c2:	e0a6      	b.n	10412 <__ieee754_rem_pio2f+0x19e>
   102c4:	1c11      	adds	r1, r2, #0
   102c6:	f002 f93f 	bl	12548 <____subsf3_from_thumb>
   102ca:	2700      	movs	r7, #0
   102cc:	6070      	str	r0, [r6, #4]
   102ce:	6030      	str	r0, [r6, #0]
   102d0:	e7e4      	b.n	1029c <__ieee754_rem_pio2f+0x28>
   102d2:	2800      	cmp	r0, #0
   102d4:	dc00      	bgt.n	102d8 <__ieee754_rem_pio2f+0x64>
   102d6:	e083      	b.n	103e0 <__ieee754_rem_pio2f+0x16c>
   102d8:	499b      	ldr	r1, [pc, #620]	; (10548 <__ieee754_rem_pio2f+0x2d4>)
   102da:	f002 f935 	bl	12548 <____subsf3_from_thumb>
   102de:	230f      	movs	r3, #15
   102e0:	1c2a      	adds	r2, r5, #0
   102e2:	439a      	bics	r2, r3
   102e4:	4b99      	ldr	r3, [pc, #612]	; (1054c <__ieee754_rem_pio2f+0x2d8>)
   102e6:	1c04      	adds	r4, r0, #0
   102e8:	429a      	cmp	r2, r3
   102ea:	d100      	bne.n	102ee <__ieee754_rem_pio2f+0x7a>
   102ec:	e0cd      	b.n	1048a <__ieee754_rem_pio2f+0x216>
   102ee:	4998      	ldr	r1, [pc, #608]	; (10550 <__ieee754_rem_pio2f+0x2dc>)
   102f0:	f002 f92a 	bl	12548 <____subsf3_from_thumb>
   102f4:	1c01      	adds	r1, r0, #0
   102f6:	6030      	str	r0, [r6, #0]
   102f8:	1c20      	adds	r0, r4, #0
   102fa:	f002 f925 	bl	12548 <____subsf3_from_thumb>
   102fe:	4994      	ldr	r1, [pc, #592]	; (10550 <__ieee754_rem_pio2f+0x2dc>)
   10300:	f002 f922 	bl	12548 <____subsf3_from_thumb>
   10304:	2701      	movs	r7, #1
   10306:	6070      	str	r0, [r6, #4]
   10308:	e7c8      	b.n	1029c <__ieee754_rem_pio2f+0x28>
   1030a:	f001 ff8f 	bl	1222c <fabsf>
   1030e:	4991      	ldr	r1, [pc, #580]	; (10554 <__ieee754_rem_pio2f+0x2e0>)
   10310:	1c04      	adds	r4, r0, #0
   10312:	f002 f921 	bl	12558 <____mulsf3_from_thumb>
   10316:	4990      	ldr	r1, [pc, #576]	; (10558 <__ieee754_rem_pio2f+0x2e4>)
   10318:	f002 f90e 	bl	12538 <____addsf3_from_thumb>
   1031c:	f002 f92c 	bl	12578 <____fixsfsi_from_thumb>
   10320:	1c07      	adds	r7, r0, #0
   10322:	f002 f935 	bl	12590 <____floatsisf_from_thumb>
   10326:	498d      	ldr	r1, [pc, #564]	; (1055c <__ieee754_rem_pio2f+0x2e8>)
   10328:	4681      	mov	r9, r0
   1032a:	f002 f915 	bl	12558 <____mulsf3_from_thumb>
   1032e:	1c01      	adds	r1, r0, #0
   10330:	1c20      	adds	r0, r4, #0
   10332:	f002 f901 	bl	12538 <____addsf3_from_thumb>
   10336:	4986      	ldr	r1, [pc, #536]	; (10550 <__ieee754_rem_pio2f+0x2dc>)
   10338:	4682      	mov	sl, r0
   1033a:	4648      	mov	r0, r9
   1033c:	f002 f90c 	bl	12558 <____mulsf3_from_thumb>
   10340:	1c04      	adds	r4, r0, #0
   10342:	2f1f      	cmp	r7, #31
   10344:	dc00      	bgt.n	10348 <__ieee754_rem_pio2f+0xd4>
   10346:	e0b2      	b.n	104ae <__ieee754_rem_pio2f+0x23a>
   10348:	4650      	mov	r0, sl
   1034a:	1c21      	adds	r1, r4, #0
   1034c:	f002 f8fc 	bl	12548 <____subsf3_from_thumb>
   10350:	22ff      	movs	r2, #255	; 0xff
   10352:	0dc3      	lsrs	r3, r0, #23
   10354:	15ed      	asrs	r5, r5, #23
   10356:	4013      	ands	r3, r2
   10358:	1aeb      	subs	r3, r5, r3
   1035a:	6030      	str	r0, [r6, #0]
   1035c:	9502      	str	r5, [sp, #8]
   1035e:	2b08      	cmp	r3, #8
   10360:	dd28      	ble.n	103b4 <__ieee754_rem_pio2f+0x140>
   10362:	497f      	ldr	r1, [pc, #508]	; (10560 <__ieee754_rem_pio2f+0x2ec>)
   10364:	4648      	mov	r0, r9
   10366:	f002 f8f7 	bl	12558 <____mulsf3_from_thumb>
   1036a:	1c05      	adds	r5, r0, #0
   1036c:	1c29      	adds	r1, r5, #0
   1036e:	4650      	mov	r0, sl
   10370:	f002 f8ea 	bl	12548 <____subsf3_from_thumb>
   10374:	497b      	ldr	r1, [pc, #492]	; (10564 <__ieee754_rem_pio2f+0x2f0>)
   10376:	4683      	mov	fp, r0
   10378:	4648      	mov	r0, r9
   1037a:	f002 f8ed 	bl	12558 <____mulsf3_from_thumb>
   1037e:	4659      	mov	r1, fp
   10380:	1c04      	adds	r4, r0, #0
   10382:	4650      	mov	r0, sl
   10384:	f002 f8e0 	bl	12548 <____subsf3_from_thumb>
   10388:	1c29      	adds	r1, r5, #0
   1038a:	f002 f8dd 	bl	12548 <____subsf3_from_thumb>
   1038e:	1c01      	adds	r1, r0, #0
   10390:	1c20      	adds	r0, r4, #0
   10392:	f002 f8d9 	bl	12548 <____subsf3_from_thumb>
   10396:	1c04      	adds	r4, r0, #0
   10398:	1c21      	adds	r1, r4, #0
   1039a:	4658      	mov	r0, fp
   1039c:	f002 f8d4 	bl	12548 <____subsf3_from_thumb>
   103a0:	22ff      	movs	r2, #255	; 0xff
   103a2:	0dc3      	lsrs	r3, r0, #23
   103a4:	4013      	ands	r3, r2
   103a6:	9a02      	ldr	r2, [sp, #8]
   103a8:	1ad3      	subs	r3, r2, r3
   103aa:	6030      	str	r0, [r6, #0]
   103ac:	2b19      	cmp	r3, #25
   103ae:	dd00      	ble.n	103b2 <__ieee754_rem_pio2f+0x13e>
   103b0:	e0a1      	b.n	104f6 <__ieee754_rem_pio2f+0x282>
   103b2:	46da      	mov	sl, fp
   103b4:	6831      	ldr	r1, [r6, #0]
   103b6:	4650      	mov	r0, sl
   103b8:	f002 f8c6 	bl	12548 <____subsf3_from_thumb>
   103bc:	1c21      	adds	r1, r4, #0
   103be:	f002 f8c3 	bl	12548 <____subsf3_from_thumb>
   103c2:	4643      	mov	r3, r8
   103c4:	6070      	str	r0, [r6, #4]
   103c6:	2b00      	cmp	r3, #0
   103c8:	db00      	blt.n	103cc <__ieee754_rem_pio2f+0x158>
   103ca:	e767      	b.n	1029c <__ieee754_rem_pio2f+0x28>
   103cc:	6833      	ldr	r3, [r6, #0]
   103ce:	2280      	movs	r2, #128	; 0x80
   103d0:	0612      	lsls	r2, r2, #24
   103d2:	189b      	adds	r3, r3, r2
   103d4:	6033      	str	r3, [r6, #0]
   103d6:	6873      	ldr	r3, [r6, #4]
   103d8:	427f      	negs	r7, r7
   103da:	189b      	adds	r3, r3, r2
   103dc:	6073      	str	r3, [r6, #4]
   103de:	e75d      	b.n	1029c <__ieee754_rem_pio2f+0x28>
   103e0:	4959      	ldr	r1, [pc, #356]	; (10548 <__ieee754_rem_pio2f+0x2d4>)
   103e2:	f002 f8a9 	bl	12538 <____addsf3_from_thumb>
   103e6:	230f      	movs	r3, #15
   103e8:	1c2a      	adds	r2, r5, #0
   103ea:	439a      	bics	r2, r3
   103ec:	4b57      	ldr	r3, [pc, #348]	; (1054c <__ieee754_rem_pio2f+0x2d8>)
   103ee:	1c04      	adds	r4, r0, #0
   103f0:	429a      	cmp	r2, r3
   103f2:	d06d      	beq.n	104d0 <__ieee754_rem_pio2f+0x25c>
   103f4:	4956      	ldr	r1, [pc, #344]	; (10550 <__ieee754_rem_pio2f+0x2dc>)
   103f6:	f002 f89f 	bl	12538 <____addsf3_from_thumb>
   103fa:	1c01      	adds	r1, r0, #0
   103fc:	6030      	str	r0, [r6, #0]
   103fe:	1c20      	adds	r0, r4, #0
   10400:	f002 f8a2 	bl	12548 <____subsf3_from_thumb>
   10404:	4952      	ldr	r1, [pc, #328]	; (10550 <__ieee754_rem_pio2f+0x2dc>)
   10406:	f002 f897 	bl	12538 <____addsf3_from_thumb>
   1040a:	2701      	movs	r7, #1
   1040c:	427f      	negs	r7, r7
   1040e:	6070      	str	r0, [r6, #4]
   10410:	e744      	b.n	1029c <__ieee754_rem_pio2f+0x28>
   10412:	15eb      	asrs	r3, r5, #23
   10414:	3b86      	subs	r3, #134	; 0x86
   10416:	469a      	mov	sl, r3
   10418:	05db      	lsls	r3, r3, #23
   1041a:	1aec      	subs	r4, r5, r3
   1041c:	1c20      	adds	r0, r4, #0
   1041e:	f002 f8ab 	bl	12578 <____fixsfsi_from_thumb>
   10422:	f002 f8b5 	bl	12590 <____floatsisf_from_thumb>
   10426:	1c01      	adds	r1, r0, #0
   10428:	9003      	str	r0, [sp, #12]
   1042a:	1c20      	adds	r0, r4, #0
   1042c:	f002 f88c 	bl	12548 <____subsf3_from_thumb>
   10430:	494d      	ldr	r1, [pc, #308]	; (10568 <__ieee754_rem_pio2f+0x2f4>)
   10432:	f002 f891 	bl	12558 <____mulsf3_from_thumb>
   10436:	1c04      	adds	r4, r0, #0
   10438:	f002 f89e 	bl	12578 <____fixsfsi_from_thumb>
   1043c:	f002 f8a8 	bl	12590 <____floatsisf_from_thumb>
   10440:	1c01      	adds	r1, r0, #0
   10442:	9004      	str	r0, [sp, #16]
   10444:	1c20      	adds	r0, r4, #0
   10446:	f002 f87f 	bl	12548 <____subsf3_from_thumb>
   1044a:	4947      	ldr	r1, [pc, #284]	; (10568 <__ieee754_rem_pio2f+0x2f4>)
   1044c:	f002 f884 	bl	12558 <____mulsf3_from_thumb>
   10450:	2503      	movs	r5, #3
   10452:	af03      	add	r7, sp, #12
   10454:	9005      	str	r0, [sp, #20]
   10456:	e000      	b.n	1045a <__ieee754_rem_pio2f+0x1e6>
   10458:	1c25      	adds	r5, r4, #0
   1045a:	1e6c      	subs	r4, r5, #1
   1045c:	00a3      	lsls	r3, r4, #2
   1045e:	59d8      	ldr	r0, [r3, r7]
   10460:	4935      	ldr	r1, [pc, #212]	; (10538 <__ieee754_rem_pio2f+0x2c4>)
   10462:	f002 f86d 	bl	12540 <____eqsf2_from_thumb>
   10466:	2800      	cmp	r0, #0
   10468:	d0f6      	beq.n	10458 <__ieee754_rem_pio2f+0x1e4>
   1046a:	2302      	movs	r3, #2
   1046c:	9300      	str	r3, [sp, #0]
   1046e:	4b3f      	ldr	r3, [pc, #252]	; (1056c <__ieee754_rem_pio2f+0x2f8>)
   10470:	1c38      	adds	r0, r7, #0
   10472:	9301      	str	r3, [sp, #4]
   10474:	1c31      	adds	r1, r6, #0
   10476:	1c2b      	adds	r3, r5, #0
   10478:	4652      	mov	r2, sl
   1047a:	f000 ffa9 	bl	113d0 <__kernel_rem_pio2f>
   1047e:	4643      	mov	r3, r8
   10480:	1c07      	adds	r7, r0, #0
   10482:	2b00      	cmp	r3, #0
   10484:	db00      	blt.n	10488 <__ieee754_rem_pio2f+0x214>
   10486:	e709      	b.n	1029c <__ieee754_rem_pio2f+0x28>
   10488:	e7a0      	b.n	103cc <__ieee754_rem_pio2f+0x158>
   1048a:	4935      	ldr	r1, [pc, #212]	; (10560 <__ieee754_rem_pio2f+0x2ec>)
   1048c:	f002 f85c 	bl	12548 <____subsf3_from_thumb>
   10490:	4934      	ldr	r1, [pc, #208]	; (10564 <__ieee754_rem_pio2f+0x2f0>)
   10492:	1c04      	adds	r4, r0, #0
   10494:	f002 f858 	bl	12548 <____subsf3_from_thumb>
   10498:	1c01      	adds	r1, r0, #0
   1049a:	6030      	str	r0, [r6, #0]
   1049c:	1c20      	adds	r0, r4, #0
   1049e:	f002 f853 	bl	12548 <____subsf3_from_thumb>
   104a2:	4930      	ldr	r1, [pc, #192]	; (10564 <__ieee754_rem_pio2f+0x2f0>)
   104a4:	f002 f850 	bl	12548 <____subsf3_from_thumb>
   104a8:	2701      	movs	r7, #1
   104aa:	6070      	str	r0, [r6, #4]
   104ac:	e6f6      	b.n	1029c <__ieee754_rem_pio2f+0x28>
   104ae:	23ff      	movs	r3, #255	; 0xff
   104b0:	1c29      	adds	r1, r5, #0
   104b2:	4a2f      	ldr	r2, [pc, #188]	; (10570 <__ieee754_rem_pio2f+0x2fc>)
   104b4:	4399      	bics	r1, r3
   104b6:	00bb      	lsls	r3, r7, #2
   104b8:	189b      	adds	r3, r3, r2
   104ba:	3b04      	subs	r3, #4
   104bc:	681b      	ldr	r3, [r3, #0]
   104be:	4299      	cmp	r1, r3
   104c0:	d100      	bne.n	104c4 <__ieee754_rem_pio2f+0x250>
   104c2:	e741      	b.n	10348 <__ieee754_rem_pio2f+0xd4>
   104c4:	4650      	mov	r0, sl
   104c6:	1c21      	adds	r1, r4, #0
   104c8:	f002 f83e 	bl	12548 <____subsf3_from_thumb>
   104cc:	6030      	str	r0, [r6, #0]
   104ce:	e771      	b.n	103b4 <__ieee754_rem_pio2f+0x140>
   104d0:	4923      	ldr	r1, [pc, #140]	; (10560 <__ieee754_rem_pio2f+0x2ec>)
   104d2:	f002 f831 	bl	12538 <____addsf3_from_thumb>
   104d6:	4923      	ldr	r1, [pc, #140]	; (10564 <__ieee754_rem_pio2f+0x2f0>)
   104d8:	1c04      	adds	r4, r0, #0
   104da:	f002 f82d 	bl	12538 <____addsf3_from_thumb>
   104de:	1c01      	adds	r1, r0, #0
   104e0:	6030      	str	r0, [r6, #0]
   104e2:	1c20      	adds	r0, r4, #0
   104e4:	f002 f830 	bl	12548 <____subsf3_from_thumb>
   104e8:	491e      	ldr	r1, [pc, #120]	; (10564 <__ieee754_rem_pio2f+0x2f0>)
   104ea:	f002 f825 	bl	12538 <____addsf3_from_thumb>
   104ee:	2701      	movs	r7, #1
   104f0:	427f      	negs	r7, r7
   104f2:	6070      	str	r0, [r6, #4]
   104f4:	e6d2      	b.n	1029c <__ieee754_rem_pio2f+0x28>
   104f6:	491f      	ldr	r1, [pc, #124]	; (10574 <__ieee754_rem_pio2f+0x300>)
   104f8:	4648      	mov	r0, r9
   104fa:	f002 f82d 	bl	12558 <____mulsf3_from_thumb>
   104fe:	1c05      	adds	r5, r0, #0
   10500:	1c29      	adds	r1, r5, #0
   10502:	4658      	mov	r0, fp
   10504:	f002 f820 	bl	12548 <____subsf3_from_thumb>
   10508:	491b      	ldr	r1, [pc, #108]	; (10578 <__ieee754_rem_pio2f+0x304>)
   1050a:	4682      	mov	sl, r0
   1050c:	4648      	mov	r0, r9
   1050e:	f002 f823 	bl	12558 <____mulsf3_from_thumb>
   10512:	4651      	mov	r1, sl
   10514:	1c04      	adds	r4, r0, #0
   10516:	4658      	mov	r0, fp
   10518:	f002 f816 	bl	12548 <____subsf3_from_thumb>
   1051c:	1c29      	adds	r1, r5, #0
   1051e:	f002 f813 	bl	12548 <____subsf3_from_thumb>
   10522:	1c01      	adds	r1, r0, #0
   10524:	1c20      	adds	r0, r4, #0
   10526:	f002 f80f 	bl	12548 <____subsf3_from_thumb>
   1052a:	1c04      	adds	r4, r0, #0
   1052c:	e7ca      	b.n	104c4 <__ieee754_rem_pio2f+0x250>
   1052e:	46c0      	nop			; (mov r8, r8)
   10530:	7fffffff 	.word	0x7fffffff
   10534:	3f490fd8 	.word	0x3f490fd8
   10538:	00000000 	.word	0x00000000
   1053c:	4016cbe3 	.word	0x4016cbe3
   10540:	43490f80 	.word	0x43490f80
   10544:	7f7fffff 	.word	0x7f7fffff
   10548:	3fc90f80 	.word	0x3fc90f80
   1054c:	3fc90fd0 	.word	0x3fc90fd0
   10550:	37354443 	.word	0x37354443
   10554:	3f22f984 	.word	0x3f22f984
   10558:	3f000000 	.word	0x3f000000
   1055c:	bfc90f80 	.word	0xbfc90f80
   10560:	37354400 	.word	0x37354400
   10564:	2e85a308 	.word	0x2e85a308
   10568:	43800000 	.word	0x43800000
   1056c:	00012898 	.word	0x00012898
   10570:	00012818 	.word	0x00012818
   10574:	2e85a300 	.word	0x2e85a300
   10578:	248d3132 	.word	0x248d3132

0001057c <__kernel_cos>:
   1057c:	b5f0      	push	{r4, r5, r6, r7, lr}
   1057e:	4647      	mov	r7, r8
   10580:	b480      	push	{r7}
   10582:	b08e      	sub	sp, #56	; 0x38
   10584:	9204      	str	r2, [sp, #16]
   10586:	9305      	str	r3, [sp, #20]
   10588:	4a86      	ldr	r2, [pc, #536]	; (107a4 <__kernel_cos+0x228>)
   1058a:	4b87      	ldr	r3, [pc, #540]	; (107a8 <__kernel_cos+0x22c>)
   1058c:	4002      	ands	r2, r0
   1058e:	2400      	movs	r4, #0
   10590:	2500      	movs	r5, #0
   10592:	4690      	mov	r8, r2
   10594:	9406      	str	r4, [sp, #24]
   10596:	9507      	str	r5, [sp, #28]
   10598:	1c06      	adds	r6, r0, #0
   1059a:	1c0f      	adds	r7, r1, #0
   1059c:	4598      	cmp	r8, r3
   1059e:	dd00      	ble.n	105a2 <__kernel_cos+0x26>
   105a0:	e072      	b.n	10688 <__kernel_cos+0x10c>
   105a2:	f001 ffe5 	bl	12570 <____fixdfsi_from_thumb>
   105a6:	2800      	cmp	r0, #0
   105a8:	d100      	bne.n	105ac <__kernel_cos+0x30>
   105aa:	e0e7      	b.n	1077c <__kernel_cos+0x200>
   105ac:	1c32      	adds	r2, r6, #0
   105ae:	1c3b      	adds	r3, r7, #0
   105b0:	1c30      	adds	r0, r6, #0
   105b2:	1c39      	adds	r1, r7, #0
   105b4:	f001 ffcc 	bl	12550 <____muldf3_from_thumb>
   105b8:	4a7c      	ldr	r2, [pc, #496]	; (107ac <__kernel_cos+0x230>)
   105ba:	4b7d      	ldr	r3, [pc, #500]	; (107b0 <__kernel_cos+0x234>)
   105bc:	1c04      	adds	r4, r0, #0
   105be:	1c0d      	adds	r5, r1, #0
   105c0:	f001 ffc6 	bl	12550 <____muldf3_from_thumb>
   105c4:	4a7b      	ldr	r2, [pc, #492]	; (107b4 <__kernel_cos+0x238>)
   105c6:	4b7c      	ldr	r3, [pc, #496]	; (107b8 <__kernel_cos+0x23c>)
   105c8:	f001 ffca 	bl	12560 <____adddf3_from_thumb>
   105cc:	1c02      	adds	r2, r0, #0
   105ce:	1c0b      	adds	r3, r1, #0
   105d0:	1c20      	adds	r0, r4, #0
   105d2:	1c29      	adds	r1, r5, #0
   105d4:	f001 ffbc 	bl	12550 <____muldf3_from_thumb>
   105d8:	4a78      	ldr	r2, [pc, #480]	; (107bc <__kernel_cos+0x240>)
   105da:	4b79      	ldr	r3, [pc, #484]	; (107c0 <__kernel_cos+0x244>)
   105dc:	f001 ffc4 	bl	12568 <____subdf3_from_thumb>
   105e0:	1c02      	adds	r2, r0, #0
   105e2:	1c0b      	adds	r3, r1, #0
   105e4:	1c20      	adds	r0, r4, #0
   105e6:	1c29      	adds	r1, r5, #0
   105e8:	f001 ffb2 	bl	12550 <____muldf3_from_thumb>
   105ec:	4a75      	ldr	r2, [pc, #468]	; (107c4 <__kernel_cos+0x248>)
   105ee:	4b76      	ldr	r3, [pc, #472]	; (107c8 <__kernel_cos+0x24c>)
   105f0:	f001 ffb6 	bl	12560 <____adddf3_from_thumb>
   105f4:	1c02      	adds	r2, r0, #0
   105f6:	1c0b      	adds	r3, r1, #0
   105f8:	1c20      	adds	r0, r4, #0
   105fa:	1c29      	adds	r1, r5, #0
   105fc:	f001 ffa8 	bl	12550 <____muldf3_from_thumb>
   10600:	4a72      	ldr	r2, [pc, #456]	; (107cc <__kernel_cos+0x250>)
   10602:	4b73      	ldr	r3, [pc, #460]	; (107d0 <__kernel_cos+0x254>)
   10604:	f001 ffb0 	bl	12568 <____subdf3_from_thumb>
   10608:	1c02      	adds	r2, r0, #0
   1060a:	1c0b      	adds	r3, r1, #0
   1060c:	1c20      	adds	r0, r4, #0
   1060e:	1c29      	adds	r1, r5, #0
   10610:	f001 ff9e 	bl	12550 <____muldf3_from_thumb>
   10614:	4a6f      	ldr	r2, [pc, #444]	; (107d4 <__kernel_cos+0x258>)
   10616:	4b70      	ldr	r3, [pc, #448]	; (107d8 <__kernel_cos+0x25c>)
   10618:	f001 ffa2 	bl	12560 <____adddf3_from_thumb>
   1061c:	1c02      	adds	r2, r0, #0
   1061e:	1c0b      	adds	r3, r1, #0
   10620:	1c20      	adds	r0, r4, #0
   10622:	1c29      	adds	r1, r5, #0
   10624:	f001 ff94 	bl	12550 <____muldf3_from_thumb>
   10628:	9008      	str	r0, [sp, #32]
   1062a:	9109      	str	r1, [sp, #36]	; 0x24
   1062c:	1c20      	adds	r0, r4, #0
   1062e:	1c29      	adds	r1, r5, #0
   10630:	4a6a      	ldr	r2, [pc, #424]	; (107dc <__kernel_cos+0x260>)
   10632:	4b6b      	ldr	r3, [pc, #428]	; (107e0 <__kernel_cos+0x264>)
   10634:	f001 ff8c 	bl	12550 <____muldf3_from_thumb>
   10638:	9a08      	ldr	r2, [sp, #32]
   1063a:	9b09      	ldr	r3, [sp, #36]	; 0x24
   1063c:	9002      	str	r0, [sp, #8]
   1063e:	9103      	str	r1, [sp, #12]
   10640:	1c20      	adds	r0, r4, #0
   10642:	1c29      	adds	r1, r5, #0
   10644:	f001 ff84 	bl	12550 <____muldf3_from_thumb>
   10648:	9a04      	ldr	r2, [sp, #16]
   1064a:	9b05      	ldr	r3, [sp, #20]
   1064c:	1c04      	adds	r4, r0, #0
   1064e:	1c0d      	adds	r5, r1, #0
   10650:	1c30      	adds	r0, r6, #0
   10652:	1c39      	adds	r1, r7, #0
   10654:	f001 ff7c 	bl	12550 <____muldf3_from_thumb>
   10658:	1c02      	adds	r2, r0, #0
   1065a:	1c0b      	adds	r3, r1, #0
   1065c:	1c20      	adds	r0, r4, #0
   1065e:	1c29      	adds	r1, r5, #0
   10660:	f001 ff82 	bl	12568 <____subdf3_from_thumb>
   10664:	1c02      	adds	r2, r0, #0
   10666:	1c0b      	adds	r3, r1, #0
   10668:	9802      	ldr	r0, [sp, #8]
   1066a:	9903      	ldr	r1, [sp, #12]
   1066c:	f001 ff7c 	bl	12568 <____subdf3_from_thumb>
   10670:	1c02      	adds	r2, r0, #0
   10672:	1c0b      	adds	r3, r1, #0
   10674:	485b      	ldr	r0, [pc, #364]	; (107e4 <__kernel_cos+0x268>)
   10676:	495c      	ldr	r1, [pc, #368]	; (107e8 <__kernel_cos+0x26c>)
   10678:	f001 ff76 	bl	12568 <____subdf3_from_thumb>
   1067c:	b00e      	add	sp, #56	; 0x38
   1067e:	bc04      	pop	{r2}
   10680:	4690      	mov	r8, r2
   10682:	bcf0      	pop	{r4, r5, r6, r7}
   10684:	bc04      	pop	{r2}
   10686:	4710      	bx	r2
   10688:	1c32      	adds	r2, r6, #0
   1068a:	1c3b      	adds	r3, r7, #0
   1068c:	f001 ff60 	bl	12550 <____muldf3_from_thumb>
   10690:	4a46      	ldr	r2, [pc, #280]	; (107ac <__kernel_cos+0x230>)
   10692:	4b47      	ldr	r3, [pc, #284]	; (107b0 <__kernel_cos+0x234>)
   10694:	1c04      	adds	r4, r0, #0
   10696:	1c0d      	adds	r5, r1, #0
   10698:	f001 ff5a 	bl	12550 <____muldf3_from_thumb>
   1069c:	4a45      	ldr	r2, [pc, #276]	; (107b4 <__kernel_cos+0x238>)
   1069e:	4b46      	ldr	r3, [pc, #280]	; (107b8 <__kernel_cos+0x23c>)
   106a0:	f001 ff5e 	bl	12560 <____adddf3_from_thumb>
   106a4:	1c02      	adds	r2, r0, #0
   106a6:	1c0b      	adds	r3, r1, #0
   106a8:	1c20      	adds	r0, r4, #0
   106aa:	1c29      	adds	r1, r5, #0
   106ac:	f001 ff50 	bl	12550 <____muldf3_from_thumb>
   106b0:	4a42      	ldr	r2, [pc, #264]	; (107bc <__kernel_cos+0x240>)
   106b2:	4b43      	ldr	r3, [pc, #268]	; (107c0 <__kernel_cos+0x244>)
   106b4:	f001 ff58 	bl	12568 <____subdf3_from_thumb>
   106b8:	1c02      	adds	r2, r0, #0
   106ba:	1c0b      	adds	r3, r1, #0
   106bc:	1c20      	adds	r0, r4, #0
   106be:	1c29      	adds	r1, r5, #0
   106c0:	f001 ff46 	bl	12550 <____muldf3_from_thumb>
   106c4:	4a3f      	ldr	r2, [pc, #252]	; (107c4 <__kernel_cos+0x248>)
   106c6:	4b40      	ldr	r3, [pc, #256]	; (107c8 <__kernel_cos+0x24c>)
   106c8:	f001 ff4a 	bl	12560 <____adddf3_from_thumb>
   106cc:	1c02      	adds	r2, r0, #0
   106ce:	1c0b      	adds	r3, r1, #0
   106d0:	1c20      	adds	r0, r4, #0
   106d2:	1c29      	adds	r1, r5, #0
   106d4:	f001 ff3c 	bl	12550 <____muldf3_from_thumb>
   106d8:	4a3c      	ldr	r2, [pc, #240]	; (107cc <__kernel_cos+0x250>)
   106da:	4b3d      	ldr	r3, [pc, #244]	; (107d0 <__kernel_cos+0x254>)
   106dc:	f001 ff44 	bl	12568 <____subdf3_from_thumb>
   106e0:	1c02      	adds	r2, r0, #0
   106e2:	1c0b      	adds	r3, r1, #0
   106e4:	1c20      	adds	r0, r4, #0
   106e6:	1c29      	adds	r1, r5, #0
   106e8:	f001 ff32 	bl	12550 <____muldf3_from_thumb>
   106ec:	4a39      	ldr	r2, [pc, #228]	; (107d4 <__kernel_cos+0x258>)
   106ee:	4b3a      	ldr	r3, [pc, #232]	; (107d8 <__kernel_cos+0x25c>)
   106f0:	f001 ff36 	bl	12560 <____adddf3_from_thumb>
   106f4:	1c0b      	adds	r3, r1, #0
   106f6:	1c02      	adds	r2, r0, #0
   106f8:	1c29      	adds	r1, r5, #0
   106fa:	1c20      	adds	r0, r4, #0
   106fc:	f001 ff28 	bl	12550 <____muldf3_from_thumb>
   10700:	4b3a      	ldr	r3, [pc, #232]	; (107ec <__kernel_cos+0x270>)
   10702:	9008      	str	r0, [sp, #32]
   10704:	9109      	str	r1, [sp, #36]	; 0x24
   10706:	4598      	cmp	r8, r3
   10708:	dc00      	bgt.n	1070c <__kernel_cos+0x190>
   1070a:	e78f      	b.n	1062c <__kernel_cos+0xb0>
   1070c:	4b38      	ldr	r3, [pc, #224]	; (107f0 <__kernel_cos+0x274>)
   1070e:	4598      	cmp	r8, r3
   10710:	dd37      	ble.n	10782 <__kernel_cos+0x206>
   10712:	4a38      	ldr	r2, [pc, #224]	; (107f4 <__kernel_cos+0x278>)
   10714:	4b38      	ldr	r3, [pc, #224]	; (107f8 <__kernel_cos+0x27c>)
   10716:	920a      	str	r2, [sp, #40]	; 0x28
   10718:	930b      	str	r3, [sp, #44]	; 0x2c
   1071a:	4a38      	ldr	r2, [pc, #224]	; (107fc <__kernel_cos+0x280>)
   1071c:	4b38      	ldr	r3, [pc, #224]	; (10800 <__kernel_cos+0x284>)
   1071e:	920c      	str	r2, [sp, #48]	; 0x30
   10720:	930d      	str	r3, [sp, #52]	; 0x34
   10722:	1c20      	adds	r0, r4, #0
   10724:	1c29      	adds	r1, r5, #0
   10726:	4a2d      	ldr	r2, [pc, #180]	; (107dc <__kernel_cos+0x260>)
   10728:	4b2d      	ldr	r3, [pc, #180]	; (107e0 <__kernel_cos+0x264>)
   1072a:	f001 ff11 	bl	12550 <____muldf3_from_thumb>
   1072e:	9a0a      	ldr	r2, [sp, #40]	; 0x28
   10730:	9b0b      	ldr	r3, [sp, #44]	; 0x2c
   10732:	f001 ff19 	bl	12568 <____subdf3_from_thumb>
   10736:	9a08      	ldr	r2, [sp, #32]
   10738:	9b09      	ldr	r3, [sp, #36]	; 0x24
   1073a:	9000      	str	r0, [sp, #0]
   1073c:	9101      	str	r1, [sp, #4]
   1073e:	1c20      	adds	r0, r4, #0
   10740:	1c29      	adds	r1, r5, #0
   10742:	f001 ff05 	bl	12550 <____muldf3_from_thumb>
   10746:	9a04      	ldr	r2, [sp, #16]
   10748:	9b05      	ldr	r3, [sp, #20]
   1074a:	1c04      	adds	r4, r0, #0
   1074c:	1c0d      	adds	r5, r1, #0
   1074e:	1c30      	adds	r0, r6, #0
   10750:	1c39      	adds	r1, r7, #0
   10752:	f001 fefd 	bl	12550 <____muldf3_from_thumb>
   10756:	1c02      	adds	r2, r0, #0
   10758:	1c0b      	adds	r3, r1, #0
   1075a:	1c20      	adds	r0, r4, #0
   1075c:	1c29      	adds	r1, r5, #0
   1075e:	f001 ff03 	bl	12568 <____subdf3_from_thumb>
   10762:	1c02      	adds	r2, r0, #0
   10764:	1c0b      	adds	r3, r1, #0
   10766:	9800      	ldr	r0, [sp, #0]
   10768:	9901      	ldr	r1, [sp, #4]
   1076a:	f001 fefd 	bl	12568 <____subdf3_from_thumb>
   1076e:	1c02      	adds	r2, r0, #0
   10770:	1c0b      	adds	r3, r1, #0
   10772:	980c      	ldr	r0, [sp, #48]	; 0x30
   10774:	990d      	ldr	r1, [sp, #52]	; 0x34
   10776:	f001 fef7 	bl	12568 <____subdf3_from_thumb>
   1077a:	e77f      	b.n	1067c <__kernel_cos+0x100>
   1077c:	4819      	ldr	r0, [pc, #100]	; (107e4 <__kernel_cos+0x268>)
   1077e:	491a      	ldr	r1, [pc, #104]	; (107e8 <__kernel_cos+0x26c>)
   10780:	e77c      	b.n	1067c <__kernel_cos+0x100>
   10782:	4b20      	ldr	r3, [pc, #128]	; (10804 <__kernel_cos+0x288>)
   10784:	2200      	movs	r2, #0
   10786:	4443      	add	r3, r8
   10788:	9306      	str	r3, [sp, #24]
   1078a:	9207      	str	r2, [sp, #28]
   1078c:	9a06      	ldr	r2, [sp, #24]
   1078e:	9b07      	ldr	r3, [sp, #28]
   10790:	4814      	ldr	r0, [pc, #80]	; (107e4 <__kernel_cos+0x268>)
   10792:	4915      	ldr	r1, [pc, #84]	; (107e8 <__kernel_cos+0x26c>)
   10794:	920a      	str	r2, [sp, #40]	; 0x28
   10796:	930b      	str	r3, [sp, #44]	; 0x2c
   10798:	f001 fee6 	bl	12568 <____subdf3_from_thumb>
   1079c:	900c      	str	r0, [sp, #48]	; 0x30
   1079e:	910d      	str	r1, [sp, #52]	; 0x34
   107a0:	e7bf      	b.n	10722 <__kernel_cos+0x1a6>
   107a2:	46c0      	nop			; (mov r8, r8)
   107a4:	7fffffff 	.word	0x7fffffff
   107a8:	3e3fffff 	.word	0x3e3fffff
   107ac:	bda8fae9 	.word	0xbda8fae9
   107b0:	be8838d4 	.word	0xbe8838d4
   107b4:	3e21ee9e 	.word	0x3e21ee9e
   107b8:	bdb4b1c4 	.word	0xbdb4b1c4
   107bc:	3e927e4f 	.word	0x3e927e4f
   107c0:	809c52ad 	.word	0x809c52ad
   107c4:	3efa01a0 	.word	0x3efa01a0
   107c8:	19cb1590 	.word	0x19cb1590
   107cc:	3f56c16c 	.word	0x3f56c16c
   107d0:	16c15177 	.word	0x16c15177
   107d4:	3fa55555 	.word	0x3fa55555
   107d8:	5555554c 	.word	0x5555554c
   107dc:	3fe00000 	.word	0x3fe00000
   107e0:	00000000 	.word	0x00000000
   107e4:	3ff00000 	.word	0x3ff00000
   107e8:	00000000 	.word	0x00000000
   107ec:	3fd33332 	.word	0x3fd33332
   107f0:	3fe90000 	.word	0x3fe90000
   107f4:	3fd20000 	.word	0x3fd20000
   107f8:	00000000 	.word	0x00000000
   107fc:	3fe70000 	.word	0x3fe70000
   10800:	00000000 	.word	0x00000000
   10804:	ffe00000 	.word	0xffe00000

00010808 <__kernel_rem_pio2>:
   10808:	b5f0      	push	{r4, r5, r6, r7, lr}
   1080a:	465f      	mov	r7, fp
   1080c:	4656      	mov	r6, sl
   1080e:	464d      	mov	r5, r9
   10810:	4644      	mov	r4, r8
   10812:	b4f0      	push	{r4, r5, r6, r7}
   10814:	4cd7      	ldr	r4, [pc, #860]	; (10b74 <__kernel_rem_pio2+0x36c>)
   10816:	44a5      	add	sp, r4
   10818:	9303      	str	r3, [sp, #12]
   1081a:	9005      	str	r0, [sp, #20]
   1081c:	98a6      	ldr	r0, [sp, #664]	; 0x298
   1081e:	9104      	str	r1, [sp, #16]
   10820:	4bd5      	ldr	r3, [pc, #852]	; (10b78 <__kernel_rem_pio2+0x370>)
   10822:	9903      	ldr	r1, [sp, #12]
   10824:	1c14      	adds	r4, r2, #0
   10826:	0082      	lsls	r2, r0, #2
   10828:	58d2      	ldr	r2, [r2, r3]
   1082a:	3901      	subs	r1, #1
   1082c:	9106      	str	r1, [sp, #24]
   1082e:	1ee0      	subs	r0, r4, #3
   10830:	2118      	movs	r1, #24
   10832:	9207      	str	r2, [sp, #28]
   10834:	f7f8 fd7a 	bl	932c <__aeabi_idiv>
   10838:	9010      	str	r0, [sp, #64]	; 0x40
   1083a:	2800      	cmp	r0, #0
   1083c:	da00      	bge.n	10840 <__kernel_rem_pio2+0x38>
   1083e:	e392      	b.n	10f66 <__kernel_rem_pio2+0x75e>
   10840:	9d10      	ldr	r5, [sp, #64]	; 0x40
   10842:	06eb      	lsls	r3, r5, #27
   10844:	1b5b      	subs	r3, r3, r5
   10846:	009b      	lsls	r3, r3, #2
   10848:	195b      	adds	r3, r3, r5
   1084a:	00db      	lsls	r3, r3, #3
   1084c:	18e3      	adds	r3, r4, r3
   1084e:	9e07      	ldr	r6, [sp, #28]
   10850:	9806      	ldr	r0, [sp, #24]
   10852:	3b18      	subs	r3, #24
   10854:	9309      	str	r3, [sp, #36]	; 0x24
   10856:	1836      	adds	r6, r6, r0
   10858:	46b0      	mov	r8, r6
   1085a:	d41a      	bmi.n	10892 <__kernel_rem_pio2+0x8a>
   1085c:	1a2d      	subs	r5, r5, r0
   1085e:	99a7      	ldr	r1, [sp, #668]	; 0x29c
   10860:	00ab      	lsls	r3, r5, #2
   10862:	18cc      	adds	r4, r1, r3
   10864:	2700      	movs	r7, #0
   10866:	ae61      	add	r6, sp, #388	; 0x184
   10868:	e00a      	b.n	10880 <__kernel_rem_pio2+0x78>
   1086a:	6820      	ldr	r0, [r4, #0]
   1086c:	f001 fe4c 	bl	12508 <____floatsidf_from_thumb>
   10870:	3404      	adds	r4, #4
   10872:	6030      	str	r0, [r6, #0]
   10874:	6071      	str	r1, [r6, #4]
   10876:	4547      	cmp	r7, r8
   10878:	d00b      	beq.n	10892 <__kernel_rem_pio2+0x8a>
   1087a:	3501      	adds	r5, #1
   1087c:	3701      	adds	r7, #1
   1087e:	3608      	adds	r6, #8
   10880:	2d00      	cmp	r5, #0
   10882:	daf2      	bge.n	1086a <__kernel_rem_pio2+0x62>
   10884:	48bd      	ldr	r0, [pc, #756]	; (10b7c <__kernel_rem_pio2+0x374>)
   10886:	49be      	ldr	r1, [pc, #760]	; (10b80 <__kernel_rem_pio2+0x378>)
   10888:	3404      	adds	r4, #4
   1088a:	6030      	str	r0, [r6, #0]
   1088c:	6071      	str	r1, [r6, #4]
   1088e:	4547      	cmp	r7, r8
   10890:	d1f3      	bne.n	1087a <__kernel_rem_pio2+0x72>
   10892:	9a07      	ldr	r2, [sp, #28]
   10894:	2a00      	cmp	r2, #0
   10896:	db32      	blt.n	108fe <__kernel_rem_pio2+0xf6>
   10898:	9d03      	ldr	r5, [sp, #12]
   1089a:	9b06      	ldr	r3, [sp, #24]
   1089c:	ac11      	add	r4, sp, #68	; 0x44
   1089e:	1952      	adds	r2, r2, r5
   108a0:	469a      	mov	sl, r3
   108a2:	46a3      	mov	fp, r4
   108a4:	4691      	mov	r9, r2
   108a6:	9906      	ldr	r1, [sp, #24]
   108a8:	2900      	cmp	r1, #0
   108aa:	da00      	bge.n	108ae <__kernel_rem_pio2+0xa6>
   108ac:	e1d4      	b.n	10c58 <__kernel_rem_pio2+0x450>
   108ae:	9a05      	ldr	r2, [sp, #20]
   108b0:	4653      	mov	r3, sl
   108b2:	4690      	mov	r8, r2
   108b4:	4cb1      	ldr	r4, [pc, #708]	; (10b7c <__kernel_rem_pio2+0x374>)
   108b6:	4db2      	ldr	r5, [pc, #712]	; (10b80 <__kernel_rem_pio2+0x378>)
   108b8:	00da      	lsls	r2, r3, #3
   108ba:	ab61      	add	r3, sp, #388	; 0x184
   108bc:	189f      	adds	r7, r3, r2
   108be:	2600      	movs	r6, #0
   108c0:	4642      	mov	r2, r8
   108c2:	3208      	adds	r2, #8
   108c4:	4690      	mov	r8, r2
   108c6:	3a08      	subs	r2, #8
   108c8:	ca03      	ldmia	r2!, {r0, r1}
   108ca:	683a      	ldr	r2, [r7, #0]
   108cc:	687b      	ldr	r3, [r7, #4]
   108ce:	f001 fe3f 	bl	12550 <____muldf3_from_thumb>
   108d2:	1c0b      	adds	r3, r1, #0
   108d4:	1c02      	adds	r2, r0, #0
   108d6:	1c29      	adds	r1, r5, #0
   108d8:	1c20      	adds	r0, r4, #0
   108da:	f001 fe41 	bl	12560 <____adddf3_from_thumb>
   108de:	9b03      	ldr	r3, [sp, #12]
   108e0:	3601      	adds	r6, #1
   108e2:	1c04      	adds	r4, r0, #0
   108e4:	1c0d      	adds	r5, r1, #0
   108e6:	3f08      	subs	r7, #8
   108e8:	42b3      	cmp	r3, r6
   108ea:	d1e9      	bne.n	108c0 <__kernel_rem_pio2+0xb8>
   108ec:	465e      	mov	r6, fp
   108ee:	3608      	adds	r6, #8
   108f0:	2001      	movs	r0, #1
   108f2:	46b3      	mov	fp, r6
   108f4:	4482      	add	sl, r0
   108f6:	3e08      	subs	r6, #8
   108f8:	c630      	stmia	r6!, {r4, r5}
   108fa:	45ca      	cmp	sl, r9
   108fc:	d1d3      	bne.n	108a6 <__kernel_rem_pio2+0x9e>
   108fe:	9c07      	ldr	r4, [sp, #28]
   10900:	00a5      	lsls	r5, r4, #2
   10902:	9502      	str	r5, [sp, #8]
   10904:	46a3      	mov	fp, r4
   10906:	465e      	mov	r6, fp
   10908:	00f2      	lsls	r2, r6, #3
   1090a:	a811      	add	r0, sp, #68	; 0x44
   1090c:	1813      	adds	r3, r2, r0
   1090e:	4659      	mov	r1, fp
   10910:	681e      	ldr	r6, [r3, #0]
   10912:	685f      	ldr	r7, [r3, #4]
   10914:	2900      	cmp	r1, #0
   10916:	dd34      	ble.n	10982 <__kernel_rem_pio2+0x17a>
   10918:	1c13      	adds	r3, r2, #0
   1091a:	2489      	movs	r4, #137	; 0x89
   1091c:	3b08      	subs	r3, #8
   1091e:	00a4      	lsls	r4, r4, #2
   10920:	18c2      	adds	r2, r0, r3
   10922:	446c      	add	r4, sp
   10924:	2300      	movs	r3, #0
   10926:	4690      	mov	r8, r2
   10928:	469a      	mov	sl, r3
   1092a:	46a1      	mov	r9, r4
   1092c:	4a95      	ldr	r2, [pc, #596]	; (10b84 <__kernel_rem_pio2+0x37c>)
   1092e:	4b96      	ldr	r3, [pc, #600]	; (10b88 <__kernel_rem_pio2+0x380>)
   10930:	1c30      	adds	r0, r6, #0
   10932:	1c39      	adds	r1, r7, #0
   10934:	f001 fe0c 	bl	12550 <____muldf3_from_thumb>
   10938:	f001 fe1a 	bl	12570 <____fixdfsi_from_thumb>
   1093c:	f001 fde4 	bl	12508 <____floatsidf_from_thumb>
   10940:	4a92      	ldr	r2, [pc, #584]	; (10b8c <__kernel_rem_pio2+0x384>)
   10942:	4b93      	ldr	r3, [pc, #588]	; (10b90 <__kernel_rem_pio2+0x388>)
   10944:	1c04      	adds	r4, r0, #0
   10946:	1c0d      	adds	r5, r1, #0
   10948:	f001 fe02 	bl	12550 <____muldf3_from_thumb>
   1094c:	1c32      	adds	r2, r6, #0
   1094e:	1c3b      	adds	r3, r7, #0
   10950:	f001 fe06 	bl	12560 <____adddf3_from_thumb>
   10954:	f001 fe0c 	bl	12570 <____fixdfsi_from_thumb>
   10958:	464e      	mov	r6, r9
   1095a:	3604      	adds	r6, #4
   1095c:	46b1      	mov	r9, r6
   1095e:	3e04      	subs	r6, #4
   10960:	c601      	stmia	r6!, {r0}
   10962:	1c20      	adds	r0, r4, #0
   10964:	4644      	mov	r4, r8
   10966:	1c29      	adds	r1, r5, #0
   10968:	6822      	ldr	r2, [r4, #0]
   1096a:	6863      	ldr	r3, [r4, #4]
   1096c:	f001 fdf8 	bl	12560 <____adddf3_from_thumb>
   10970:	2501      	movs	r5, #1
   10972:	1c06      	adds	r6, r0, #0
   10974:	2008      	movs	r0, #8
   10976:	4240      	negs	r0, r0
   10978:	44aa      	add	sl, r5
   1097a:	1c0f      	adds	r7, r1, #0
   1097c:	4480      	add	r8, r0
   1097e:	45d3      	cmp	fp, sl
   10980:	d1d4      	bne.n	1092c <__kernel_rem_pio2+0x124>
   10982:	9a09      	ldr	r2, [sp, #36]	; 0x24
   10984:	1c30      	adds	r0, r6, #0
   10986:	1c39      	adds	r1, r7, #0
   10988:	f001 fbb8 	bl	120fc <scalbn>
   1098c:	4a81      	ldr	r2, [pc, #516]	; (10b94 <__kernel_rem_pio2+0x38c>)
   1098e:	4b82      	ldr	r3, [pc, #520]	; (10b98 <__kernel_rem_pio2+0x390>)
   10990:	1c04      	adds	r4, r0, #0
   10992:	1c0d      	adds	r5, r1, #0
   10994:	f001 fddc 	bl	12550 <____muldf3_from_thumb>
   10998:	f001 faea 	bl	11f70 <floor>
   1099c:	4a7f      	ldr	r2, [pc, #508]	; (10b9c <__kernel_rem_pio2+0x394>)
   1099e:	4b80      	ldr	r3, [pc, #512]	; (10ba0 <__kernel_rem_pio2+0x398>)
   109a0:	f001 fdd6 	bl	12550 <____muldf3_from_thumb>
   109a4:	1c02      	adds	r2, r0, #0
   109a6:	1c0b      	adds	r3, r1, #0
   109a8:	1c20      	adds	r0, r4, #0
   109aa:	1c29      	adds	r1, r5, #0
   109ac:	f001 fdd8 	bl	12560 <____adddf3_from_thumb>
   109b0:	1c0d      	adds	r5, r1, #0
   109b2:	1c04      	adds	r4, r0, #0
   109b4:	f001 fddc 	bl	12570 <____fixdfsi_from_thumb>
   109b8:	9008      	str	r0, [sp, #32]
   109ba:	f001 fda5 	bl	12508 <____floatsidf_from_thumb>
   109be:	1c02      	adds	r2, r0, #0
   109c0:	1c0b      	adds	r3, r1, #0
   109c2:	1c20      	adds	r0, r4, #0
   109c4:	1c29      	adds	r1, r5, #0
   109c6:	f001 fdcf 	bl	12568 <____subdf3_from_thumb>
   109ca:	1c0d      	adds	r5, r1, #0
   109cc:	9909      	ldr	r1, [sp, #36]	; 0x24
   109ce:	1c04      	adds	r4, r0, #0
   109d0:	2900      	cmp	r1, #0
   109d2:	dc00      	bgt.n	109d6 <__kernel_rem_pio2+0x1ce>
   109d4:	e106      	b.n	10be4 <__kernel_rem_pio2+0x3dc>
   109d6:	4658      	mov	r0, fp
   109d8:	3801      	subs	r0, #1
   109da:	2389      	movs	r3, #137	; 0x89
   109dc:	0080      	lsls	r0, r0, #2
   109de:	009b      	lsls	r3, r3, #2
   109e0:	181b      	adds	r3, r3, r0
   109e2:	466a      	mov	r2, sp
   109e4:	5899      	ldr	r1, [r3, r2]
   109e6:	9e09      	ldr	r6, [sp, #36]	; 0x24
   109e8:	2218      	movs	r2, #24
   109ea:	1b92      	subs	r2, r2, r6
   109ec:	1c0b      	adds	r3, r1, #0
   109ee:	9e08      	ldr	r6, [sp, #32]
   109f0:	4113      	asrs	r3, r2
   109f2:	18f6      	adds	r6, r6, r3
   109f4:	4093      	lsls	r3, r2
   109f6:	1ac9      	subs	r1, r1, r3
   109f8:	2389      	movs	r3, #137	; 0x89
   109fa:	009b      	lsls	r3, r3, #2
   109fc:	181b      	adds	r3, r3, r0
   109fe:	9608      	str	r6, [sp, #32]
   10a00:	466a      	mov	r2, sp
   10a02:	9e09      	ldr	r6, [sp, #36]	; 0x24
   10a04:	5099      	str	r1, [r3, r2]
   10a06:	2317      	movs	r3, #23
   10a08:	1b9b      	subs	r3, r3, r6
   10a0a:	4119      	asrs	r1, r3
   10a0c:	910a      	str	r1, [sp, #40]	; 0x28
   10a0e:	980a      	ldr	r0, [sp, #40]	; 0x28
   10a10:	2800      	cmp	r0, #0
   10a12:	dd2c      	ble.n	10a6e <__kernel_rem_pio2+0x266>
   10a14:	9908      	ldr	r1, [sp, #32]
   10a16:	465a      	mov	r2, fp
   10a18:	3101      	adds	r1, #1
   10a1a:	9108      	str	r1, [sp, #32]
   10a1c:	2a00      	cmp	r2, #0
   10a1e:	dc00      	bgt.n	10a22 <__kernel_rem_pio2+0x21a>
   10a20:	e1f8      	b.n	10e14 <__kernel_rem_pio2+0x60c>
   10a22:	2080      	movs	r0, #128	; 0x80
   10a24:	4e5f      	ldr	r6, [pc, #380]	; (10ba4 <__kernel_rem_pio2+0x39c>)
   10a26:	2700      	movs	r7, #0
   10a28:	2100      	movs	r1, #0
   10a2a:	aa89      	add	r2, sp, #548	; 0x224
   10a2c:	0440      	lsls	r0, r0, #17
   10a2e:	e008      	b.n	10a42 <__kernel_rem_pio2+0x23a>
   10a30:	2b00      	cmp	r3, #0
   10a32:	d002      	beq.n	10a3a <__kernel_rem_pio2+0x232>
   10a34:	1ac3      	subs	r3, r0, r3
   10a36:	6013      	str	r3, [r2, #0]
   10a38:	2701      	movs	r7, #1
   10a3a:	3101      	adds	r1, #1
   10a3c:	3204      	adds	r2, #4
   10a3e:	458b      	cmp	fp, r1
   10a40:	d008      	beq.n	10a54 <__kernel_rem_pio2+0x24c>
   10a42:	6813      	ldr	r3, [r2, #0]
   10a44:	2f00      	cmp	r7, #0
   10a46:	d0f3      	beq.n	10a30 <__kernel_rem_pio2+0x228>
   10a48:	1af3      	subs	r3, r6, r3
   10a4a:	3101      	adds	r1, #1
   10a4c:	6013      	str	r3, [r2, #0]
   10a4e:	3204      	adds	r2, #4
   10a50:	458b      	cmp	fp, r1
   10a52:	d1f6      	bne.n	10a42 <__kernel_rem_pio2+0x23a>
   10a54:	9b09      	ldr	r3, [sp, #36]	; 0x24
   10a56:	2b00      	cmp	r3, #0
   10a58:	dd05      	ble.n	10a66 <__kernel_rem_pio2+0x25e>
   10a5a:	2b01      	cmp	r3, #1
   10a5c:	d100      	bne.n	10a60 <__kernel_rem_pio2+0x258>
   10a5e:	e0cd      	b.n	10bfc <__kernel_rem_pio2+0x3f4>
   10a60:	2b02      	cmp	r3, #2
   10a62:	d100      	bne.n	10a66 <__kernel_rem_pio2+0x25e>
   10a64:	e0d6      	b.n	10c14 <__kernel_rem_pio2+0x40c>
   10a66:	9a0a      	ldr	r2, [sp, #40]	; 0x28
   10a68:	2a02      	cmp	r2, #2
   10a6a:	d100      	bne.n	10a6e <__kernel_rem_pio2+0x266>
   10a6c:	e0a1      	b.n	10bb2 <__kernel_rem_pio2+0x3aa>
   10a6e:	1c20      	adds	r0, r4, #0
   10a70:	1c29      	adds	r1, r5, #0
   10a72:	4a42      	ldr	r2, [pc, #264]	; (10b7c <__kernel_rem_pio2+0x374>)
   10a74:	4b42      	ldr	r3, [pc, #264]	; (10b80 <__kernel_rem_pio2+0x378>)
   10a76:	f001 fd53 	bl	12520 <____eqdf2_from_thumb>
   10a7a:	2800      	cmp	r0, #0
   10a7c:	d000      	beq.n	10a80 <__kernel_rem_pio2+0x278>
   10a7e:	e0ee      	b.n	10c5e <__kernel_rem_pio2+0x456>
   10a80:	465c      	mov	r4, fp
   10a82:	9b07      	ldr	r3, [sp, #28]
   10a84:	3c01      	subs	r4, #1
   10a86:	42a3      	cmp	r3, r4
   10a88:	dc0d      	bgt.n	10aa6 <__kernel_rem_pio2+0x29e>
   10a8a:	00a5      	lsls	r5, r4, #2
   10a8c:	ae89      	add	r6, sp, #548	; 0x224
   10a8e:	1971      	adds	r1, r6, r5
   10a90:	1c22      	adds	r2, r4, #0
   10a92:	680b      	ldr	r3, [r1, #0]
   10a94:	4318      	orrs	r0, r3
   10a96:	9b07      	ldr	r3, [sp, #28]
   10a98:	3a01      	subs	r2, #1
   10a9a:	3904      	subs	r1, #4
   10a9c:	4293      	cmp	r3, r2
   10a9e:	ddf8      	ble.n	10a92 <__kernel_rem_pio2+0x28a>
   10aa0:	2800      	cmp	r0, #0
   10aa2:	d000      	beq.n	10aa6 <__kernel_rem_pio2+0x29e>
   10aa4:	e0e7      	b.n	10c76 <__kernel_rem_pio2+0x46e>
   10aa6:	9c02      	ldr	r4, [sp, #8]
   10aa8:	ad89      	add	r5, sp, #548	; 0x224
   10aaa:	1963      	adds	r3, r4, r5
   10aac:	3b04      	subs	r3, #4
   10aae:	681b      	ldr	r3, [r3, #0]
   10ab0:	2b00      	cmp	r3, #0
   10ab2:	d000      	beq.n	10ab6 <__kernel_rem_pio2+0x2ae>
   10ab4:	e0c6      	b.n	10c44 <__kernel_rem_pio2+0x43c>
   10ab6:	9b02      	ldr	r3, [sp, #8]
   10ab8:	ae89      	add	r6, sp, #548	; 0x224
   10aba:	3b08      	subs	r3, #8
   10abc:	18f2      	adds	r2, r6, r3
   10abe:	2101      	movs	r1, #1
   10ac0:	6813      	ldr	r3, [r2, #0]
   10ac2:	3101      	adds	r1, #1
   10ac4:	3a04      	subs	r2, #4
   10ac6:	2b00      	cmp	r3, #0
   10ac8:	d0fa      	beq.n	10ac0 <__kernel_rem_pio2+0x2b8>
   10aca:	2001      	movs	r0, #1
   10acc:	4458      	add	r0, fp
   10ace:	465a      	mov	r2, fp
   10ad0:	4680      	mov	r8, r0
   10ad2:	1857      	adds	r7, r2, r1
   10ad4:	45b8      	cmp	r8, r7
   10ad6:	dd01      	ble.n	10adc <__kernel_rem_pio2+0x2d4>
   10ad8:	46bb      	mov	fp, r7
   10ada:	e714      	b.n	10906 <__kernel_rem_pio2+0xfe>
   10adc:	9b10      	ldr	r3, [sp, #64]	; 0x40
   10ade:	9ca7      	ldr	r4, [sp, #668]	; 0x29c
   10ae0:	445b      	add	r3, fp
   10ae2:	009b      	lsls	r3, r3, #2
   10ae4:	9a03      	ldr	r2, [sp, #12]
   10ae6:	18e3      	adds	r3, r4, r3
   10ae8:	445a      	add	r2, fp
   10aea:	3304      	adds	r3, #4
   10aec:	930b      	str	r3, [sp, #44]	; 0x2c
   10aee:	ad61      	add	r5, sp, #388	; 0x184
   10af0:	00d3      	lsls	r3, r2, #3
   10af2:	18ed      	adds	r5, r5, r3
   10af4:	ae11      	add	r6, sp, #68	; 0x44
   10af6:	00c3      	lsls	r3, r0, #3
   10af8:	18f6      	adds	r6, r6, r3
   10afa:	46a9      	mov	r9, r5
   10afc:	46b3      	mov	fp, r6
   10afe:	4692      	mov	sl, r2
   10b00:	990b      	ldr	r1, [sp, #44]	; 0x2c
   10b02:	6808      	ldr	r0, [r1, #0]
   10b04:	f001 fd00 	bl	12508 <____floatsidf_from_thumb>
   10b08:	9b06      	ldr	r3, [sp, #24]
   10b0a:	464a      	mov	r2, r9
   10b0c:	6010      	str	r0, [r2, #0]
   10b0e:	6051      	str	r1, [r2, #4]
   10b10:	2b00      	cmp	r3, #0
   10b12:	db49      	blt.n	10ba8 <__kernel_rem_pio2+0x3a0>
   10b14:	4819      	ldr	r0, [pc, #100]	; (10b7c <__kernel_rem_pio2+0x374>)
   10b16:	491a      	ldr	r1, [pc, #104]	; (10b80 <__kernel_rem_pio2+0x378>)
   10b18:	4655      	mov	r5, sl
   10b1a:	900c      	str	r0, [sp, #48]	; 0x30
   10b1c:	910d      	str	r1, [sp, #52]	; 0x34
   10b1e:	ae61      	add	r6, sp, #388	; 0x184
   10b20:	00eb      	lsls	r3, r5, #3
   10b22:	9c05      	ldr	r4, [sp, #20]
   10b24:	18f5      	adds	r5, r6, r3
   10b26:	2600      	movs	r6, #0
   10b28:	682a      	ldr	r2, [r5, #0]
   10b2a:	686b      	ldr	r3, [r5, #4]
   10b2c:	cc03      	ldmia	r4!, {r0, r1}
   10b2e:	f001 fd0f 	bl	12550 <____muldf3_from_thumb>
   10b32:	1c02      	adds	r2, r0, #0
   10b34:	1c0b      	adds	r3, r1, #0
   10b36:	980c      	ldr	r0, [sp, #48]	; 0x30
   10b38:	990d      	ldr	r1, [sp, #52]	; 0x34
   10b3a:	f001 fd11 	bl	12560 <____adddf3_from_thumb>
   10b3e:	900c      	str	r0, [sp, #48]	; 0x30
   10b40:	910d      	str	r1, [sp, #52]	; 0x34
   10b42:	9903      	ldr	r1, [sp, #12]
   10b44:	3601      	adds	r6, #1
   10b46:	3d08      	subs	r5, #8
   10b48:	42b1      	cmp	r1, r6
   10b4a:	d1ed      	bne.n	10b28 <__kernel_rem_pio2+0x320>
   10b4c:	465c      	mov	r4, fp
   10b4e:	9e0b      	ldr	r6, [sp, #44]	; 0x2c
   10b50:	3408      	adds	r4, #8
   10b52:	2501      	movs	r5, #1
   10b54:	9a0c      	ldr	r2, [sp, #48]	; 0x30
   10b56:	9b0d      	ldr	r3, [sp, #52]	; 0x34
   10b58:	46a3      	mov	fp, r4
   10b5a:	3604      	adds	r6, #4
   10b5c:	3c08      	subs	r4, #8
   10b5e:	2008      	movs	r0, #8
   10b60:	44a8      	add	r8, r5
   10b62:	c40c      	stmia	r4!, {r2, r3}
   10b64:	960b      	str	r6, [sp, #44]	; 0x2c
   10b66:	4481      	add	r9, r0
   10b68:	44aa      	add	sl, r5
   10b6a:	45b8      	cmp	r8, r7
   10b6c:	ddc8      	ble.n	10b00 <__kernel_rem_pio2+0x2f8>
   10b6e:	46bb      	mov	fp, r7
   10b70:	e6c9      	b.n	10906 <__kernel_rem_pio2+0xfe>
   10b72:	46c0      	nop			; (mov r8, r8)
   10b74:	fffffd8c 	.word	0xfffffd8c
   10b78:	00012bb0 	.word	0x00012bb0
	...
   10b84:	3e700000 	.word	0x3e700000
   10b88:	00000000 	.word	0x00000000
   10b8c:	c1700000 	.word	0xc1700000
   10b90:	00000000 	.word	0x00000000
   10b94:	3fc00000 	.word	0x3fc00000
   10b98:	00000000 	.word	0x00000000
   10b9c:	c0200000 	.word	0xc0200000
   10ba0:	00000000 	.word	0x00000000
   10ba4:	00ffffff 	.word	0x00ffffff
   10ba8:	4d9e      	ldr	r5, [pc, #632]	; (10e24 <__kernel_rem_pio2+0x61c>)
   10baa:	4c9d      	ldr	r4, [pc, #628]	; (10e20 <__kernel_rem_pio2+0x618>)
   10bac:	940c      	str	r4, [sp, #48]	; 0x30
   10bae:	950d      	str	r5, [sp, #52]	; 0x34
   10bb0:	e7cc      	b.n	10b4c <__kernel_rem_pio2+0x344>
   10bb2:	1c22      	adds	r2, r4, #0
   10bb4:	1c2b      	adds	r3, r5, #0
   10bb6:	489c      	ldr	r0, [pc, #624]	; (10e28 <__kernel_rem_pio2+0x620>)
   10bb8:	499c      	ldr	r1, [pc, #624]	; (10e2c <__kernel_rem_pio2+0x624>)
   10bba:	f001 fcd5 	bl	12568 <____subdf3_from_thumb>
   10bbe:	1c04      	adds	r4, r0, #0
   10bc0:	1c0d      	adds	r5, r1, #0
   10bc2:	2f00      	cmp	r7, #0
   10bc4:	d100      	bne.n	10bc8 <__kernel_rem_pio2+0x3c0>
   10bc6:	e752      	b.n	10a6e <__kernel_rem_pio2+0x266>
   10bc8:	9a09      	ldr	r2, [sp, #36]	; 0x24
   10bca:	4897      	ldr	r0, [pc, #604]	; (10e28 <__kernel_rem_pio2+0x620>)
   10bcc:	4997      	ldr	r1, [pc, #604]	; (10e2c <__kernel_rem_pio2+0x624>)
   10bce:	f001 fa95 	bl	120fc <scalbn>
   10bd2:	1c02      	adds	r2, r0, #0
   10bd4:	1c0b      	adds	r3, r1, #0
   10bd6:	1c20      	adds	r0, r4, #0
   10bd8:	1c29      	adds	r1, r5, #0
   10bda:	f001 fcc5 	bl	12568 <____subdf3_from_thumb>
   10bde:	1c04      	adds	r4, r0, #0
   10be0:	1c0d      	adds	r5, r1, #0
   10be2:	e744      	b.n	10a6e <__kernel_rem_pio2+0x266>
   10be4:	9809      	ldr	r0, [sp, #36]	; 0x24
   10be6:	2800      	cmp	r0, #0
   10be8:	d120      	bne.n	10c2c <__kernel_rem_pio2+0x424>
   10bea:	4659      	mov	r1, fp
   10bec:	008b      	lsls	r3, r1, #2
   10bee:	aa89      	add	r2, sp, #548	; 0x224
   10bf0:	189b      	adds	r3, r3, r2
   10bf2:	3b04      	subs	r3, #4
   10bf4:	681b      	ldr	r3, [r3, #0]
   10bf6:	15db      	asrs	r3, r3, #23
   10bf8:	930a      	str	r3, [sp, #40]	; 0x28
   10bfa:	e708      	b.n	10a0e <__kernel_rem_pio2+0x206>
   10bfc:	465b      	mov	r3, fp
   10bfe:	3b01      	subs	r3, #1
   10c00:	2089      	movs	r0, #137	; 0x89
   10c02:	009b      	lsls	r3, r3, #2
   10c04:	0080      	lsls	r0, r0, #2
   10c06:	18c0      	adds	r0, r0, r3
   10c08:	466e      	mov	r6, sp
   10c0a:	5982      	ldr	r2, [r0, r6]
   10c0c:	4988      	ldr	r1, [pc, #544]	; (10e30 <__kernel_rem_pio2+0x628>)
   10c0e:	400a      	ands	r2, r1
   10c10:	5182      	str	r2, [r0, r6]
   10c12:	e728      	b.n	10a66 <__kernel_rem_pio2+0x25e>
   10c14:	465b      	mov	r3, fp
   10c16:	3b01      	subs	r3, #1
   10c18:	2089      	movs	r0, #137	; 0x89
   10c1a:	009b      	lsls	r3, r3, #2
   10c1c:	0080      	lsls	r0, r0, #2
   10c1e:	18c0      	adds	r0, r0, r3
   10c20:	466e      	mov	r6, sp
   10c22:	5982      	ldr	r2, [r0, r6]
   10c24:	4983      	ldr	r1, [pc, #524]	; (10e34 <__kernel_rem_pio2+0x62c>)
   10c26:	400a      	ands	r2, r1
   10c28:	5182      	str	r2, [r0, r6]
   10c2a:	e71c      	b.n	10a66 <__kernel_rem_pio2+0x25e>
   10c2c:	1c20      	adds	r0, r4, #0
   10c2e:	1c29      	adds	r1, r5, #0
   10c30:	4a81      	ldr	r2, [pc, #516]	; (10e38 <__kernel_rem_pio2+0x630>)
   10c32:	4b82      	ldr	r3, [pc, #520]	; (10e3c <__kernel_rem_pio2+0x634>)
   10c34:	f001 fc7c 	bl	12530 <____gedf2_from_thumb>
   10c38:	2800      	cmp	r0, #0
   10c3a:	db00      	blt.n	10c3e <__kernel_rem_pio2+0x436>
   10c3c:	e0ec      	b.n	10e18 <__kernel_rem_pio2+0x610>
   10c3e:	2300      	movs	r3, #0
   10c40:	930a      	str	r3, [sp, #40]	; 0x28
   10c42:	e714      	b.n	10a6e <__kernel_rem_pio2+0x266>
   10c44:	2001      	movs	r0, #1
   10c46:	2101      	movs	r1, #1
   10c48:	4458      	add	r0, fp
   10c4a:	465a      	mov	r2, fp
   10c4c:	4680      	mov	r8, r0
   10c4e:	1857      	adds	r7, r2, r1
   10c50:	45b8      	cmp	r8, r7
   10c52:	dd00      	ble.n	10c56 <__kernel_rem_pio2+0x44e>
   10c54:	e740      	b.n	10ad8 <__kernel_rem_pio2+0x2d0>
   10c56:	e741      	b.n	10adc <__kernel_rem_pio2+0x2d4>
   10c58:	4d72      	ldr	r5, [pc, #456]	; (10e24 <__kernel_rem_pio2+0x61c>)
   10c5a:	4c71      	ldr	r4, [pc, #452]	; (10e20 <__kernel_rem_pio2+0x618>)
   10c5c:	e646      	b.n	108ec <__kernel_rem_pio2+0xe4>
   10c5e:	1c20      	adds	r0, r4, #0
   10c60:	1c29      	adds	r1, r5, #0
   10c62:	4b70      	ldr	r3, [pc, #448]	; (10e24 <__kernel_rem_pio2+0x61c>)
   10c64:	4a6e      	ldr	r2, [pc, #440]	; (10e20 <__kernel_rem_pio2+0x618>)
   10c66:	f001 fc5b 	bl	12520 <____eqdf2_from_thumb>
   10c6a:	2800      	cmp	r0, #0
   10c6c:	d000      	beq.n	10c70 <__kernel_rem_pio2+0x468>
   10c6e:	e182      	b.n	10f76 <__kernel_rem_pio2+0x76e>
   10c70:	465c      	mov	r4, fp
   10c72:	3c01      	subs	r4, #1
   10c74:	00a5      	lsls	r5, r4, #2
   10c76:	2689      	movs	r6, #137	; 0x89
   10c78:	00b6      	lsls	r6, r6, #2
   10c7a:	9909      	ldr	r1, [sp, #36]	; 0x24
   10c7c:	1976      	adds	r6, r6, r5
   10c7e:	466a      	mov	r2, sp
   10c80:	58b3      	ldr	r3, [r6, r2]
   10c82:	3918      	subs	r1, #24
   10c84:	9109      	str	r1, [sp, #36]	; 0x24
   10c86:	2b00      	cmp	r3, #0
   10c88:	d000      	beq.n	10c8c <__kernel_rem_pio2+0x484>
   10c8a:	e1ce      	b.n	1102a <__kernel_rem_pio2+0x822>
   10c8c:	1f2b      	subs	r3, r5, #4
   10c8e:	a889      	add	r0, sp, #548	; 0x224
   10c90:	18c2      	adds	r2, r0, r3
   10c92:	46a3      	mov	fp, r4
   10c94:	9b09      	ldr	r3, [sp, #36]	; 0x24
   10c96:	3b18      	subs	r3, #24
   10c98:	2101      	movs	r1, #1
   10c9a:	9309      	str	r3, [sp, #36]	; 0x24
   10c9c:	6813      	ldr	r3, [r2, #0]
   10c9e:	4249      	negs	r1, r1
   10ca0:	448b      	add	fp, r1
   10ca2:	3a04      	subs	r2, #4
   10ca4:	2b00      	cmp	r3, #0
   10ca6:	d0f5      	beq.n	10c94 <__kernel_rem_pio2+0x48c>
   10ca8:	485f      	ldr	r0, [pc, #380]	; (10e28 <__kernel_rem_pio2+0x620>)
   10caa:	4960      	ldr	r1, [pc, #384]	; (10e2c <__kernel_rem_pio2+0x624>)
   10cac:	9a09      	ldr	r2, [sp, #36]	; 0x24
   10cae:	f001 fa25 	bl	120fc <scalbn>
   10cb2:	1c04      	adds	r4, r0, #0
   10cb4:	4658      	mov	r0, fp
   10cb6:	1c0d      	adds	r5, r1, #0
   10cb8:	2800      	cmp	r0, #0
   10cba:	db5c      	blt.n	10d76 <__kernel_rem_pio2+0x56e>
   10cbc:	0083      	lsls	r3, r0, #2
   10cbe:	a989      	add	r1, sp, #548	; 0x224
   10cc0:	18c9      	adds	r1, r1, r3
   10cc2:	aa11      	add	r2, sp, #68	; 0x44
   10cc4:	00c3      	lsls	r3, r0, #3
   10cc6:	4688      	mov	r8, r1
   10cc8:	18d7      	adds	r7, r2, r3
   10cca:	465e      	mov	r6, fp
   10ccc:	4643      	mov	r3, r8
   10cce:	6818      	ldr	r0, [r3, #0]
   10cd0:	f001 fc1a 	bl	12508 <____floatsidf_from_thumb>
   10cd4:	1c22      	adds	r2, r4, #0
   10cd6:	1c2b      	adds	r3, r5, #0
   10cd8:	f001 fc3a 	bl	12550 <____muldf3_from_thumb>
   10cdc:	4a58      	ldr	r2, [pc, #352]	; (10e40 <__kernel_rem_pio2+0x638>)
   10cde:	4b59      	ldr	r3, [pc, #356]	; (10e44 <__kernel_rem_pio2+0x63c>)
   10ce0:	6038      	str	r0, [r7, #0]
   10ce2:	6079      	str	r1, [r7, #4]
   10ce4:	1c20      	adds	r0, r4, #0
   10ce6:	1c29      	adds	r1, r5, #0
   10ce8:	f001 fc32 	bl	12550 <____muldf3_from_thumb>
   10cec:	1c04      	adds	r4, r0, #0
   10cee:	2004      	movs	r0, #4
   10cf0:	4240      	negs	r0, r0
   10cf2:	1c0d      	adds	r5, r1, #0
   10cf4:	4480      	add	r8, r0
   10cf6:	3f08      	subs	r7, #8
   10cf8:	3e01      	subs	r6, #1
   10cfa:	d2e7      	bcs.n	10ccc <__kernel_rem_pio2+0x4c4>
   10cfc:	2100      	movs	r1, #0
   10cfe:	46d9      	mov	r9, fp
   10d00:	468a      	mov	sl, r1
   10d02:	9807      	ldr	r0, [sp, #28]
   10d04:	2800      	cmp	r0, #0
   10d06:	da00      	bge.n	10d0a <__kernel_rem_pio2+0x502>
   10d08:	e123      	b.n	10f52 <__kernel_rem_pio2+0x74a>
   10d0a:	4652      	mov	r2, sl
   10d0c:	2a00      	cmp	r2, #0
   10d0e:	da00      	bge.n	10d12 <__kernel_rem_pio2+0x50a>
   10d10:	e124      	b.n	10f5c <__kernel_rem_pio2+0x754>
   10d12:	464c      	mov	r4, r9
   10d14:	00e3      	lsls	r3, r4, #3
   10d16:	ad11      	add	r5, sp, #68	; 0x44
   10d18:	18ed      	adds	r5, r5, r3
   10d1a:	4942      	ldr	r1, [pc, #264]	; (10e24 <__kernel_rem_pio2+0x61c>)
   10d1c:	4840      	ldr	r0, [pc, #256]	; (10e20 <__kernel_rem_pio2+0x618>)
   10d1e:	4f4a      	ldr	r7, [pc, #296]	; (10e48 <__kernel_rem_pio2+0x640>)
   10d20:	46a8      	mov	r8, r5
   10d22:	2400      	movs	r4, #0
   10d24:	9000      	str	r0, [sp, #0]
   10d26:	9101      	str	r1, [sp, #4]
   10d28:	e004      	b.n	10d34 <__kernel_rem_pio2+0x52c>
   10d2a:	2008      	movs	r0, #8
   10d2c:	3708      	adds	r7, #8
   10d2e:	4480      	add	r8, r0
   10d30:	4554      	cmp	r4, sl
   10d32:	dc12      	bgt.n	10d5a <__kernel_rem_pio2+0x552>
   10d34:	4645      	mov	r5, r8
   10d36:	682a      	ldr	r2, [r5, #0]
   10d38:	686b      	ldr	r3, [r5, #4]
   10d3a:	6838      	ldr	r0, [r7, #0]
   10d3c:	6879      	ldr	r1, [r7, #4]
   10d3e:	f001 fc07 	bl	12550 <____muldf3_from_thumb>
   10d42:	1c02      	adds	r2, r0, #0
   10d44:	1c0b      	adds	r3, r1, #0
   10d46:	9800      	ldr	r0, [sp, #0]
   10d48:	9901      	ldr	r1, [sp, #4]
   10d4a:	f001 fc09 	bl	12560 <____adddf3_from_thumb>
   10d4e:	9e07      	ldr	r6, [sp, #28]
   10d50:	3401      	adds	r4, #1
   10d52:	9000      	str	r0, [sp, #0]
   10d54:	9101      	str	r1, [sp, #4]
   10d56:	42a6      	cmp	r6, r4
   10d58:	dae7      	bge.n	10d2a <__kernel_rem_pio2+0x522>
   10d5a:	4651      	mov	r1, sl
   10d5c:	9c00      	ldr	r4, [sp, #0]
   10d5e:	9d01      	ldr	r5, [sp, #4]
   10d60:	00cb      	lsls	r3, r1, #3
   10d62:	aa39      	add	r2, sp, #228	; 0xe4
   10d64:	189b      	adds	r3, r3, r2
   10d66:	601c      	str	r4, [r3, #0]
   10d68:	605d      	str	r5, [r3, #4]
   10d6a:	464e      	mov	r6, r9
   10d6c:	2501      	movs	r5, #1
   10d6e:	44aa      	add	sl, r5
   10d70:	3e01      	subs	r6, #1
   10d72:	46b1      	mov	r9, r6
   10d74:	d2c5      	bcs.n	10d02 <__kernel_rem_pio2+0x4fa>
   10d76:	99a6      	ldr	r1, [sp, #664]	; 0x298
   10d78:	2902      	cmp	r1, #2
   10d7a:	dc67      	bgt.n	10e4c <__kernel_rem_pio2+0x644>
   10d7c:	2901      	cmp	r1, #1
   10d7e:	da00      	bge.n	10d82 <__kernel_rem_pio2+0x57a>
   10d80:	e138      	b.n	10ff4 <__kernel_rem_pio2+0x7ec>
   10d82:	465c      	mov	r4, fp
   10d84:	2c00      	cmp	r4, #0
   10d86:	da00      	bge.n	10d8a <__kernel_rem_pio2+0x582>
   10d88:	e173      	b.n	11072 <__kernel_rem_pio2+0x86a>
   10d8a:	4658      	mov	r0, fp
   10d8c:	00c3      	lsls	r3, r0, #3
   10d8e:	a939      	add	r1, sp, #228	; 0xe4
   10d90:	18cd      	adds	r5, r1, r3
   10d92:	4b24      	ldr	r3, [pc, #144]	; (10e24 <__kernel_rem_pio2+0x61c>)
   10d94:	4a22      	ldr	r2, [pc, #136]	; (10e20 <__kernel_rem_pio2+0x618>)
   10d96:	465c      	mov	r4, fp
   10d98:	1c10      	adds	r0, r2, #0
   10d9a:	1c19      	adds	r1, r3, #0
   10d9c:	682a      	ldr	r2, [r5, #0]
   10d9e:	686b      	ldr	r3, [r5, #4]
   10da0:	f001 fbde 	bl	12560 <____adddf3_from_thumb>
   10da4:	3d08      	subs	r5, #8
   10da6:	1c02      	adds	r2, r0, #0
   10da8:	1c0b      	adds	r3, r1, #0
   10daa:	3c01      	subs	r4, #1
   10dac:	d2f4      	bcs.n	10d98 <__kernel_rem_pio2+0x590>
   10dae:	9c0a      	ldr	r4, [sp, #40]	; 0x28
   10db0:	2c00      	cmp	r4, #0
   10db2:	d000      	beq.n	10db6 <__kernel_rem_pio2+0x5ae>
   10db4:	e0da      	b.n	10f6c <__kernel_rem_pio2+0x764>
   10db6:	1c10      	adds	r0, r2, #0
   10db8:	1c19      	adds	r1, r3, #0
   10dba:	9e04      	ldr	r6, [sp, #16]
   10dbc:	6030      	str	r0, [r6, #0]
   10dbe:	6071      	str	r1, [r6, #4]
   10dc0:	9839      	ldr	r0, [sp, #228]	; 0xe4
   10dc2:	993a      	ldr	r1, [sp, #232]	; 0xe8
   10dc4:	f001 fbd0 	bl	12568 <____subdf3_from_thumb>
   10dc8:	465a      	mov	r2, fp
   10dca:	2a00      	cmp	r2, #0
   10dcc:	dd0a      	ble.n	10de4 <__kernel_rem_pio2+0x5dc>
   10dce:	465e      	mov	r6, fp
   10dd0:	ac39      	add	r4, sp, #228	; 0xe4
   10dd2:	2501      	movs	r5, #1
   10dd4:	3601      	adds	r6, #1
   10dd6:	3408      	adds	r4, #8
   10dd8:	cc0c      	ldmia	r4!, {r2, r3}
   10dda:	3501      	adds	r5, #1
   10ddc:	f001 fbc0 	bl	12560 <____adddf3_from_thumb>
   10de0:	42ae      	cmp	r6, r5
   10de2:	d1f9      	bne.n	10dd8 <__kernel_rem_pio2+0x5d0>
   10de4:	9b0a      	ldr	r3, [sp, #40]	; 0x28
   10de6:	2b00      	cmp	r3, #0
   10de8:	d003      	beq.n	10df2 <__kernel_rem_pio2+0x5ea>
   10dea:	2580      	movs	r5, #128	; 0x80
   10dec:	062d      	lsls	r5, r5, #24
   10dee:	1943      	adds	r3, r0, r5
   10df0:	1c18      	adds	r0, r3, #0
   10df2:	9e04      	ldr	r6, [sp, #16]
   10df4:	60b0      	str	r0, [r6, #8]
   10df6:	60f1      	str	r1, [r6, #12]
   10df8:	9808      	ldr	r0, [sp, #32]
   10dfa:	2307      	movs	r3, #7
   10dfc:	4018      	ands	r0, r3
   10dfe:	239d      	movs	r3, #157	; 0x9d
   10e00:	009b      	lsls	r3, r3, #2
   10e02:	449d      	add	sp, r3
   10e04:	bc3c      	pop	{r2, r3, r4, r5}
   10e06:	4690      	mov	r8, r2
   10e08:	4699      	mov	r9, r3
   10e0a:	46a2      	mov	sl, r4
   10e0c:	46ab      	mov	fp, r5
   10e0e:	bcf0      	pop	{r4, r5, r6, r7}
   10e10:	bc02      	pop	{r1}
   10e12:	4708      	bx	r1
   10e14:	2700      	movs	r7, #0
   10e16:	e61d      	b.n	10a54 <__kernel_rem_pio2+0x24c>
   10e18:	2602      	movs	r6, #2
   10e1a:	960a      	str	r6, [sp, #40]	; 0x28
   10e1c:	e5fa      	b.n	10a14 <__kernel_rem_pio2+0x20c>
   10e1e:	46c0      	nop			; (mov r8, r8)
	...
   10e28:	3ff00000 	.word	0x3ff00000
   10e2c:	00000000 	.word	0x00000000
   10e30:	007fffff 	.word	0x007fffff
   10e34:	003fffff 	.word	0x003fffff
   10e38:	3fe00000 	.word	0x3fe00000
   10e3c:	00000000 	.word	0x00000000
   10e40:	3e700000 	.word	0x3e700000
   10e44:	00000000 	.word	0x00000000
   10e48:	00012bc0 	.word	0x00012bc0
   10e4c:	9aa6      	ldr	r2, [sp, #664]	; 0x298
   10e4e:	2a03      	cmp	r2, #3
   10e50:	d1d2      	bne.n	10df8 <__kernel_rem_pio2+0x5f0>
   10e52:	465d      	mov	r5, fp
   10e54:	2d00      	cmp	r5, #0
   10e56:	dd2c      	ble.n	10eb2 <__kernel_rem_pio2+0x6aa>
   10e58:	4658      	mov	r0, fp
   10e5a:	00c3      	lsls	r3, r0, #3
   10e5c:	3b08      	subs	r3, #8
   10e5e:	a939      	add	r1, sp, #228	; 0xe4
   10e60:	18c9      	adds	r1, r1, r3
   10e62:	4688      	mov	r8, r1
   10e64:	46da      	mov	sl, fp
   10e66:	4643      	mov	r3, r8
   10e68:	681c      	ldr	r4, [r3, #0]
   10e6a:	685d      	ldr	r5, [r3, #4]
   10e6c:	689e      	ldr	r6, [r3, #8]
   10e6e:	68df      	ldr	r7, [r3, #12]
   10e70:	2201      	movs	r2, #1
   10e72:	4252      	negs	r2, r2
   10e74:	4492      	add	sl, r2
   10e76:	1c20      	adds	r0, r4, #0
   10e78:	1c29      	adds	r1, r5, #0
   10e7a:	1c32      	adds	r2, r6, #0
   10e7c:	1c3b      	adds	r3, r7, #0
   10e7e:	f001 fb6f 	bl	12560 <____adddf3_from_thumb>
   10e82:	4642      	mov	r2, r8
   10e84:	6010      	str	r0, [r2, #0]
   10e86:	6051      	str	r1, [r2, #4]
   10e88:	1c20      	adds	r0, r4, #0
   10e8a:	6853      	ldr	r3, [r2, #4]
   10e8c:	6812      	ldr	r2, [r2, #0]
   10e8e:	1c29      	adds	r1, r5, #0
   10e90:	f001 fb6a 	bl	12568 <____subdf3_from_thumb>
   10e94:	1c0b      	adds	r3, r1, #0
   10e96:	1c02      	adds	r2, r0, #0
   10e98:	1c39      	adds	r1, r7, #0
   10e9a:	1c30      	adds	r0, r6, #0
   10e9c:	f001 fb60 	bl	12560 <____adddf3_from_thumb>
   10ea0:	2408      	movs	r4, #8
   10ea2:	4643      	mov	r3, r8
   10ea4:	4264      	negs	r4, r4
   10ea6:	4655      	mov	r5, sl
   10ea8:	6098      	str	r0, [r3, #8]
   10eaa:	60d9      	str	r1, [r3, #12]
   10eac:	44a0      	add	r8, r4
   10eae:	2d00      	cmp	r5, #0
   10eb0:	d1d9      	bne.n	10e66 <__kernel_rem_pio2+0x65e>
   10eb2:	465e      	mov	r6, fp
   10eb4:	2e01      	cmp	r6, #1
   10eb6:	dc00      	bgt.n	10eba <__kernel_rem_pio2+0x6b2>
   10eb8:	e0de      	b.n	11078 <__kernel_rem_pio2+0x870>
   10eba:	4658      	mov	r0, fp
   10ebc:	00c0      	lsls	r0, r0, #3
   10ebe:	1c03      	adds	r3, r0, #0
   10ec0:	3b08      	subs	r3, #8
   10ec2:	a939      	add	r1, sp, #228	; 0xe4
   10ec4:	18c9      	adds	r1, r1, r3
   10ec6:	4681      	mov	r9, r0
   10ec8:	4688      	mov	r8, r1
   10eca:	46da      	mov	sl, fp
   10ecc:	4643      	mov	r3, r8
   10ece:	681c      	ldr	r4, [r3, #0]
   10ed0:	685d      	ldr	r5, [r3, #4]
   10ed2:	689e      	ldr	r6, [r3, #8]
   10ed4:	68df      	ldr	r7, [r3, #12]
   10ed6:	2201      	movs	r2, #1
   10ed8:	4252      	negs	r2, r2
   10eda:	4492      	add	sl, r2
   10edc:	1c20      	adds	r0, r4, #0
   10ede:	1c29      	adds	r1, r5, #0
   10ee0:	1c32      	adds	r2, r6, #0
   10ee2:	1c3b      	adds	r3, r7, #0
   10ee4:	f001 fb3c 	bl	12560 <____adddf3_from_thumb>
   10ee8:	4642      	mov	r2, r8
   10eea:	6010      	str	r0, [r2, #0]
   10eec:	6051      	str	r1, [r2, #4]
   10eee:	1c20      	adds	r0, r4, #0
   10ef0:	6853      	ldr	r3, [r2, #4]
   10ef2:	6812      	ldr	r2, [r2, #0]
   10ef4:	1c29      	adds	r1, r5, #0
   10ef6:	f001 fb37 	bl	12568 <____subdf3_from_thumb>
   10efa:	1c0b      	adds	r3, r1, #0
   10efc:	1c02      	adds	r2, r0, #0
   10efe:	1c39      	adds	r1, r7, #0
   10f00:	1c30      	adds	r0, r6, #0
   10f02:	f001 fb2d 	bl	12560 <____adddf3_from_thumb>
   10f06:	2408      	movs	r4, #8
   10f08:	4643      	mov	r3, r8
   10f0a:	4264      	negs	r4, r4
   10f0c:	4655      	mov	r5, sl
   10f0e:	6098      	str	r0, [r3, #8]
   10f10:	60d9      	str	r1, [r3, #12]
   10f12:	44a0      	add	r8, r4
   10f14:	2d01      	cmp	r5, #1
   10f16:	d1d9      	bne.n	10ecc <__kernel_rem_pio2+0x6c4>
   10f18:	ad39      	add	r5, sp, #228	; 0xe4
   10f1a:	495b      	ldr	r1, [pc, #364]	; (11088 <__kernel_rem_pio2+0x880>)
   10f1c:	4859      	ldr	r0, [pc, #356]	; (11084 <__kernel_rem_pio2+0x87c>)
   10f1e:	444d      	add	r5, r9
   10f20:	465c      	mov	r4, fp
   10f22:	682a      	ldr	r2, [r5, #0]
   10f24:	686b      	ldr	r3, [r5, #4]
   10f26:	3c01      	subs	r4, #1
   10f28:	f001 fb1a 	bl	12560 <____adddf3_from_thumb>
   10f2c:	3d08      	subs	r5, #8
   10f2e:	2c01      	cmp	r4, #1
   10f30:	d1f7      	bne.n	10f22 <__kernel_rem_pio2+0x71a>
   10f32:	9e0a      	ldr	r6, [sp, #40]	; 0x28
   10f34:	2e00      	cmp	r6, #0
   10f36:	d000      	beq.n	10f3a <__kernel_rem_pio2+0x732>
   10f38:	e085      	b.n	11046 <__kernel_rem_pio2+0x83e>
   10f3a:	9b39      	ldr	r3, [sp, #228]	; 0xe4
   10f3c:	9c3a      	ldr	r4, [sp, #232]	; 0xe8
   10f3e:	9a04      	ldr	r2, [sp, #16]
   10f40:	6013      	str	r3, [r2, #0]
   10f42:	6054      	str	r4, [r2, #4]
   10f44:	9b3b      	ldr	r3, [sp, #236]	; 0xec
   10f46:	9c3c      	ldr	r4, [sp, #240]	; 0xf0
   10f48:	6110      	str	r0, [r2, #16]
   10f4a:	6151      	str	r1, [r2, #20]
   10f4c:	6093      	str	r3, [r2, #8]
   10f4e:	60d4      	str	r4, [r2, #12]
   10f50:	e752      	b.n	10df8 <__kernel_rem_pio2+0x5f0>
   10f52:	4a4d      	ldr	r2, [pc, #308]	; (11088 <__kernel_rem_pio2+0x880>)
   10f54:	494b      	ldr	r1, [pc, #300]	; (11084 <__kernel_rem_pio2+0x87c>)
   10f56:	9100      	str	r1, [sp, #0]
   10f58:	9201      	str	r2, [sp, #4]
   10f5a:	e6fe      	b.n	10d5a <__kernel_rem_pio2+0x552>
   10f5c:	4c4a      	ldr	r4, [pc, #296]	; (11088 <__kernel_rem_pio2+0x880>)
   10f5e:	4b49      	ldr	r3, [pc, #292]	; (11084 <__kernel_rem_pio2+0x87c>)
   10f60:	9300      	str	r3, [sp, #0]
   10f62:	9401      	str	r4, [sp, #4]
   10f64:	e6f9      	b.n	10d5a <__kernel_rem_pio2+0x552>
   10f66:	2200      	movs	r2, #0
   10f68:	9210      	str	r2, [sp, #64]	; 0x40
   10f6a:	e469      	b.n	10840 <__kernel_rem_pio2+0x38>
   10f6c:	2580      	movs	r5, #128	; 0x80
   10f6e:	062d      	lsls	r5, r5, #24
   10f70:	1950      	adds	r0, r2, r5
   10f72:	1c19      	adds	r1, r3, #0
   10f74:	e721      	b.n	10dba <__kernel_rem_pio2+0x5b2>
   10f76:	9e09      	ldr	r6, [sp, #36]	; 0x24
   10f78:	1c20      	adds	r0, r4, #0
   10f7a:	4272      	negs	r2, r6
   10f7c:	1c29      	adds	r1, r5, #0
   10f7e:	f001 f8bd 	bl	120fc <scalbn>
   10f82:	4a42      	ldr	r2, [pc, #264]	; (1108c <__kernel_rem_pio2+0x884>)
   10f84:	4b42      	ldr	r3, [pc, #264]	; (11090 <__kernel_rem_pio2+0x888>)
   10f86:	900e      	str	r0, [sp, #56]	; 0x38
   10f88:	910f      	str	r1, [sp, #60]	; 0x3c
   10f8a:	f001 fad1 	bl	12530 <____gedf2_from_thumb>
   10f8e:	2800      	cmp	r0, #0
   10f90:	db4d      	blt.n	1102e <__kernel_rem_pio2+0x826>
   10f92:	4a40      	ldr	r2, [pc, #256]	; (11094 <__kernel_rem_pio2+0x88c>)
   10f94:	4b40      	ldr	r3, [pc, #256]	; (11098 <__kernel_rem_pio2+0x890>)
   10f96:	980e      	ldr	r0, [sp, #56]	; 0x38
   10f98:	990f      	ldr	r1, [sp, #60]	; 0x3c
   10f9a:	f001 fad9 	bl	12550 <____muldf3_from_thumb>
   10f9e:	f001 fae7 	bl	12570 <____fixdfsi_from_thumb>
   10fa2:	f001 fab1 	bl	12508 <____floatsidf_from_thumb>
   10fa6:	1c05      	adds	r5, r0, #0
   10fa8:	4658      	mov	r0, fp
   10faa:	0084      	lsls	r4, r0, #2
   10fac:	4a3b      	ldr	r2, [pc, #236]	; (1109c <__kernel_rem_pio2+0x894>)
   10fae:	4b3c      	ldr	r3, [pc, #240]	; (110a0 <__kernel_rem_pio2+0x898>)
   10fb0:	1c28      	adds	r0, r5, #0
   10fb2:	1c0e      	adds	r6, r1, #0
   10fb4:	f001 facc 	bl	12550 <____muldf3_from_thumb>
   10fb8:	1c02      	adds	r2, r0, #0
   10fba:	1c0b      	adds	r3, r1, #0
   10fbc:	980e      	ldr	r0, [sp, #56]	; 0x38
   10fbe:	990f      	ldr	r1, [sp, #60]	; 0x3c
   10fc0:	f001 face 	bl	12560 <____adddf3_from_thumb>
   10fc4:	f001 fad4 	bl	12570 <____fixdfsi_from_thumb>
   10fc8:	2289      	movs	r2, #137	; 0x89
   10fca:	0092      	lsls	r2, r2, #2
   10fcc:	1912      	adds	r2, r2, r4
   10fce:	2301      	movs	r3, #1
   10fd0:	9c09      	ldr	r4, [sp, #36]	; 0x24
   10fd2:	4669      	mov	r1, sp
   10fd4:	449b      	add	fp, r3
   10fd6:	5050      	str	r0, [r2, r1]
   10fd8:	3418      	adds	r4, #24
   10fda:	4658      	mov	r0, fp
   10fdc:	9409      	str	r4, [sp, #36]	; 0x24
   10fde:	1c31      	adds	r1, r6, #0
   10fe0:	0084      	lsls	r4, r0, #2
   10fe2:	1c28      	adds	r0, r5, #0
   10fe4:	f001 fac4 	bl	12570 <____fixdfsi_from_thumb>
   10fe8:	2289      	movs	r2, #137	; 0x89
   10fea:	0092      	lsls	r2, r2, #2
   10fec:	1912      	adds	r2, r2, r4
   10fee:	4669      	mov	r1, sp
   10ff0:	5050      	str	r0, [r2, r1]
   10ff2:	e659      	b.n	10ca8 <__kernel_rem_pio2+0x4a0>
   10ff4:	2900      	cmp	r1, #0
   10ff6:	d000      	beq.n	10ffa <__kernel_rem_pio2+0x7f2>
   10ff8:	e6fe      	b.n	10df8 <__kernel_rem_pio2+0x5f0>
   10ffa:	465b      	mov	r3, fp
   10ffc:	2b00      	cmp	r3, #0
   10ffe:	db3e      	blt.n	1107e <__kernel_rem_pio2+0x876>
   11000:	465e      	mov	r6, fp
   11002:	00f2      	lsls	r2, r6, #3
   11004:	ab39      	add	r3, sp, #228	; 0xe4
   11006:	4920      	ldr	r1, [pc, #128]	; (11088 <__kernel_rem_pio2+0x880>)
   11008:	481e      	ldr	r0, [pc, #120]	; (11084 <__kernel_rem_pio2+0x87c>)
   1100a:	189d      	adds	r5, r3, r2
   1100c:	465c      	mov	r4, fp
   1100e:	682a      	ldr	r2, [r5, #0]
   11010:	686b      	ldr	r3, [r5, #4]
   11012:	f001 faa5 	bl	12560 <____adddf3_from_thumb>
   11016:	3d08      	subs	r5, #8
   11018:	3c01      	subs	r4, #1
   1101a:	d2f8      	bcs.n	1100e <__kernel_rem_pio2+0x806>
   1101c:	9a0a      	ldr	r2, [sp, #40]	; 0x28
   1101e:	2a00      	cmp	r2, #0
   11020:	d122      	bne.n	11068 <__kernel_rem_pio2+0x860>
   11022:	9e04      	ldr	r6, [sp, #16]
   11024:	6030      	str	r0, [r6, #0]
   11026:	6071      	str	r1, [r6, #4]
   11028:	e6e6      	b.n	10df8 <__kernel_rem_pio2+0x5f0>
   1102a:	46a3      	mov	fp, r4
   1102c:	e63c      	b.n	10ca8 <__kernel_rem_pio2+0x4a0>
   1102e:	465b      	mov	r3, fp
   11030:	980e      	ldr	r0, [sp, #56]	; 0x38
   11032:	990f      	ldr	r1, [sp, #60]	; 0x3c
   11034:	009c      	lsls	r4, r3, #2
   11036:	f001 fa9b 	bl	12570 <____fixdfsi_from_thumb>
   1103a:	2689      	movs	r6, #137	; 0x89
   1103c:	00b6      	lsls	r6, r6, #2
   1103e:	1936      	adds	r6, r6, r4
   11040:	466d      	mov	r5, sp
   11042:	5170      	str	r0, [r6, r5]
   11044:	e630      	b.n	10ca8 <__kernel_rem_pio2+0x4a0>
   11046:	9b39      	ldr	r3, [sp, #228]	; 0xe4
   11048:	2280      	movs	r2, #128	; 0x80
   1104a:	9c04      	ldr	r4, [sp, #16]
   1104c:	0612      	lsls	r2, r2, #24
   1104e:	189b      	adds	r3, r3, r2
   11050:	6023      	str	r3, [r4, #0]
   11052:	9b3a      	ldr	r3, [sp, #232]	; 0xe8
   11054:	6063      	str	r3, [r4, #4]
   11056:	9b3b      	ldr	r3, [sp, #236]	; 0xec
   11058:	189b      	adds	r3, r3, r2
   1105a:	60a3      	str	r3, [r4, #8]
   1105c:	9b3c      	ldr	r3, [sp, #240]	; 0xf0
   1105e:	60e3      	str	r3, [r4, #12]
   11060:	1883      	adds	r3, r0, r2
   11062:	6123      	str	r3, [r4, #16]
   11064:	6161      	str	r1, [r4, #20]
   11066:	e6c7      	b.n	10df8 <__kernel_rem_pio2+0x5f0>
   11068:	2580      	movs	r5, #128	; 0x80
   1106a:	062d      	lsls	r5, r5, #24
   1106c:	1943      	adds	r3, r0, r5
   1106e:	1c18      	adds	r0, r3, #0
   11070:	e7d7      	b.n	11022 <__kernel_rem_pio2+0x81a>
   11072:	4b05      	ldr	r3, [pc, #20]	; (11088 <__kernel_rem_pio2+0x880>)
   11074:	4a03      	ldr	r2, [pc, #12]	; (11084 <__kernel_rem_pio2+0x87c>)
   11076:	e69a      	b.n	10dae <__kernel_rem_pio2+0x5a6>
   11078:	4903      	ldr	r1, [pc, #12]	; (11088 <__kernel_rem_pio2+0x880>)
   1107a:	4802      	ldr	r0, [pc, #8]	; (11084 <__kernel_rem_pio2+0x87c>)
   1107c:	e759      	b.n	10f32 <__kernel_rem_pio2+0x72a>
   1107e:	4902      	ldr	r1, [pc, #8]	; (11088 <__kernel_rem_pio2+0x880>)
   11080:	4800      	ldr	r0, [pc, #0]	; (11084 <__kernel_rem_pio2+0x87c>)
   11082:	e7cb      	b.n	1101c <__kernel_rem_pio2+0x814>
	...
   1108c:	41700000 	.word	0x41700000
   11090:	00000000 	.word	0x00000000
   11094:	3e700000 	.word	0x3e700000
   11098:	00000000 	.word	0x00000000
   1109c:	c1700000 	.word	0xc1700000
   110a0:	00000000 	.word	0x00000000

000110a4 <__kernel_sin>:
   110a4:	b5f0      	push	{r4, r5, r6, r7, lr}
   110a6:	b088      	sub	sp, #32
   110a8:	9200      	str	r2, [sp, #0]
   110aa:	9301      	str	r3, [sp, #4]
   110ac:	4a4d      	ldr	r2, [pc, #308]	; (111e4 <__kernel_sin+0x140>)
   110ae:	4b4e      	ldr	r3, [pc, #312]	; (111e8 <__kernel_sin+0x144>)
   110b0:	4002      	ands	r2, r0
   110b2:	9002      	str	r0, [sp, #8]
   110b4:	9103      	str	r1, [sp, #12]
   110b6:	429a      	cmp	r2, r3
   110b8:	dc03      	bgt.n	110c2 <__kernel_sin+0x1e>
   110ba:	f001 fa59 	bl	12570 <____fixdfsi_from_thumb>
   110be:	2800      	cmp	r0, #0
   110c0:	d070      	beq.n	111a4 <__kernel_sin+0x100>
   110c2:	9802      	ldr	r0, [sp, #8]
   110c4:	9903      	ldr	r1, [sp, #12]
   110c6:	1c02      	adds	r2, r0, #0
   110c8:	1c0b      	adds	r3, r1, #0
   110ca:	f001 fa41 	bl	12550 <____muldf3_from_thumb>
   110ce:	1c06      	adds	r6, r0, #0
   110d0:	1c0f      	adds	r7, r1, #0
   110d2:	1c32      	adds	r2, r6, #0
   110d4:	1c3b      	adds	r3, r7, #0
   110d6:	9802      	ldr	r0, [sp, #8]
   110d8:	9903      	ldr	r1, [sp, #12]
   110da:	f001 fa39 	bl	12550 <____muldf3_from_thumb>
   110de:	4a43      	ldr	r2, [pc, #268]	; (111ec <__kernel_sin+0x148>)
   110e0:	4b43      	ldr	r3, [pc, #268]	; (111f0 <__kernel_sin+0x14c>)
   110e2:	9006      	str	r0, [sp, #24]
   110e4:	9107      	str	r1, [sp, #28]
   110e6:	1c30      	adds	r0, r6, #0
   110e8:	1c39      	adds	r1, r7, #0
   110ea:	f001 fa31 	bl	12550 <____muldf3_from_thumb>
   110ee:	4a41      	ldr	r2, [pc, #260]	; (111f4 <__kernel_sin+0x150>)
   110f0:	4b41      	ldr	r3, [pc, #260]	; (111f8 <__kernel_sin+0x154>)
   110f2:	f001 fa39 	bl	12568 <____subdf3_from_thumb>
   110f6:	1c02      	adds	r2, r0, #0
   110f8:	1c0b      	adds	r3, r1, #0
   110fa:	1c30      	adds	r0, r6, #0
   110fc:	1c39      	adds	r1, r7, #0
   110fe:	f001 fa27 	bl	12550 <____muldf3_from_thumb>
   11102:	4a3e      	ldr	r2, [pc, #248]	; (111fc <__kernel_sin+0x158>)
   11104:	4b3e      	ldr	r3, [pc, #248]	; (11200 <__kernel_sin+0x15c>)
   11106:	f001 fa2b 	bl	12560 <____adddf3_from_thumb>
   1110a:	1c02      	adds	r2, r0, #0
   1110c:	1c0b      	adds	r3, r1, #0
   1110e:	1c30      	adds	r0, r6, #0
   11110:	1c39      	adds	r1, r7, #0
   11112:	f001 fa1d 	bl	12550 <____muldf3_from_thumb>
   11116:	4a3b      	ldr	r2, [pc, #236]	; (11204 <__kernel_sin+0x160>)
   11118:	4b3b      	ldr	r3, [pc, #236]	; (11208 <__kernel_sin+0x164>)
   1111a:	f001 fa25 	bl	12568 <____subdf3_from_thumb>
   1111e:	1c02      	adds	r2, r0, #0
   11120:	1c0b      	adds	r3, r1, #0
   11122:	1c30      	adds	r0, r6, #0
   11124:	1c39      	adds	r1, r7, #0
   11126:	f001 fa13 	bl	12550 <____muldf3_from_thumb>
   1112a:	4a38      	ldr	r2, [pc, #224]	; (1120c <__kernel_sin+0x168>)
   1112c:	4b38      	ldr	r3, [pc, #224]	; (11210 <__kernel_sin+0x16c>)
   1112e:	f001 fa17 	bl	12560 <____adddf3_from_thumb>
   11132:	9b0d      	ldr	r3, [sp, #52]	; 0x34
   11134:	9004      	str	r0, [sp, #16]
   11136:	9105      	str	r1, [sp, #20]
   11138:	2b00      	cmp	r3, #0
   1113a:	d039      	beq.n	111b0 <__kernel_sin+0x10c>
   1113c:	4a35      	ldr	r2, [pc, #212]	; (11214 <__kernel_sin+0x170>)
   1113e:	4b36      	ldr	r3, [pc, #216]	; (11218 <__kernel_sin+0x174>)
   11140:	9800      	ldr	r0, [sp, #0]
   11142:	9901      	ldr	r1, [sp, #4]
   11144:	f001 fa04 	bl	12550 <____muldf3_from_thumb>
   11148:	9a04      	ldr	r2, [sp, #16]
   1114a:	9b05      	ldr	r3, [sp, #20]
   1114c:	1c04      	adds	r4, r0, #0
   1114e:	1c0d      	adds	r5, r1, #0
   11150:	9806      	ldr	r0, [sp, #24]
   11152:	9907      	ldr	r1, [sp, #28]
   11154:	f001 f9fc 	bl	12550 <____muldf3_from_thumb>
   11158:	1c02      	adds	r2, r0, #0
   1115a:	1c0b      	adds	r3, r1, #0
   1115c:	1c20      	adds	r0, r4, #0
   1115e:	1c29      	adds	r1, r5, #0
   11160:	f001 fa02 	bl	12568 <____subdf3_from_thumb>
   11164:	1c02      	adds	r2, r0, #0
   11166:	1c0b      	adds	r3, r1, #0
   11168:	1c30      	adds	r0, r6, #0
   1116a:	1c39      	adds	r1, r7, #0
   1116c:	f001 f9f0 	bl	12550 <____muldf3_from_thumb>
   11170:	9a00      	ldr	r2, [sp, #0]
   11172:	9b01      	ldr	r3, [sp, #4]
   11174:	f001 f9f8 	bl	12568 <____subdf3_from_thumb>
   11178:	4a28      	ldr	r2, [pc, #160]	; (1121c <__kernel_sin+0x178>)
   1117a:	4b29      	ldr	r3, [pc, #164]	; (11220 <__kernel_sin+0x17c>)
   1117c:	1c04      	adds	r4, r0, #0
   1117e:	1c0d      	adds	r5, r1, #0
   11180:	9806      	ldr	r0, [sp, #24]
   11182:	9907      	ldr	r1, [sp, #28]
   11184:	f001 f9e4 	bl	12550 <____muldf3_from_thumb>
   11188:	1c02      	adds	r2, r0, #0
   1118a:	1c0b      	adds	r3, r1, #0
   1118c:	1c20      	adds	r0, r4, #0
   1118e:	1c29      	adds	r1, r5, #0
   11190:	f001 f9e6 	bl	12560 <____adddf3_from_thumb>
   11194:	1c02      	adds	r2, r0, #0
   11196:	1c0b      	adds	r3, r1, #0
   11198:	9802      	ldr	r0, [sp, #8]
   1119a:	9903      	ldr	r1, [sp, #12]
   1119c:	f001 f9e4 	bl	12568 <____subdf3_from_thumb>
   111a0:	9002      	str	r0, [sp, #8]
   111a2:	9103      	str	r1, [sp, #12]
   111a4:	9802      	ldr	r0, [sp, #8]
   111a6:	9903      	ldr	r1, [sp, #12]
   111a8:	b008      	add	sp, #32
   111aa:	bcf0      	pop	{r4, r5, r6, r7}
   111ac:	bc04      	pop	{r2}
   111ae:	4710      	bx	r2
   111b0:	9a04      	ldr	r2, [sp, #16]
   111b2:	9b05      	ldr	r3, [sp, #20]
   111b4:	1c30      	adds	r0, r6, #0
   111b6:	1c39      	adds	r1, r7, #0
   111b8:	f001 f9ca 	bl	12550 <____muldf3_from_thumb>
   111bc:	4a17      	ldr	r2, [pc, #92]	; (1121c <__kernel_sin+0x178>)
   111be:	4b18      	ldr	r3, [pc, #96]	; (11220 <__kernel_sin+0x17c>)
   111c0:	f001 f9d2 	bl	12568 <____subdf3_from_thumb>
   111c4:	1c02      	adds	r2, r0, #0
   111c6:	1c0b      	adds	r3, r1, #0
   111c8:	9806      	ldr	r0, [sp, #24]
   111ca:	9907      	ldr	r1, [sp, #28]
   111cc:	f001 f9c0 	bl	12550 <____muldf3_from_thumb>
   111d0:	1c02      	adds	r2, r0, #0
   111d2:	1c0b      	adds	r3, r1, #0
   111d4:	9802      	ldr	r0, [sp, #8]
   111d6:	9903      	ldr	r1, [sp, #12]
   111d8:	f001 f9c2 	bl	12560 <____adddf3_from_thumb>
   111dc:	9002      	str	r0, [sp, #8]
   111de:	9103      	str	r1, [sp, #12]
   111e0:	e7e0      	b.n	111a4 <__kernel_sin+0x100>
   111e2:	46c0      	nop			; (mov r8, r8)
   111e4:	7fffffff 	.word	0x7fffffff
   111e8:	3e3fffff 	.word	0x3e3fffff
   111ec:	3de5d93a 	.word	0x3de5d93a
   111f0:	5acfd57c 	.word	0x5acfd57c
   111f4:	3e5ae5e6 	.word	0x3e5ae5e6
   111f8:	8a2b9ceb 	.word	0x8a2b9ceb
   111fc:	3ec71de3 	.word	0x3ec71de3
   11200:	57b1fe7d 	.word	0x57b1fe7d
   11204:	3f2a01a0 	.word	0x3f2a01a0
   11208:	19c161d5 	.word	0x19c161d5
   1120c:	3f811111 	.word	0x3f811111
   11210:	1110f8a6 	.word	0x1110f8a6
   11214:	3fe00000 	.word	0x3fe00000
   11218:	00000000 	.word	0x00000000
   1121c:	3fc55555 	.word	0x3fc55555
   11220:	55555549 	.word	0x55555549

00011224 <__kernel_cosf>:
   11224:	b5f0      	push	{r4, r5, r6, r7, lr}
   11226:	4657      	mov	r7, sl
   11228:	4646      	mov	r6, r8
   1122a:	b4c0      	push	{r6, r7}
   1122c:	4a5a      	ldr	r2, [pc, #360]	; (11398 <__kernel_cosf+0x174>)
   1122e:	1c05      	adds	r5, r0, #0
   11230:	4b5a      	ldr	r3, [pc, #360]	; (1139c <__kernel_cosf+0x178>)
   11232:	4015      	ands	r5, r2
   11234:	1c07      	adds	r7, r0, #0
   11236:	4688      	mov	r8, r1
   11238:	429d      	cmp	r5, r3
   1123a:	dc50      	bgt.n	112de <__kernel_cosf+0xba>
   1123c:	f001 f99c 	bl	12578 <____fixsfsi_from_thumb>
   11240:	2800      	cmp	r0, #0
   11242:	d100      	bne.n	11246 <__kernel_cosf+0x22>
   11244:	e09d      	b.n	11382 <__kernel_cosf+0x15e>
   11246:	1c39      	adds	r1, r7, #0
   11248:	1c38      	adds	r0, r7, #0
   1124a:	f001 f985 	bl	12558 <____mulsf3_from_thumb>
   1124e:	4954      	ldr	r1, [pc, #336]	; (113a0 <__kernel_cosf+0x17c>)
   11250:	1c04      	adds	r4, r0, #0
   11252:	f001 f981 	bl	12558 <____mulsf3_from_thumb>
   11256:	4953      	ldr	r1, [pc, #332]	; (113a4 <__kernel_cosf+0x180>)
   11258:	f001 f96e 	bl	12538 <____addsf3_from_thumb>
   1125c:	1c01      	adds	r1, r0, #0
   1125e:	1c20      	adds	r0, r4, #0
   11260:	f001 f97a 	bl	12558 <____mulsf3_from_thumb>
   11264:	4950      	ldr	r1, [pc, #320]	; (113a8 <__kernel_cosf+0x184>)
   11266:	f001 f96f 	bl	12548 <____subsf3_from_thumb>
   1126a:	1c01      	adds	r1, r0, #0
   1126c:	1c20      	adds	r0, r4, #0
   1126e:	f001 f973 	bl	12558 <____mulsf3_from_thumb>
   11272:	494e      	ldr	r1, [pc, #312]	; (113ac <__kernel_cosf+0x188>)
   11274:	f001 f960 	bl	12538 <____addsf3_from_thumb>
   11278:	1c01      	adds	r1, r0, #0
   1127a:	1c20      	adds	r0, r4, #0
   1127c:	f001 f96c 	bl	12558 <____mulsf3_from_thumb>
   11280:	494b      	ldr	r1, [pc, #300]	; (113b0 <__kernel_cosf+0x18c>)
   11282:	f001 f961 	bl	12548 <____subsf3_from_thumb>
   11286:	1c01      	adds	r1, r0, #0
   11288:	1c20      	adds	r0, r4, #0
   1128a:	f001 f965 	bl	12558 <____mulsf3_from_thumb>
   1128e:	4949      	ldr	r1, [pc, #292]	; (113b4 <__kernel_cosf+0x190>)
   11290:	f001 f952 	bl	12538 <____addsf3_from_thumb>
   11294:	1c01      	adds	r1, r0, #0
   11296:	1c20      	adds	r0, r4, #0
   11298:	f001 f95e 	bl	12558 <____mulsf3_from_thumb>
   1129c:	1c06      	adds	r6, r0, #0
   1129e:	1c20      	adds	r0, r4, #0
   112a0:	4945      	ldr	r1, [pc, #276]	; (113b8 <__kernel_cosf+0x194>)
   112a2:	f001 f959 	bl	12558 <____mulsf3_from_thumb>
   112a6:	1c31      	adds	r1, r6, #0
   112a8:	1c05      	adds	r5, r0, #0
   112aa:	1c20      	adds	r0, r4, #0
   112ac:	f001 f954 	bl	12558 <____mulsf3_from_thumb>
   112b0:	4641      	mov	r1, r8
   112b2:	1c04      	adds	r4, r0, #0
   112b4:	1c38      	adds	r0, r7, #0
   112b6:	f001 f94f 	bl	12558 <____mulsf3_from_thumb>
   112ba:	1c01      	adds	r1, r0, #0
   112bc:	1c20      	adds	r0, r4, #0
   112be:	f001 f943 	bl	12548 <____subsf3_from_thumb>
   112c2:	1c01      	adds	r1, r0, #0
   112c4:	1c28      	adds	r0, r5, #0
   112c6:	f001 f93f 	bl	12548 <____subsf3_from_thumb>
   112ca:	1c01      	adds	r1, r0, #0
   112cc:	483b      	ldr	r0, [pc, #236]	; (113bc <__kernel_cosf+0x198>)
   112ce:	f001 f93b 	bl	12548 <____subsf3_from_thumb>
   112d2:	bc0c      	pop	{r2, r3}
   112d4:	4690      	mov	r8, r2
   112d6:	469a      	mov	sl, r3
   112d8:	bcf0      	pop	{r4, r5, r6, r7}
   112da:	bc02      	pop	{r1}
   112dc:	4708      	bx	r1
   112de:	1c39      	adds	r1, r7, #0
   112e0:	f001 f93a 	bl	12558 <____mulsf3_from_thumb>
   112e4:	492e      	ldr	r1, [pc, #184]	; (113a0 <__kernel_cosf+0x17c>)
   112e6:	1c04      	adds	r4, r0, #0
   112e8:	f001 f936 	bl	12558 <____mulsf3_from_thumb>
   112ec:	492d      	ldr	r1, [pc, #180]	; (113a4 <__kernel_cosf+0x180>)
   112ee:	f001 f923 	bl	12538 <____addsf3_from_thumb>
   112f2:	1c01      	adds	r1, r0, #0
   112f4:	1c20      	adds	r0, r4, #0
   112f6:	f001 f92f 	bl	12558 <____mulsf3_from_thumb>
   112fa:	492b      	ldr	r1, [pc, #172]	; (113a8 <__kernel_cosf+0x184>)
   112fc:	f001 f924 	bl	12548 <____subsf3_from_thumb>
   11300:	1c01      	adds	r1, r0, #0
   11302:	1c20      	adds	r0, r4, #0
   11304:	f001 f928 	bl	12558 <____mulsf3_from_thumb>
   11308:	4928      	ldr	r1, [pc, #160]	; (113ac <__kernel_cosf+0x188>)
   1130a:	f001 f915 	bl	12538 <____addsf3_from_thumb>
   1130e:	1c01      	adds	r1, r0, #0
   11310:	1c20      	adds	r0, r4, #0
   11312:	f001 f921 	bl	12558 <____mulsf3_from_thumb>
   11316:	4926      	ldr	r1, [pc, #152]	; (113b0 <__kernel_cosf+0x18c>)
   11318:	f001 f916 	bl	12548 <____subsf3_from_thumb>
   1131c:	1c01      	adds	r1, r0, #0
   1131e:	1c20      	adds	r0, r4, #0
   11320:	f001 f91a 	bl	12558 <____mulsf3_from_thumb>
   11324:	4923      	ldr	r1, [pc, #140]	; (113b4 <__kernel_cosf+0x190>)
   11326:	f001 f907 	bl	12538 <____addsf3_from_thumb>
   1132a:	1c01      	adds	r1, r0, #0
   1132c:	1c20      	adds	r0, r4, #0
   1132e:	f001 f913 	bl	12558 <____mulsf3_from_thumb>
   11332:	4b23      	ldr	r3, [pc, #140]	; (113c0 <__kernel_cosf+0x19c>)
   11334:	1c06      	adds	r6, r0, #0
   11336:	429d      	cmp	r5, r3
   11338:	ddb1      	ble.n	1129e <__kernel_cosf+0x7a>
   1133a:	4b22      	ldr	r3, [pc, #136]	; (113c4 <__kernel_cosf+0x1a0>)
   1133c:	429d      	cmp	r5, r3
   1133e:	dd22      	ble.n	11386 <__kernel_cosf+0x162>
   11340:	4b21      	ldr	r3, [pc, #132]	; (113c8 <__kernel_cosf+0x1a4>)
   11342:	4d22      	ldr	r5, [pc, #136]	; (113cc <__kernel_cosf+0x1a8>)
   11344:	469a      	mov	sl, r3
   11346:	1c20      	adds	r0, r4, #0
   11348:	491b      	ldr	r1, [pc, #108]	; (113b8 <__kernel_cosf+0x194>)
   1134a:	f001 f905 	bl	12558 <____mulsf3_from_thumb>
   1134e:	1c29      	adds	r1, r5, #0
   11350:	f001 f8fa 	bl	12548 <____subsf3_from_thumb>
   11354:	1c31      	adds	r1, r6, #0
   11356:	1c05      	adds	r5, r0, #0
   11358:	1c20      	adds	r0, r4, #0
   1135a:	f001 f8fd 	bl	12558 <____mulsf3_from_thumb>
   1135e:	4641      	mov	r1, r8
   11360:	1c04      	adds	r4, r0, #0
   11362:	1c38      	adds	r0, r7, #0
   11364:	f001 f8f8 	bl	12558 <____mulsf3_from_thumb>
   11368:	1c01      	adds	r1, r0, #0
   1136a:	1c20      	adds	r0, r4, #0
   1136c:	f001 f8ec 	bl	12548 <____subsf3_from_thumb>
   11370:	1c01      	adds	r1, r0, #0
   11372:	1c28      	adds	r0, r5, #0
   11374:	f001 f8e8 	bl	12548 <____subsf3_from_thumb>
   11378:	1c01      	adds	r1, r0, #0
   1137a:	4650      	mov	r0, sl
   1137c:	f001 f8e4 	bl	12548 <____subsf3_from_thumb>
   11380:	e7a7      	b.n	112d2 <__kernel_cosf+0xae>
   11382:	480e      	ldr	r0, [pc, #56]	; (113bc <__kernel_cosf+0x198>)
   11384:	e7a5      	b.n	112d2 <__kernel_cosf+0xae>
   11386:	23ff      	movs	r3, #255	; 0xff
   11388:	061b      	lsls	r3, r3, #24
   1138a:	18ed      	adds	r5, r5, r3
   1138c:	480b      	ldr	r0, [pc, #44]	; (113bc <__kernel_cosf+0x198>)
   1138e:	1c29      	adds	r1, r5, #0
   11390:	f001 f8da 	bl	12548 <____subsf3_from_thumb>
   11394:	4682      	mov	sl, r0
   11396:	e7d6      	b.n	11346 <__kernel_cosf+0x122>
   11398:	7fffffff 	.word	0x7fffffff
   1139c:	31ffffff 	.word	0x31ffffff
   113a0:	ad47d74e 	.word	0xad47d74e
   113a4:	310f74f6 	.word	0x310f74f6
   113a8:	3493f27c 	.word	0x3493f27c
   113ac:	37d00d01 	.word	0x37d00d01
   113b0:	3ab60b61 	.word	0x3ab60b61
   113b4:	3d2aaaab 	.word	0x3d2aaaab
   113b8:	3f000000 	.word	0x3f000000
   113bc:	3f800000 	.word	0x3f800000
   113c0:	3e999999 	.word	0x3e999999
   113c4:	3f480000 	.word	0x3f480000
   113c8:	3f380000 	.word	0x3f380000
   113cc:	3e900000 	.word	0x3e900000

000113d0 <__kernel_rem_pio2f>:
   113d0:	b5f0      	push	{r4, r5, r6, r7, lr}
   113d2:	465f      	mov	r7, fp
   113d4:	4656      	mov	r6, sl
   113d6:	464d      	mov	r5, r9
   113d8:	4644      	mov	r4, r8
   113da:	b4f0      	push	{r4, r5, r6, r7}
   113dc:	b0de      	sub	sp, #376	; 0x178
   113de:	9004      	str	r0, [sp, #16]
   113e0:	9867      	ldr	r0, [sp, #412]	; 0x19c
   113e2:	9103      	str	r1, [sp, #12]
   113e4:	1c11      	adds	r1, r2, #0
   113e6:	4aba      	ldr	r2, [pc, #744]	; (116d0 <__kernel_rem_pio2f+0x300>)
   113e8:	9302      	str	r3, [sp, #8]
   113ea:	0083      	lsls	r3, r0, #2
   113ec:	589b      	ldr	r3, [r3, r2]
   113ee:	9a02      	ldr	r2, [sp, #8]
   113f0:	3a01      	subs	r2, #1
   113f2:	469b      	mov	fp, r3
   113f4:	9205      	str	r2, [sp, #20]
   113f6:	1ecb      	subs	r3, r1, #3
   113f8:	d500      	bpl.n	113fc <__kernel_rem_pio2f+0x2c>
   113fa:	e2ea      	b.n	119d2 <__kernel_rem_pio2f+0x602>
   113fc:	10db      	asrs	r3, r3, #3
   113fe:	930d      	str	r3, [sp, #52]	; 0x34
   11400:	2b00      	cmp	r3, #0
   11402:	da00      	bge.n	11406 <__kernel_rem_pio2f+0x36>
   11404:	e2e2      	b.n	119cc <__kernel_rem_pio2f+0x5fc>
   11406:	9c0d      	ldr	r4, [sp, #52]	; 0x34
   11408:	00e3      	lsls	r3, r4, #3
   1140a:	1acb      	subs	r3, r1, r3
   1140c:	9905      	ldr	r1, [sp, #20]
   1140e:	3b08      	subs	r3, #8
   11410:	4658      	mov	r0, fp
   11412:	4699      	mov	r9, r3
   11414:	1840      	adds	r0, r0, r1
   11416:	4680      	mov	r8, r0
   11418:	d417      	bmi.n	1144a <__kernel_rem_pio2f+0x7a>
   1141a:	1a65      	subs	r5, r4, r1
   1141c:	9a68      	ldr	r2, [sp, #416]	; 0x1a0
   1141e:	00ab      	lsls	r3, r5, #2
   11420:	18d4      	adds	r4, r2, r3
   11422:	2700      	movs	r7, #0
   11424:	ae36      	add	r6, sp, #216	; 0xd8
   11426:	e009      	b.n	1143c <__kernel_rem_pio2f+0x6c>
   11428:	6820      	ldr	r0, [r4, #0]
   1142a:	f001 f8b1 	bl	12590 <____floatsisf_from_thumb>
   1142e:	3404      	adds	r4, #4
   11430:	6030      	str	r0, [r6, #0]
   11432:	4547      	cmp	r7, r8
   11434:	d009      	beq.n	1144a <__kernel_rem_pio2f+0x7a>
   11436:	3501      	adds	r5, #1
   11438:	3701      	adds	r7, #1
   1143a:	3604      	adds	r6, #4
   1143c:	2d00      	cmp	r5, #0
   1143e:	daf3      	bge.n	11428 <__kernel_rem_pio2f+0x58>
   11440:	48a4      	ldr	r0, [pc, #656]	; (116d4 <__kernel_rem_pio2f+0x304>)
   11442:	3404      	adds	r4, #4
   11444:	6030      	str	r0, [r6, #0]
   11446:	4547      	cmp	r7, r8
   11448:	d1f5      	bne.n	11436 <__kernel_rem_pio2f+0x66>
   1144a:	465b      	mov	r3, fp
   1144c:	2b00      	cmp	r3, #0
   1144e:	db27      	blt.n	114a0 <__kernel_rem_pio2f+0xd0>
   11450:	4668      	mov	r0, sp
   11452:	9902      	ldr	r1, [sp, #8]
   11454:	9c05      	ldr	r4, [sp, #20]
   11456:	3038      	adds	r0, #56	; 0x38
   11458:	4459      	add	r1, fp
   1145a:	900c      	str	r0, [sp, #48]	; 0x30
   1145c:	46a0      	mov	r8, r4
   1145e:	468a      	mov	sl, r1
   11460:	9805      	ldr	r0, [sp, #20]
   11462:	2800      	cmp	r0, #0
   11464:	da00      	bge.n	11468 <__kernel_rem_pio2f+0x98>
   11466:	e242      	b.n	118ee <__kernel_rem_pio2f+0x51e>
   11468:	4641      	mov	r1, r8
   1146a:	008a      	lsls	r2, r1, #2
   1146c:	ab36      	add	r3, sp, #216	; 0xd8
   1146e:	9f04      	ldr	r7, [sp, #16]
   11470:	4e98      	ldr	r6, [pc, #608]	; (116d4 <__kernel_rem_pio2f+0x304>)
   11472:	189d      	adds	r5, r3, r2
   11474:	2400      	movs	r4, #0
   11476:	6829      	ldr	r1, [r5, #0]
   11478:	cf01      	ldmia	r7!, {r0}
   1147a:	f001 f86d 	bl	12558 <____mulsf3_from_thumb>
   1147e:	1c01      	adds	r1, r0, #0
   11480:	1c30      	adds	r0, r6, #0
   11482:	f001 f859 	bl	12538 <____addsf3_from_thumb>
   11486:	9a02      	ldr	r2, [sp, #8]
   11488:	3401      	adds	r4, #1
   1148a:	1c06      	adds	r6, r0, #0
   1148c:	3d04      	subs	r5, #4
   1148e:	42a2      	cmp	r2, r4
   11490:	d1f1      	bne.n	11476 <__kernel_rem_pio2f+0xa6>
   11492:	9b0c      	ldr	r3, [sp, #48]	; 0x30
   11494:	2401      	movs	r4, #1
   11496:	c340      	stmia	r3!, {r6}
   11498:	44a0      	add	r8, r4
   1149a:	930c      	str	r3, [sp, #48]	; 0x30
   1149c:	45d0      	cmp	r8, sl
   1149e:	d1df      	bne.n	11460 <__kernel_rem_pio2f+0x90>
   114a0:	465a      	mov	r2, fp
   114a2:	0092      	lsls	r2, r2, #2
   114a4:	9200      	str	r2, [sp, #0]
   114a6:	46da      	mov	sl, fp
   114a8:	4653      	mov	r3, sl
   114aa:	009b      	lsls	r3, r3, #2
   114ac:	ac0e      	add	r4, sp, #56	; 0x38
   114ae:	4650      	mov	r0, sl
   114b0:	9301      	str	r3, [sp, #4]
   114b2:	591d      	ldr	r5, [r3, r4]
   114b4:	2800      	cmp	r0, #0
   114b6:	dd25      	ble.n	11504 <__kernel_rem_pio2f+0x134>
   114b8:	2194      	movs	r1, #148	; 0x94
   114ba:	0049      	lsls	r1, r1, #1
   114bc:	3b04      	subs	r3, #4
   114be:	4469      	add	r1, sp
   114c0:	18e6      	adds	r6, r4, r3
   114c2:	2700      	movs	r7, #0
   114c4:	4688      	mov	r8, r1
   114c6:	4984      	ldr	r1, [pc, #528]	; (116d8 <__kernel_rem_pio2f+0x308>)
   114c8:	1c28      	adds	r0, r5, #0
   114ca:	f001 f845 	bl	12558 <____mulsf3_from_thumb>
   114ce:	f001 f853 	bl	12578 <____fixsfsi_from_thumb>
   114d2:	f001 f85d 	bl	12590 <____floatsisf_from_thumb>
   114d6:	4981      	ldr	r1, [pc, #516]	; (116dc <__kernel_rem_pio2f+0x30c>)
   114d8:	1c04      	adds	r4, r0, #0
   114da:	f001 f83d 	bl	12558 <____mulsf3_from_thumb>
   114de:	1c29      	adds	r1, r5, #0
   114e0:	f001 f82a 	bl	12538 <____addsf3_from_thumb>
   114e4:	f001 f848 	bl	12578 <____fixsfsi_from_thumb>
   114e8:	4642      	mov	r2, r8
   114ea:	3204      	adds	r2, #4
   114ec:	4690      	mov	r8, r2
   114ee:	3a04      	subs	r2, #4
   114f0:	c201      	stmia	r2!, {r0}
   114f2:	6831      	ldr	r1, [r6, #0]
   114f4:	1c20      	adds	r0, r4, #0
   114f6:	f001 f81f 	bl	12538 <____addsf3_from_thumb>
   114fa:	3701      	adds	r7, #1
   114fc:	1c05      	adds	r5, r0, #0
   114fe:	3e04      	subs	r6, #4
   11500:	45ba      	cmp	sl, r7
   11502:	d1e0      	bne.n	114c6 <__kernel_rem_pio2f+0xf6>
   11504:	4649      	mov	r1, r9
   11506:	1c28      	adds	r0, r5, #0
   11508:	f000 fee4 	bl	122d4 <scalbnf>
   1150c:	4974      	ldr	r1, [pc, #464]	; (116e0 <__kernel_rem_pio2f+0x310>)
   1150e:	1c04      	adds	r4, r0, #0
   11510:	f001 f822 	bl	12558 <____mulsf3_from_thumb>
   11514:	f000 fe90 	bl	12238 <floorf>
   11518:	4972      	ldr	r1, [pc, #456]	; (116e4 <__kernel_rem_pio2f+0x314>)
   1151a:	f001 f81d 	bl	12558 <____mulsf3_from_thumb>
   1151e:	1c01      	adds	r1, r0, #0
   11520:	1c20      	adds	r0, r4, #0
   11522:	f001 f809 	bl	12538 <____addsf3_from_thumb>
   11526:	1c04      	adds	r4, r0, #0
   11528:	f001 f826 	bl	12578 <____fixsfsi_from_thumb>
   1152c:	9006      	str	r0, [sp, #24]
   1152e:	f001 f82f 	bl	12590 <____floatsisf_from_thumb>
   11532:	1c01      	adds	r1, r0, #0
   11534:	1c20      	adds	r0, r4, #0
   11536:	f001 f807 	bl	12548 <____subsf3_from_thumb>
   1153a:	464b      	mov	r3, r9
   1153c:	1c06      	adds	r6, r0, #0
   1153e:	2b00      	cmp	r3, #0
   11540:	dc00      	bgt.n	11544 <__kernel_rem_pio2f+0x174>
   11542:	e19e      	b.n	11882 <__kernel_rem_pio2f+0x4b2>
   11544:	4650      	mov	r0, sl
   11546:	3801      	subs	r0, #1
   11548:	2294      	movs	r2, #148	; 0x94
   1154a:	0080      	lsls	r0, r0, #2
   1154c:	0052      	lsls	r2, r2, #1
   1154e:	1812      	adds	r2, r2, r0
   11550:	466c      	mov	r4, sp
   11552:	5911      	ldr	r1, [r2, r4]
   11554:	2208      	movs	r2, #8
   11556:	1ad2      	subs	r2, r2, r3
   11558:	9c06      	ldr	r4, [sp, #24]
   1155a:	1c0b      	adds	r3, r1, #0
   1155c:	4113      	asrs	r3, r2
   1155e:	18e4      	adds	r4, r4, r3
   11560:	4093      	lsls	r3, r2
   11562:	1ac9      	subs	r1, r1, r3
   11564:	2394      	movs	r3, #148	; 0x94
   11566:	005b      	lsls	r3, r3, #1
   11568:	181b      	adds	r3, r3, r0
   1156a:	466a      	mov	r2, sp
   1156c:	5099      	str	r1, [r3, r2]
   1156e:	9406      	str	r4, [sp, #24]
   11570:	2307      	movs	r3, #7
   11572:	464c      	mov	r4, r9
   11574:	1b1b      	subs	r3, r3, r4
   11576:	4119      	asrs	r1, r3
   11578:	9107      	str	r1, [sp, #28]
   1157a:	9807      	ldr	r0, [sp, #28]
   1157c:	2800      	cmp	r0, #0
   1157e:	dd2c      	ble.n	115da <__kernel_rem_pio2f+0x20a>
   11580:	9906      	ldr	r1, [sp, #24]
   11582:	4652      	mov	r2, sl
   11584:	3101      	adds	r1, #1
   11586:	9106      	str	r1, [sp, #24]
   11588:	2a00      	cmp	r2, #0
   1158a:	dc00      	bgt.n	1158e <__kernel_rem_pio2f+0x1be>
   1158c:	e1bb      	b.n	11906 <__kernel_rem_pio2f+0x536>
   1158e:	2080      	movs	r0, #128	; 0x80
   11590:	2500      	movs	r5, #0
   11592:	2100      	movs	r1, #0
   11594:	aa4a      	add	r2, sp, #296	; 0x128
   11596:	0040      	lsls	r0, r0, #1
   11598:	24ff      	movs	r4, #255	; 0xff
   1159a:	e008      	b.n	115ae <__kernel_rem_pio2f+0x1de>
   1159c:	2b00      	cmp	r3, #0
   1159e:	d002      	beq.n	115a6 <__kernel_rem_pio2f+0x1d6>
   115a0:	1ac3      	subs	r3, r0, r3
   115a2:	6013      	str	r3, [r2, #0]
   115a4:	2501      	movs	r5, #1
   115a6:	3101      	adds	r1, #1
   115a8:	3204      	adds	r2, #4
   115aa:	458a      	cmp	sl, r1
   115ac:	d008      	beq.n	115c0 <__kernel_rem_pio2f+0x1f0>
   115ae:	6813      	ldr	r3, [r2, #0]
   115b0:	2d00      	cmp	r5, #0
   115b2:	d0f3      	beq.n	1159c <__kernel_rem_pio2f+0x1cc>
   115b4:	1ae3      	subs	r3, r4, r3
   115b6:	3101      	adds	r1, #1
   115b8:	6013      	str	r3, [r2, #0]
   115ba:	3204      	adds	r2, #4
   115bc:	458a      	cmp	sl, r1
   115be:	d1f6      	bne.n	115ae <__kernel_rem_pio2f+0x1de>
   115c0:	464b      	mov	r3, r9
   115c2:	2b00      	cmp	r3, #0
   115c4:	dd05      	ble.n	115d2 <__kernel_rem_pio2f+0x202>
   115c6:	2b01      	cmp	r3, #1
   115c8:	d100      	bne.n	115cc <__kernel_rem_pio2f+0x1fc>
   115ca:	e165      	b.n	11898 <__kernel_rem_pio2f+0x4c8>
   115cc:	2b02      	cmp	r3, #2
   115ce:	d100      	bne.n	115d2 <__kernel_rem_pio2f+0x202>
   115d0:	e16e      	b.n	118b0 <__kernel_rem_pio2f+0x4e0>
   115d2:	9a07      	ldr	r2, [sp, #28]
   115d4:	2a02      	cmp	r2, #2
   115d6:	d100      	bne.n	115da <__kernel_rem_pio2f+0x20a>
   115d8:	e086      	b.n	116e8 <__kernel_rem_pio2f+0x318>
   115da:	1c30      	adds	r0, r6, #0
   115dc:	493d      	ldr	r1, [pc, #244]	; (116d4 <__kernel_rem_pio2f+0x304>)
   115de:	f000 ffaf 	bl	12540 <____eqsf2_from_thumb>
   115e2:	2800      	cmp	r0, #0
   115e4:	d000      	beq.n	115e8 <__kernel_rem_pio2f+0x218>
   115e6:	e097      	b.n	11718 <__kernel_rem_pio2f+0x348>
   115e8:	4654      	mov	r4, sl
   115ea:	3c01      	subs	r4, #1
   115ec:	45a3      	cmp	fp, r4
   115ee:	dc0c      	bgt.n	1160a <__kernel_rem_pio2f+0x23a>
   115f0:	00a5      	lsls	r5, r4, #2
   115f2:	ab4a      	add	r3, sp, #296	; 0x128
   115f4:	1959      	adds	r1, r3, r5
   115f6:	1c22      	adds	r2, r4, #0
   115f8:	680b      	ldr	r3, [r1, #0]
   115fa:	3a01      	subs	r2, #1
   115fc:	4318      	orrs	r0, r3
   115fe:	3904      	subs	r1, #4
   11600:	4593      	cmp	fp, r2
   11602:	ddf9      	ble.n	115f8 <__kernel_rem_pio2f+0x228>
   11604:	2800      	cmp	r0, #0
   11606:	d000      	beq.n	1160a <__kernel_rem_pio2f+0x23a>
   11608:	e090      	b.n	1172c <__kernel_rem_pio2f+0x35c>
   1160a:	9c00      	ldr	r4, [sp, #0]
   1160c:	a84a      	add	r0, sp, #296	; 0x128
   1160e:	1823      	adds	r3, r4, r0
   11610:	3b04      	subs	r3, #4
   11612:	681b      	ldr	r3, [r3, #0]
   11614:	2b00      	cmp	r3, #0
   11616:	d000      	beq.n	1161a <__kernel_rem_pio2f+0x24a>
   11618:	e15f      	b.n	118da <__kernel_rem_pio2f+0x50a>
   1161a:	9b00      	ldr	r3, [sp, #0]
   1161c:	a94a      	add	r1, sp, #296	; 0x128
   1161e:	3b08      	subs	r3, #8
   11620:	18ca      	adds	r2, r1, r3
   11622:	2101      	movs	r1, #1
   11624:	6813      	ldr	r3, [r2, #0]
   11626:	3101      	adds	r1, #1
   11628:	3a04      	subs	r2, #4
   1162a:	2b00      	cmp	r3, #0
   1162c:	d0fa      	beq.n	11624 <__kernel_rem_pio2f+0x254>
   1162e:	2201      	movs	r2, #1
   11630:	4452      	add	r2, sl
   11632:	4653      	mov	r3, sl
   11634:	4690      	mov	r8, r2
   11636:	185f      	adds	r7, r3, r1
   11638:	45b8      	cmp	r8, r7
   1163a:	dd01      	ble.n	11640 <__kernel_rem_pio2f+0x270>
   1163c:	46ba      	mov	sl, r7
   1163e:	e733      	b.n	114a8 <__kernel_rem_pio2f+0xd8>
   11640:	9b0d      	ldr	r3, [sp, #52]	; 0x34
   11642:	9c68      	ldr	r4, [sp, #416]	; 0x1a0
   11644:	4453      	add	r3, sl
   11646:	009b      	lsls	r3, r3, #2
   11648:	9a02      	ldr	r2, [sp, #8]
   1164a:	18e3      	adds	r3, r4, r3
   1164c:	3304      	adds	r3, #4
   1164e:	4452      	add	r2, sl
   11650:	9308      	str	r3, [sp, #32]
   11652:	a836      	add	r0, sp, #216	; 0xd8
   11654:	0093      	lsls	r3, r2, #2
   11656:	4641      	mov	r1, r8
   11658:	18c0      	adds	r0, r0, r3
   1165a:	ac0e      	add	r4, sp, #56	; 0x38
   1165c:	008b      	lsls	r3, r1, #2
   1165e:	18e4      	adds	r4, r4, r3
   11660:	9009      	str	r0, [sp, #36]	; 0x24
   11662:	940a      	str	r4, [sp, #40]	; 0x28
   11664:	920b      	str	r2, [sp, #44]	; 0x2c
   11666:	9908      	ldr	r1, [sp, #32]
   11668:	6808      	ldr	r0, [r1, #0]
   1166a:	f000 ff91 	bl	12590 <____floatsisf_from_thumb>
   1166e:	9a09      	ldr	r2, [sp, #36]	; 0x24
   11670:	9b05      	ldr	r3, [sp, #20]
   11672:	6010      	str	r0, [r2, #0]
   11674:	2b00      	cmp	r3, #0
   11676:	db28      	blt.n	116ca <__kernel_rem_pio2f+0x2fa>
   11678:	980b      	ldr	r0, [sp, #44]	; 0x2c
   1167a:	4a16      	ldr	r2, [pc, #88]	; (116d4 <__kernel_rem_pio2f+0x304>)
   1167c:	0083      	lsls	r3, r0, #2
   1167e:	a936      	add	r1, sp, #216	; 0xd8
   11680:	9c04      	ldr	r4, [sp, #16]
   11682:	18cd      	adds	r5, r1, r3
   11684:	2600      	movs	r6, #0
   11686:	4692      	mov	sl, r2
   11688:	6829      	ldr	r1, [r5, #0]
   1168a:	cc01      	ldmia	r4!, {r0}
   1168c:	f000 ff64 	bl	12558 <____mulsf3_from_thumb>
   11690:	1c01      	adds	r1, r0, #0
   11692:	4650      	mov	r0, sl
   11694:	f000 ff50 	bl	12538 <____addsf3_from_thumb>
   11698:	9b02      	ldr	r3, [sp, #8]
   1169a:	3601      	adds	r6, #1
   1169c:	4682      	mov	sl, r0
   1169e:	3d04      	subs	r5, #4
   116a0:	42b3      	cmp	r3, r6
   116a2:	d1f1      	bne.n	11688 <__kernel_rem_pio2f+0x2b8>
   116a4:	9c0a      	ldr	r4, [sp, #40]	; 0x28
   116a6:	4650      	mov	r0, sl
   116a8:	c401      	stmia	r4!, {r0}
   116aa:	9a08      	ldr	r2, [sp, #32]
   116ac:	9b09      	ldr	r3, [sp, #36]	; 0x24
   116ae:	940a      	str	r4, [sp, #40]	; 0x28
   116b0:	9c0b      	ldr	r4, [sp, #44]	; 0x2c
   116b2:	2101      	movs	r1, #1
   116b4:	3204      	adds	r2, #4
   116b6:	3304      	adds	r3, #4
   116b8:	3401      	adds	r4, #1
   116ba:	4488      	add	r8, r1
   116bc:	9208      	str	r2, [sp, #32]
   116be:	9309      	str	r3, [sp, #36]	; 0x24
   116c0:	940b      	str	r4, [sp, #44]	; 0x2c
   116c2:	45b8      	cmp	r8, r7
   116c4:	ddcf      	ble.n	11666 <__kernel_rem_pio2f+0x296>
   116c6:	46ba      	mov	sl, r7
   116c8:	e6ee      	b.n	114a8 <__kernel_rem_pio2f+0xd8>
   116ca:	4c02      	ldr	r4, [pc, #8]	; (116d4 <__kernel_rem_pio2f+0x304>)
   116cc:	46a2      	mov	sl, r4
   116ce:	e7e9      	b.n	116a4 <__kernel_rem_pio2f+0x2d4>
   116d0:	00012c00 	.word	0x00012c00
   116d4:	00000000 	.word	0x00000000
   116d8:	3b800000 	.word	0x3b800000
   116dc:	c3800000 	.word	0xc3800000
   116e0:	3e000000 	.word	0x3e000000
   116e4:	c1000000 	.word	0xc1000000
   116e8:	1c31      	adds	r1, r6, #0
   116ea:	48d4      	ldr	r0, [pc, #848]	; (11a3c <__kernel_rem_pio2f+0x66c>)
   116ec:	f000 ff2c 	bl	12548 <____subsf3_from_thumb>
   116f0:	1c06      	adds	r6, r0, #0
   116f2:	2d00      	cmp	r5, #0
   116f4:	d100      	bne.n	116f8 <__kernel_rem_pio2f+0x328>
   116f6:	e770      	b.n	115da <__kernel_rem_pio2f+0x20a>
   116f8:	4649      	mov	r1, r9
   116fa:	48d0      	ldr	r0, [pc, #832]	; (11a3c <__kernel_rem_pio2f+0x66c>)
   116fc:	f000 fdea 	bl	122d4 <scalbnf>
   11700:	1c01      	adds	r1, r0, #0
   11702:	1c30      	adds	r0, r6, #0
   11704:	f000 ff20 	bl	12548 <____subsf3_from_thumb>
   11708:	1c06      	adds	r6, r0, #0
   1170a:	1c30      	adds	r0, r6, #0
   1170c:	49cc      	ldr	r1, [pc, #816]	; (11a40 <__kernel_rem_pio2f+0x670>)
   1170e:	f000 ff17 	bl	12540 <____eqsf2_from_thumb>
   11712:	2800      	cmp	r0, #0
   11714:	d100      	bne.n	11718 <__kernel_rem_pio2f+0x348>
   11716:	e767      	b.n	115e8 <__kernel_rem_pio2f+0x218>
   11718:	1c30      	adds	r0, r6, #0
   1171a:	49c9      	ldr	r1, [pc, #804]	; (11a40 <__kernel_rem_pio2f+0x670>)
   1171c:	f000 ff10 	bl	12540 <____eqsf2_from_thumb>
   11720:	2800      	cmp	r0, #0
   11722:	d000      	beq.n	11726 <__kernel_rem_pio2f+0x356>
   11724:	e15b      	b.n	119de <__kernel_rem_pio2f+0x60e>
   11726:	4654      	mov	r4, sl
   11728:	3c01      	subs	r4, #1
   1172a:	00a5      	lsls	r5, r4, #2
   1172c:	2294      	movs	r2, #148	; 0x94
   1172e:	0052      	lsls	r2, r2, #1
   11730:	1952      	adds	r2, r2, r5
   11732:	4669      	mov	r1, sp
   11734:	2008      	movs	r0, #8
   11736:	5853      	ldr	r3, [r2, r1]
   11738:	4240      	negs	r0, r0
   1173a:	4481      	add	r9, r0
   1173c:	2b00      	cmp	r3, #0
   1173e:	d000      	beq.n	11742 <__kernel_rem_pio2f+0x372>
   11740:	e1a2      	b.n	11a88 <__kernel_rem_pio2f+0x6b8>
   11742:	1f2b      	subs	r3, r5, #4
   11744:	a84a      	add	r0, sp, #296	; 0x128
   11746:	18c2      	adds	r2, r0, r3
   11748:	46a2      	mov	sl, r4
   1174a:	2308      	movs	r3, #8
   1174c:	425b      	negs	r3, r3
   1174e:	2101      	movs	r1, #1
   11750:	4499      	add	r9, r3
   11752:	6813      	ldr	r3, [r2, #0]
   11754:	4249      	negs	r1, r1
   11756:	448a      	add	sl, r1
   11758:	3a04      	subs	r2, #4
   1175a:	2b00      	cmp	r3, #0
   1175c:	d0f5      	beq.n	1174a <__kernel_rem_pio2f+0x37a>
   1175e:	48b7      	ldr	r0, [pc, #732]	; (11a3c <__kernel_rem_pio2f+0x66c>)
   11760:	4649      	mov	r1, r9
   11762:	f000 fdb7 	bl	122d4 <scalbnf>
   11766:	1c05      	adds	r5, r0, #0
   11768:	4650      	mov	r0, sl
   1176a:	2800      	cmp	r0, #0
   1176c:	db43      	blt.n	117f6 <__kernel_rem_pio2f+0x426>
   1176e:	0083      	lsls	r3, r0, #2
   11770:	a94a      	add	r1, sp, #296	; 0x128
   11772:	aa0e      	add	r2, sp, #56	; 0x38
   11774:	18cf      	adds	r7, r1, r3
   11776:	18d6      	adds	r6, r2, r3
   11778:	4654      	mov	r4, sl
   1177a:	6838      	ldr	r0, [r7, #0]
   1177c:	f000 ff08 	bl	12590 <____floatsisf_from_thumb>
   11780:	1c29      	adds	r1, r5, #0
   11782:	f000 fee9 	bl	12558 <____mulsf3_from_thumb>
   11786:	49af      	ldr	r1, [pc, #700]	; (11a44 <__kernel_rem_pio2f+0x674>)
   11788:	6030      	str	r0, [r6, #0]
   1178a:	1c28      	adds	r0, r5, #0
   1178c:	f000 fee4 	bl	12558 <____mulsf3_from_thumb>
   11790:	3f04      	subs	r7, #4
   11792:	1c05      	adds	r5, r0, #0
   11794:	3e04      	subs	r6, #4
   11796:	3c01      	subs	r4, #1
   11798:	d2ef      	bcs.n	1177a <__kernel_rem_pio2f+0x3aa>
   1179a:	2300      	movs	r3, #0
   1179c:	46d1      	mov	r9, sl
   1179e:	4698      	mov	r8, r3
   117a0:	465b      	mov	r3, fp
   117a2:	2b00      	cmp	r3, #0
   117a4:	da00      	bge.n	117a8 <__kernel_rem_pio2f+0x3d8>
   117a6:	e0ac      	b.n	11902 <__kernel_rem_pio2f+0x532>
   117a8:	4644      	mov	r4, r8
   117aa:	2c00      	cmp	r4, #0
   117ac:	da00      	bge.n	117b0 <__kernel_rem_pio2f+0x3e0>
   117ae:	e0a8      	b.n	11902 <__kernel_rem_pio2f+0x532>
   117b0:	4648      	mov	r0, r9
   117b2:	0083      	lsls	r3, r0, #2
   117b4:	a90e      	add	r1, sp, #56	; 0x38
   117b6:	4fa2      	ldr	r7, [pc, #648]	; (11a40 <__kernel_rem_pio2f+0x670>)
   117b8:	4da3      	ldr	r5, [pc, #652]	; (11a48 <__kernel_rem_pio2f+0x678>)
   117ba:	18ce      	adds	r6, r1, r3
   117bc:	2400      	movs	r4, #0
   117be:	e003      	b.n	117c8 <__kernel_rem_pio2f+0x3f8>
   117c0:	3504      	adds	r5, #4
   117c2:	3604      	adds	r6, #4
   117c4:	4544      	cmp	r4, r8
   117c6:	dc0b      	bgt.n	117e0 <__kernel_rem_pio2f+0x410>
   117c8:	6831      	ldr	r1, [r6, #0]
   117ca:	6828      	ldr	r0, [r5, #0]
   117cc:	f000 fec4 	bl	12558 <____mulsf3_from_thumb>
   117d0:	1c01      	adds	r1, r0, #0
   117d2:	1c38      	adds	r0, r7, #0
   117d4:	f000 feb0 	bl	12538 <____addsf3_from_thumb>
   117d8:	3401      	adds	r4, #1
   117da:	1c07      	adds	r7, r0, #0
   117dc:	45a3      	cmp	fp, r4
   117de:	daef      	bge.n	117c0 <__kernel_rem_pio2f+0x3f0>
   117e0:	4644      	mov	r4, r8
   117e2:	00a3      	lsls	r3, r4, #2
   117e4:	3388      	adds	r3, #136	; 0x88
   117e6:	4668      	mov	r0, sp
   117e8:	2101      	movs	r1, #1
   117ea:	464a      	mov	r2, r9
   117ec:	501f      	str	r7, [r3, r0]
   117ee:	4488      	add	r8, r1
   117f0:	3a01      	subs	r2, #1
   117f2:	4691      	mov	r9, r2
   117f4:	d2d4      	bcs.n	117a0 <__kernel_rem_pio2f+0x3d0>
   117f6:	9a67      	ldr	r2, [sp, #412]	; 0x19c
   117f8:	2a02      	cmp	r2, #2
   117fa:	dd00      	ble.n	117fe <__kernel_rem_pio2f+0x42e>
   117fc:	e088      	b.n	11910 <__kernel_rem_pio2f+0x540>
   117fe:	2a01      	cmp	r2, #1
   11800:	da00      	bge.n	11804 <__kernel_rem_pio2f+0x434>
   11802:	e129      	b.n	11a58 <__kernel_rem_pio2f+0x688>
   11804:	4650      	mov	r0, sl
   11806:	2800      	cmp	r0, #0
   11808:	da00      	bge.n	1180c <__kernel_rem_pio2f+0x43c>
   1180a:	e157      	b.n	11abc <__kernel_rem_pio2f+0x6ec>
   1180c:	4654      	mov	r4, sl
   1180e:	00a3      	lsls	r3, r4, #2
   11810:	a822      	add	r0, sp, #136	; 0x88
   11812:	498b      	ldr	r1, [pc, #556]	; (11a40 <__kernel_rem_pio2f+0x670>)
   11814:	18c5      	adds	r5, r0, r3
   11816:	1c08      	adds	r0, r1, #0
   11818:	6829      	ldr	r1, [r5, #0]
   1181a:	f000 fe8d 	bl	12538 <____addsf3_from_thumb>
   1181e:	3d04      	subs	r5, #4
   11820:	1c01      	adds	r1, r0, #0
   11822:	3c01      	subs	r4, #1
   11824:	d2f7      	bcs.n	11816 <__kernel_rem_pio2f+0x446>
   11826:	9a07      	ldr	r2, [sp, #28]
   11828:	2a00      	cmp	r2, #0
   1182a:	d000      	beq.n	1182e <__kernel_rem_pio2f+0x45e>
   1182c:	e0d3      	b.n	119d6 <__kernel_rem_pio2f+0x606>
   1182e:	1c0b      	adds	r3, r1, #0
   11830:	9803      	ldr	r0, [sp, #12]
   11832:	6003      	str	r3, [r0, #0]
   11834:	9822      	ldr	r0, [sp, #136]	; 0x88
   11836:	f000 fe87 	bl	12548 <____subsf3_from_thumb>
   1183a:	4651      	mov	r1, sl
   1183c:	2900      	cmp	r1, #0
   1183e:	dd0b      	ble.n	11858 <__kernel_rem_pio2f+0x488>
   11840:	4654      	mov	r4, sl
   11842:	2501      	movs	r5, #1
   11844:	3401      	adds	r4, #1
   11846:	00ab      	lsls	r3, r5, #2
   11848:	3388      	adds	r3, #136	; 0x88
   1184a:	466a      	mov	r2, sp
   1184c:	5899      	ldr	r1, [r3, r2]
   1184e:	3501      	adds	r5, #1
   11850:	f000 fe72 	bl	12538 <____addsf3_from_thumb>
   11854:	42ac      	cmp	r4, r5
   11856:	d1f6      	bne.n	11846 <__kernel_rem_pio2f+0x476>
   11858:	9b07      	ldr	r3, [sp, #28]
   1185a:	2b00      	cmp	r3, #0
   1185c:	d003      	beq.n	11866 <__kernel_rem_pio2f+0x496>
   1185e:	2480      	movs	r4, #128	; 0x80
   11860:	0624      	lsls	r4, r4, #24
   11862:	1903      	adds	r3, r0, r4
   11864:	1c18      	adds	r0, r3, #0
   11866:	9903      	ldr	r1, [sp, #12]
   11868:	6048      	str	r0, [r1, #4]
   1186a:	9806      	ldr	r0, [sp, #24]
   1186c:	2307      	movs	r3, #7
   1186e:	4018      	ands	r0, r3
   11870:	b05e      	add	sp, #376	; 0x178
   11872:	bc3c      	pop	{r2, r3, r4, r5}
   11874:	4690      	mov	r8, r2
   11876:	4699      	mov	r9, r3
   11878:	46a2      	mov	sl, r4
   1187a:	46ab      	mov	fp, r5
   1187c:	bcf0      	pop	{r4, r5, r6, r7}
   1187e:	bc02      	pop	{r1}
   11880:	4708      	bx	r1
   11882:	4648      	mov	r0, r9
   11884:	2800      	cmp	r0, #0
   11886:	d11f      	bne.n	118c8 <__kernel_rem_pio2f+0x4f8>
   11888:	9901      	ldr	r1, [sp, #4]
   1188a:	aa4a      	add	r2, sp, #296	; 0x128
   1188c:	188b      	adds	r3, r1, r2
   1188e:	3b04      	subs	r3, #4
   11890:	681b      	ldr	r3, [r3, #0]
   11892:	121b      	asrs	r3, r3, #8
   11894:	9307      	str	r3, [sp, #28]
   11896:	e670      	b.n	1157a <__kernel_rem_pio2f+0x1aa>
   11898:	4653      	mov	r3, sl
   1189a:	3b01      	subs	r3, #1
   1189c:	2094      	movs	r0, #148	; 0x94
   1189e:	009b      	lsls	r3, r3, #2
   118a0:	0040      	lsls	r0, r0, #1
   118a2:	18c0      	adds	r0, r0, r3
   118a4:	466c      	mov	r4, sp
   118a6:	5902      	ldr	r2, [r0, r4]
   118a8:	217f      	movs	r1, #127	; 0x7f
   118aa:	400a      	ands	r2, r1
   118ac:	5102      	str	r2, [r0, r4]
   118ae:	e690      	b.n	115d2 <__kernel_rem_pio2f+0x202>
   118b0:	4653      	mov	r3, sl
   118b2:	3b01      	subs	r3, #1
   118b4:	2094      	movs	r0, #148	; 0x94
   118b6:	009b      	lsls	r3, r3, #2
   118b8:	0040      	lsls	r0, r0, #1
   118ba:	18c0      	adds	r0, r0, r3
   118bc:	466c      	mov	r4, sp
   118be:	5902      	ldr	r2, [r0, r4]
   118c0:	213f      	movs	r1, #63	; 0x3f
   118c2:	400a      	ands	r2, r1
   118c4:	5102      	str	r2, [r0, r4]
   118c6:	e684      	b.n	115d2 <__kernel_rem_pio2f+0x202>
   118c8:	1c30      	adds	r0, r6, #0
   118ca:	4960      	ldr	r1, [pc, #384]	; (11a4c <__kernel_rem_pio2f+0x67c>)
   118cc:	f000 fe5c 	bl	12588 <____gesf2_from_thumb>
   118d0:	2800      	cmp	r0, #0
   118d2:	da1a      	bge.n	1190a <__kernel_rem_pio2f+0x53a>
   118d4:	2300      	movs	r3, #0
   118d6:	9307      	str	r3, [sp, #28]
   118d8:	e67f      	b.n	115da <__kernel_rem_pio2f+0x20a>
   118da:	2201      	movs	r2, #1
   118dc:	2101      	movs	r1, #1
   118de:	4452      	add	r2, sl
   118e0:	4653      	mov	r3, sl
   118e2:	4690      	mov	r8, r2
   118e4:	185f      	adds	r7, r3, r1
   118e6:	45b8      	cmp	r8, r7
   118e8:	dd00      	ble.n	118ec <__kernel_rem_pio2f+0x51c>
   118ea:	e6a7      	b.n	1163c <__kernel_rem_pio2f+0x26c>
   118ec:	e6a8      	b.n	11640 <__kernel_rem_pio2f+0x270>
   118ee:	9b0c      	ldr	r3, [sp, #48]	; 0x30
   118f0:	4e53      	ldr	r6, [pc, #332]	; (11a40 <__kernel_rem_pio2f+0x670>)
   118f2:	2401      	movs	r4, #1
   118f4:	c340      	stmia	r3!, {r6}
   118f6:	44a0      	add	r8, r4
   118f8:	930c      	str	r3, [sp, #48]	; 0x30
   118fa:	45d0      	cmp	r8, sl
   118fc:	d000      	beq.n	11900 <__kernel_rem_pio2f+0x530>
   118fe:	e5af      	b.n	11460 <__kernel_rem_pio2f+0x90>
   11900:	e5ce      	b.n	114a0 <__kernel_rem_pio2f+0xd0>
   11902:	4f4f      	ldr	r7, [pc, #316]	; (11a40 <__kernel_rem_pio2f+0x670>)
   11904:	e76c      	b.n	117e0 <__kernel_rem_pio2f+0x410>
   11906:	2500      	movs	r5, #0
   11908:	e65a      	b.n	115c0 <__kernel_rem_pio2f+0x1f0>
   1190a:	2402      	movs	r4, #2
   1190c:	9407      	str	r4, [sp, #28]
   1190e:	e637      	b.n	11580 <__kernel_rem_pio2f+0x1b0>
   11910:	9b67      	ldr	r3, [sp, #412]	; 0x19c
   11912:	2b03      	cmp	r3, #3
   11914:	d1a9      	bne.n	1186a <__kernel_rem_pio2f+0x49a>
   11916:	4651      	mov	r1, sl
   11918:	2900      	cmp	r1, #0
   1191a:	dd1e      	ble.n	1195a <__kernel_rem_pio2f+0x58a>
   1191c:	4652      	mov	r2, sl
   1191e:	0093      	lsls	r3, r2, #2
   11920:	ac5e      	add	r4, sp, #376	; 0x178
   11922:	191b      	adds	r3, r3, r4
   11924:	1c1f      	adds	r7, r3, #0
   11926:	3ff4      	subs	r7, #244	; 0xf4
   11928:	46d0      	mov	r8, sl
   1192a:	683c      	ldr	r4, [r7, #0]
   1192c:	687d      	ldr	r5, [r7, #4]
   1192e:	2001      	movs	r0, #1
   11930:	4240      	negs	r0, r0
   11932:	4480      	add	r8, r0
   11934:	1c29      	adds	r1, r5, #0
   11936:	1c20      	adds	r0, r4, #0
   11938:	f000 fdfe 	bl	12538 <____addsf3_from_thumb>
   1193c:	1c06      	adds	r6, r0, #0
   1193e:	1c31      	adds	r1, r6, #0
   11940:	1c20      	adds	r0, r4, #0
   11942:	f000 fe01 	bl	12548 <____subsf3_from_thumb>
   11946:	1c01      	adds	r1, r0, #0
   11948:	1c28      	adds	r0, r5, #0
   1194a:	f000 fdf5 	bl	12538 <____addsf3_from_thumb>
   1194e:	4641      	mov	r1, r8
   11950:	6078      	str	r0, [r7, #4]
   11952:	603e      	str	r6, [r7, #0]
   11954:	3f04      	subs	r7, #4
   11956:	2900      	cmp	r1, #0
   11958:	d1e7      	bne.n	1192a <__kernel_rem_pio2f+0x55a>
   1195a:	4652      	mov	r2, sl
   1195c:	2a01      	cmp	r2, #1
   1195e:	dc00      	bgt.n	11962 <__kernel_rem_pio2f+0x592>
   11960:	e0ae      	b.n	11ac0 <__kernel_rem_pio2f+0x6f0>
   11962:	4653      	mov	r3, sl
   11964:	009b      	lsls	r3, r3, #2
   11966:	9301      	str	r3, [sp, #4]
   11968:	ac22      	add	r4, sp, #136	; 0x88
   1196a:	3b04      	subs	r3, #4
   1196c:	18e7      	adds	r7, r4, r3
   1196e:	46d0      	mov	r8, sl
   11970:	683c      	ldr	r4, [r7, #0]
   11972:	687d      	ldr	r5, [r7, #4]
   11974:	2001      	movs	r0, #1
   11976:	4240      	negs	r0, r0
   11978:	4480      	add	r8, r0
   1197a:	1c29      	adds	r1, r5, #0
   1197c:	1c20      	adds	r0, r4, #0
   1197e:	f000 fddb 	bl	12538 <____addsf3_from_thumb>
   11982:	1c06      	adds	r6, r0, #0
   11984:	1c31      	adds	r1, r6, #0
   11986:	1c20      	adds	r0, r4, #0
   11988:	f000 fdde 	bl	12548 <____subsf3_from_thumb>
   1198c:	1c01      	adds	r1, r0, #0
   1198e:	1c28      	adds	r0, r5, #0
   11990:	f000 fdd2 	bl	12538 <____addsf3_from_thumb>
   11994:	4641      	mov	r1, r8
   11996:	6078      	str	r0, [r7, #4]
   11998:	603e      	str	r6, [r7, #0]
   1199a:	3f04      	subs	r7, #4
   1199c:	2901      	cmp	r1, #1
   1199e:	d1e7      	bne.n	11970 <__kernel_rem_pio2f+0x5a0>
   119a0:	9b01      	ldr	r3, [sp, #4]
   119a2:	aa22      	add	r2, sp, #136	; 0x88
   119a4:	4826      	ldr	r0, [pc, #152]	; (11a40 <__kernel_rem_pio2f+0x670>)
   119a6:	18d5      	adds	r5, r2, r3
   119a8:	4654      	mov	r4, sl
   119aa:	6829      	ldr	r1, [r5, #0]
   119ac:	3c01      	subs	r4, #1
   119ae:	f000 fdc3 	bl	12538 <____addsf3_from_thumb>
   119b2:	3d04      	subs	r5, #4
   119b4:	2c01      	cmp	r4, #1
   119b6:	d1f8      	bne.n	119aa <__kernel_rem_pio2f+0x5da>
   119b8:	9c07      	ldr	r4, [sp, #28]
   119ba:	2c00      	cmp	r4, #0
   119bc:	d16d      	bne.n	11a9a <__kernel_rem_pio2f+0x6ca>
   119be:	9b22      	ldr	r3, [sp, #136]	; 0x88
   119c0:	9903      	ldr	r1, [sp, #12]
   119c2:	600b      	str	r3, [r1, #0]
   119c4:	9b23      	ldr	r3, [sp, #140]	; 0x8c
   119c6:	6088      	str	r0, [r1, #8]
   119c8:	604b      	str	r3, [r1, #4]
   119ca:	e74e      	b.n	1186a <__kernel_rem_pio2f+0x49a>
   119cc:	2300      	movs	r3, #0
   119ce:	930d      	str	r3, [sp, #52]	; 0x34
   119d0:	e519      	b.n	11406 <__kernel_rem_pio2f+0x36>
   119d2:	1d0b      	adds	r3, r1, #4
   119d4:	e512      	b.n	113fc <__kernel_rem_pio2f+0x2c>
   119d6:	2480      	movs	r4, #128	; 0x80
   119d8:	0624      	lsls	r4, r4, #24
   119da:	190b      	adds	r3, r1, r4
   119dc:	e728      	b.n	11830 <__kernel_rem_pio2f+0x460>
   119de:	464c      	mov	r4, r9
   119e0:	4261      	negs	r1, r4
   119e2:	1c30      	adds	r0, r6, #0
   119e4:	f000 fc76 	bl	122d4 <scalbnf>
   119e8:	4919      	ldr	r1, [pc, #100]	; (11a50 <__kernel_rem_pio2f+0x680>)
   119ea:	1c04      	adds	r4, r0, #0
   119ec:	f000 fdcc 	bl	12588 <____gesf2_from_thumb>
   119f0:	2800      	cmp	r0, #0
   119f2:	db4b      	blt.n	11a8c <__kernel_rem_pio2f+0x6bc>
   119f4:	4913      	ldr	r1, [pc, #76]	; (11a44 <__kernel_rem_pio2f+0x674>)
   119f6:	1c20      	adds	r0, r4, #0
   119f8:	f000 fdae 	bl	12558 <____mulsf3_from_thumb>
   119fc:	f000 fdbc 	bl	12578 <____fixsfsi_from_thumb>
   11a00:	f000 fdc6 	bl	12590 <____floatsisf_from_thumb>
   11a04:	4913      	ldr	r1, [pc, #76]	; (11a54 <__kernel_rem_pio2f+0x684>)
   11a06:	1c05      	adds	r5, r0, #0
   11a08:	f000 fda6 	bl	12558 <____mulsf3_from_thumb>
   11a0c:	1c01      	adds	r1, r0, #0
   11a0e:	1c20      	adds	r0, r4, #0
   11a10:	f000 fd92 	bl	12538 <____addsf3_from_thumb>
   11a14:	f000 fdb0 	bl	12578 <____fixsfsi_from_thumb>
   11a18:	9901      	ldr	r1, [sp, #4]
   11a1a:	2301      	movs	r3, #1
   11a1c:	aa4a      	add	r2, sp, #296	; 0x128
   11a1e:	449a      	add	sl, r3
   11a20:	5088      	str	r0, [r1, r2]
   11a22:	2408      	movs	r4, #8
   11a24:	4650      	mov	r0, sl
   11a26:	44a1      	add	r9, r4
   11a28:	0084      	lsls	r4, r0, #2
   11a2a:	1c28      	adds	r0, r5, #0
   11a2c:	f000 fda4 	bl	12578 <____fixsfsi_from_thumb>
   11a30:	2294      	movs	r2, #148	; 0x94
   11a32:	0052      	lsls	r2, r2, #1
   11a34:	1912      	adds	r2, r2, r4
   11a36:	4669      	mov	r1, sp
   11a38:	5050      	str	r0, [r2, r1]
   11a3a:	e690      	b.n	1175e <__kernel_rem_pio2f+0x38e>
   11a3c:	3f800000 	.word	0x3f800000
   11a40:	00000000 	.word	0x00000000
   11a44:	3b800000 	.word	0x3b800000
   11a48:	00012c0c 	.word	0x00012c0c
   11a4c:	3f000000 	.word	0x3f000000
   11a50:	43800000 	.word	0x43800000
   11a54:	c3800000 	.word	0xc3800000
   11a58:	2a00      	cmp	r2, #0
   11a5a:	d000      	beq.n	11a5e <__kernel_rem_pio2f+0x68e>
   11a5c:	e705      	b.n	1186a <__kernel_rem_pio2f+0x49a>
   11a5e:	4654      	mov	r4, sl
   11a60:	2c00      	cmp	r4, #0
   11a62:	db2f      	blt.n	11ac4 <__kernel_rem_pio2f+0x6f4>
   11a64:	4653      	mov	r3, sl
   11a66:	009a      	lsls	r2, r3, #2
   11a68:	4817      	ldr	r0, [pc, #92]	; (11ac8 <__kernel_rem_pio2f+0x6f8>)
   11a6a:	ab22      	add	r3, sp, #136	; 0x88
   11a6c:	189d      	adds	r5, r3, r2
   11a6e:	4654      	mov	r4, sl
   11a70:	6829      	ldr	r1, [r5, #0]
   11a72:	f000 fd61 	bl	12538 <____addsf3_from_thumb>
   11a76:	3d04      	subs	r5, #4
   11a78:	3c01      	subs	r4, #1
   11a7a:	d2f9      	bcs.n	11a70 <__kernel_rem_pio2f+0x6a0>
   11a7c:	9c07      	ldr	r4, [sp, #28]
   11a7e:	2c00      	cmp	r4, #0
   11a80:	d117      	bne.n	11ab2 <__kernel_rem_pio2f+0x6e2>
   11a82:	9a03      	ldr	r2, [sp, #12]
   11a84:	6010      	str	r0, [r2, #0]
   11a86:	e6f0      	b.n	1186a <__kernel_rem_pio2f+0x49a>
   11a88:	46a2      	mov	sl, r4
   11a8a:	e668      	b.n	1175e <__kernel_rem_pio2f+0x38e>
   11a8c:	1c20      	adds	r0, r4, #0
   11a8e:	f000 fd73 	bl	12578 <____fixsfsi_from_thumb>
   11a92:	9b01      	ldr	r3, [sp, #4]
   11a94:	ac4a      	add	r4, sp, #296	; 0x128
   11a96:	5118      	str	r0, [r3, r4]
   11a98:	e661      	b.n	1175e <__kernel_rem_pio2f+0x38e>
   11a9a:	9b22      	ldr	r3, [sp, #136]	; 0x88
   11a9c:	2280      	movs	r2, #128	; 0x80
   11a9e:	0612      	lsls	r2, r2, #24
   11aa0:	9c03      	ldr	r4, [sp, #12]
   11aa2:	189b      	adds	r3, r3, r2
   11aa4:	6023      	str	r3, [r4, #0]
   11aa6:	9b23      	ldr	r3, [sp, #140]	; 0x8c
   11aa8:	189b      	adds	r3, r3, r2
   11aaa:	6063      	str	r3, [r4, #4]
   11aac:	1883      	adds	r3, r0, r2
   11aae:	60a3      	str	r3, [r4, #8]
   11ab0:	e6db      	b.n	1186a <__kernel_rem_pio2f+0x49a>
   11ab2:	2180      	movs	r1, #128	; 0x80
   11ab4:	0609      	lsls	r1, r1, #24
   11ab6:	1843      	adds	r3, r0, r1
   11ab8:	1c18      	adds	r0, r3, #0
   11aba:	e7e2      	b.n	11a82 <__kernel_rem_pio2f+0x6b2>
   11abc:	4902      	ldr	r1, [pc, #8]	; (11ac8 <__kernel_rem_pio2f+0x6f8>)
   11abe:	e6b2      	b.n	11826 <__kernel_rem_pio2f+0x456>
   11ac0:	4801      	ldr	r0, [pc, #4]	; (11ac8 <__kernel_rem_pio2f+0x6f8>)
   11ac2:	e779      	b.n	119b8 <__kernel_rem_pio2f+0x5e8>
   11ac4:	4800      	ldr	r0, [pc, #0]	; (11ac8 <__kernel_rem_pio2f+0x6f8>)
   11ac6:	e7d9      	b.n	11a7c <__kernel_rem_pio2f+0x6ac>
   11ac8:	00000000 	.word	0x00000000

00011acc <__kernel_sinf>:
   11acc:	b5f0      	push	{r4, r5, r6, r7, lr}
   11ace:	4657      	mov	r7, sl
   11ad0:	4646      	mov	r6, r8
   11ad2:	b4c0      	push	{r6, r7}
   11ad4:	1c14      	adds	r4, r2, #0
   11ad6:	4a37      	ldr	r2, [pc, #220]	; (11bb4 <__kernel_sinf+0xe8>)
   11ad8:	1c03      	adds	r3, r0, #0
   11ada:	4013      	ands	r3, r2
   11adc:	4a36      	ldr	r2, [pc, #216]	; (11bb8 <__kernel_sinf+0xec>)
   11ade:	1c06      	adds	r6, r0, #0
   11ae0:	468a      	mov	sl, r1
   11ae2:	4293      	cmp	r3, r2
   11ae4:	dc03      	bgt.n	11aee <__kernel_sinf+0x22>
   11ae6:	f000 fd47 	bl	12578 <____fixsfsi_from_thumb>
   11aea:	2800      	cmp	r0, #0
   11aec:	d04a      	beq.n	11b84 <__kernel_sinf+0xb8>
   11aee:	1c31      	adds	r1, r6, #0
   11af0:	1c30      	adds	r0, r6, #0
   11af2:	f000 fd31 	bl	12558 <____mulsf3_from_thumb>
   11af6:	1c05      	adds	r5, r0, #0
   11af8:	1c29      	adds	r1, r5, #0
   11afa:	1c30      	adds	r0, r6, #0
   11afc:	f000 fd2c 	bl	12558 <____mulsf3_from_thumb>
   11b00:	492e      	ldr	r1, [pc, #184]	; (11bbc <__kernel_sinf+0xf0>)
   11b02:	4680      	mov	r8, r0
   11b04:	1c28      	adds	r0, r5, #0
   11b06:	f000 fd27 	bl	12558 <____mulsf3_from_thumb>
   11b0a:	492d      	ldr	r1, [pc, #180]	; (11bc0 <__kernel_sinf+0xf4>)
   11b0c:	f000 fd1c 	bl	12548 <____subsf3_from_thumb>
   11b10:	1c01      	adds	r1, r0, #0
   11b12:	1c28      	adds	r0, r5, #0
   11b14:	f000 fd20 	bl	12558 <____mulsf3_from_thumb>
   11b18:	492a      	ldr	r1, [pc, #168]	; (11bc4 <__kernel_sinf+0xf8>)
   11b1a:	f000 fd0d 	bl	12538 <____addsf3_from_thumb>
   11b1e:	1c01      	adds	r1, r0, #0
   11b20:	1c28      	adds	r0, r5, #0
   11b22:	f000 fd19 	bl	12558 <____mulsf3_from_thumb>
   11b26:	4928      	ldr	r1, [pc, #160]	; (11bc8 <__kernel_sinf+0xfc>)
   11b28:	f000 fd0e 	bl	12548 <____subsf3_from_thumb>
   11b2c:	1c01      	adds	r1, r0, #0
   11b2e:	1c28      	adds	r0, r5, #0
   11b30:	f000 fd12 	bl	12558 <____mulsf3_from_thumb>
   11b34:	4925      	ldr	r1, [pc, #148]	; (11bcc <__kernel_sinf+0x100>)
   11b36:	f000 fcff 	bl	12538 <____addsf3_from_thumb>
   11b3a:	1c07      	adds	r7, r0, #0
   11b3c:	2c00      	cmp	r4, #0
   11b3e:	d028      	beq.n	11b92 <__kernel_sinf+0xc6>
   11b40:	4923      	ldr	r1, [pc, #140]	; (11bd0 <__kernel_sinf+0x104>)
   11b42:	4650      	mov	r0, sl
   11b44:	f000 fd08 	bl	12558 <____mulsf3_from_thumb>
   11b48:	1c39      	adds	r1, r7, #0
   11b4a:	1c04      	adds	r4, r0, #0
   11b4c:	4640      	mov	r0, r8
   11b4e:	f000 fd03 	bl	12558 <____mulsf3_from_thumb>
   11b52:	1c01      	adds	r1, r0, #0
   11b54:	1c20      	adds	r0, r4, #0
   11b56:	f000 fcf7 	bl	12548 <____subsf3_from_thumb>
   11b5a:	1c01      	adds	r1, r0, #0
   11b5c:	1c28      	adds	r0, r5, #0
   11b5e:	f000 fcfb 	bl	12558 <____mulsf3_from_thumb>
   11b62:	4651      	mov	r1, sl
   11b64:	f000 fcf0 	bl	12548 <____subsf3_from_thumb>
   11b68:	491a      	ldr	r1, [pc, #104]	; (11bd4 <__kernel_sinf+0x108>)
   11b6a:	1c04      	adds	r4, r0, #0
   11b6c:	4640      	mov	r0, r8
   11b6e:	f000 fcf3 	bl	12558 <____mulsf3_from_thumb>
   11b72:	1c01      	adds	r1, r0, #0
   11b74:	1c20      	adds	r0, r4, #0
   11b76:	f000 fcdf 	bl	12538 <____addsf3_from_thumb>
   11b7a:	1c01      	adds	r1, r0, #0
   11b7c:	1c30      	adds	r0, r6, #0
   11b7e:	f000 fce3 	bl	12548 <____subsf3_from_thumb>
   11b82:	1c06      	adds	r6, r0, #0
   11b84:	1c30      	adds	r0, r6, #0
   11b86:	bc0c      	pop	{r2, r3}
   11b88:	4690      	mov	r8, r2
   11b8a:	469a      	mov	sl, r3
   11b8c:	bcf0      	pop	{r4, r5, r6, r7}
   11b8e:	bc02      	pop	{r1}
   11b90:	4708      	bx	r1
   11b92:	1c39      	adds	r1, r7, #0
   11b94:	1c28      	adds	r0, r5, #0
   11b96:	f000 fcdf 	bl	12558 <____mulsf3_from_thumb>
   11b9a:	490e      	ldr	r1, [pc, #56]	; (11bd4 <__kernel_sinf+0x108>)
   11b9c:	f000 fcd4 	bl	12548 <____subsf3_from_thumb>
   11ba0:	1c01      	adds	r1, r0, #0
   11ba2:	4640      	mov	r0, r8
   11ba4:	f000 fcd8 	bl	12558 <____mulsf3_from_thumb>
   11ba8:	1c01      	adds	r1, r0, #0
   11baa:	1c30      	adds	r0, r6, #0
   11bac:	f000 fcc4 	bl	12538 <____addsf3_from_thumb>
   11bb0:	1c06      	adds	r6, r0, #0
   11bb2:	e7e7      	b.n	11b84 <__kernel_sinf+0xb8>
   11bb4:	7fffffff 	.word	0x7fffffff
   11bb8:	31ffffff 	.word	0x31ffffff
   11bbc:	2f2ec9d3 	.word	0x2f2ec9d3
   11bc0:	32d72f34 	.word	0x32d72f34
   11bc4:	3638ef1b 	.word	0x3638ef1b
   11bc8:	39500d01 	.word	0x39500d01
   11bcc:	3c088889 	.word	0x3c088889
   11bd0:	3f000000 	.word	0x3f000000
   11bd4:	3e2aaaab 	.word	0x3e2aaaab

00011bd8 <atan>:
   11bd8:	b5f0      	push	{r4, r5, r6, r7, lr}
   11bda:	4657      	mov	r7, sl
   11bdc:	4646      	mov	r6, r8
   11bde:	b4c0      	push	{r6, r7}
   11be0:	4baf      	ldr	r3, [pc, #700]	; (11ea0 <atan+0x2c8>)
   11be2:	1c05      	adds	r5, r0, #0
   11be4:	401d      	ands	r5, r3
   11be6:	4baf      	ldr	r3, [pc, #700]	; (11ea4 <atan+0x2cc>)
   11be8:	b084      	sub	sp, #16
   11bea:	1c06      	adds	r6, r0, #0
   11bec:	1c0f      	adds	r7, r1, #0
   11bee:	4680      	mov	r8, r0
   11bf0:	429d      	cmp	r5, r3
   11bf2:	dd14      	ble.n	11c1e <atan+0x46>
   11bf4:	4aac      	ldr	r2, [pc, #688]	; (11ea8 <atan+0x2d0>)
   11bf6:	4295      	cmp	r5, r2
   11bf8:	dc00      	bgt.n	11bfc <atan+0x24>
   11bfa:	e0b8      	b.n	11d6e <atan+0x196>
   11bfc:	1c30      	adds	r0, r6, #0
   11bfe:	1c39      	adds	r1, r7, #0
   11c00:	1c32      	adds	r2, r6, #0
   11c02:	1c3b      	adds	r3, r7, #0
   11c04:	f000 fcac 	bl	12560 <____adddf3_from_thumb>
   11c08:	1c06      	adds	r6, r0, #0
   11c0a:	1c0f      	adds	r7, r1, #0
   11c0c:	1c30      	adds	r0, r6, #0
   11c0e:	1c39      	adds	r1, r7, #0
   11c10:	b004      	add	sp, #16
   11c12:	bc0c      	pop	{r2, r3}
   11c14:	4690      	mov	r8, r2
   11c16:	469a      	mov	sl, r3
   11c18:	bcf0      	pop	{r4, r5, r6, r7}
   11c1a:	bc04      	pop	{r2}
   11c1c:	4710      	bx	r2
   11c1e:	4ba3      	ldr	r3, [pc, #652]	; (11eac <atan+0x2d4>)
   11c20:	429d      	cmp	r5, r3
   11c22:	dd00      	ble.n	11c26 <atan+0x4e>
   11c24:	e0b7      	b.n	11d96 <atan+0x1be>
   11c26:	4ba2      	ldr	r3, [pc, #648]	; (11eb0 <atan+0x2d8>)
   11c28:	429d      	cmp	r5, r3
   11c2a:	dc00      	bgt.n	11c2e <atan+0x56>
   11c2c:	e0a7      	b.n	11d7e <atan+0x1a6>
   11c2e:	2301      	movs	r3, #1
   11c30:	4259      	negs	r1, r3
   11c32:	468a      	mov	sl, r1
   11c34:	1c32      	adds	r2, r6, #0
   11c36:	1c3b      	adds	r3, r7, #0
   11c38:	1c30      	adds	r0, r6, #0
   11c3a:	1c39      	adds	r1, r7, #0
   11c3c:	f000 fc88 	bl	12550 <____muldf3_from_thumb>
   11c40:	1c02      	adds	r2, r0, #0
   11c42:	1c0b      	adds	r3, r1, #0
   11c44:	9000      	str	r0, [sp, #0]
   11c46:	9101      	str	r1, [sp, #4]
   11c48:	f000 fc82 	bl	12550 <____muldf3_from_thumb>
   11c4c:	4a99      	ldr	r2, [pc, #612]	; (11eb4 <atan+0x2dc>)
   11c4e:	4b9a      	ldr	r3, [pc, #616]	; (11eb8 <atan+0x2e0>)
   11c50:	1c04      	adds	r4, r0, #0
   11c52:	1c0d      	adds	r5, r1, #0
   11c54:	f000 fc7c 	bl	12550 <____muldf3_from_thumb>
   11c58:	4a98      	ldr	r2, [pc, #608]	; (11ebc <atan+0x2e4>)
   11c5a:	4b99      	ldr	r3, [pc, #612]	; (11ec0 <atan+0x2e8>)
   11c5c:	f000 fc80 	bl	12560 <____adddf3_from_thumb>
   11c60:	1c02      	adds	r2, r0, #0
   11c62:	1c0b      	adds	r3, r1, #0
   11c64:	1c20      	adds	r0, r4, #0
   11c66:	1c29      	adds	r1, r5, #0
   11c68:	f000 fc72 	bl	12550 <____muldf3_from_thumb>
   11c6c:	4a95      	ldr	r2, [pc, #596]	; (11ec4 <atan+0x2ec>)
   11c6e:	4b96      	ldr	r3, [pc, #600]	; (11ec8 <atan+0x2f0>)
   11c70:	f000 fc76 	bl	12560 <____adddf3_from_thumb>
   11c74:	1c02      	adds	r2, r0, #0
   11c76:	1c0b      	adds	r3, r1, #0
   11c78:	1c20      	adds	r0, r4, #0
   11c7a:	1c29      	adds	r1, r5, #0
   11c7c:	f000 fc68 	bl	12550 <____muldf3_from_thumb>
   11c80:	4a92      	ldr	r2, [pc, #584]	; (11ecc <atan+0x2f4>)
   11c82:	4b93      	ldr	r3, [pc, #588]	; (11ed0 <atan+0x2f8>)
   11c84:	f000 fc6c 	bl	12560 <____adddf3_from_thumb>
   11c88:	1c02      	adds	r2, r0, #0
   11c8a:	1c0b      	adds	r3, r1, #0
   11c8c:	1c20      	adds	r0, r4, #0
   11c8e:	1c29      	adds	r1, r5, #0
   11c90:	f000 fc5e 	bl	12550 <____muldf3_from_thumb>
   11c94:	4a8f      	ldr	r2, [pc, #572]	; (11ed4 <atan+0x2fc>)
   11c96:	4b90      	ldr	r3, [pc, #576]	; (11ed8 <atan+0x300>)
   11c98:	f000 fc62 	bl	12560 <____adddf3_from_thumb>
   11c9c:	1c02      	adds	r2, r0, #0
   11c9e:	1c0b      	adds	r3, r1, #0
   11ca0:	1c20      	adds	r0, r4, #0
   11ca2:	1c29      	adds	r1, r5, #0
   11ca4:	f000 fc54 	bl	12550 <____muldf3_from_thumb>
   11ca8:	4a8c      	ldr	r2, [pc, #560]	; (11edc <atan+0x304>)
   11caa:	4b8d      	ldr	r3, [pc, #564]	; (11ee0 <atan+0x308>)
   11cac:	f000 fc58 	bl	12560 <____adddf3_from_thumb>
   11cb0:	1c02      	adds	r2, r0, #0
   11cb2:	1c0b      	adds	r3, r1, #0
   11cb4:	9800      	ldr	r0, [sp, #0]
   11cb6:	9901      	ldr	r1, [sp, #4]
   11cb8:	f000 fc4a 	bl	12550 <____muldf3_from_thumb>
   11cbc:	4a89      	ldr	r2, [pc, #548]	; (11ee4 <atan+0x30c>)
   11cbe:	4b8a      	ldr	r3, [pc, #552]	; (11ee8 <atan+0x310>)
   11cc0:	9002      	str	r0, [sp, #8]
   11cc2:	9103      	str	r1, [sp, #12]
   11cc4:	1c20      	adds	r0, r4, #0
   11cc6:	1c29      	adds	r1, r5, #0
   11cc8:	f000 fc42 	bl	12550 <____muldf3_from_thumb>
   11ccc:	4a87      	ldr	r2, [pc, #540]	; (11eec <atan+0x314>)
   11cce:	4b88      	ldr	r3, [pc, #544]	; (11ef0 <atan+0x318>)
   11cd0:	f000 fc4a 	bl	12568 <____subdf3_from_thumb>
   11cd4:	1c02      	adds	r2, r0, #0
   11cd6:	1c0b      	adds	r3, r1, #0
   11cd8:	1c20      	adds	r0, r4, #0
   11cda:	1c29      	adds	r1, r5, #0
   11cdc:	f000 fc38 	bl	12550 <____muldf3_from_thumb>
   11ce0:	4a84      	ldr	r2, [pc, #528]	; (11ef4 <atan+0x31c>)
   11ce2:	4b85      	ldr	r3, [pc, #532]	; (11ef8 <atan+0x320>)
   11ce4:	f000 fc40 	bl	12568 <____subdf3_from_thumb>
   11ce8:	1c02      	adds	r2, r0, #0
   11cea:	1c0b      	adds	r3, r1, #0
   11cec:	1c20      	adds	r0, r4, #0
   11cee:	1c29      	adds	r1, r5, #0
   11cf0:	f000 fc2e 	bl	12550 <____muldf3_from_thumb>
   11cf4:	4a81      	ldr	r2, [pc, #516]	; (11efc <atan+0x324>)
   11cf6:	4b82      	ldr	r3, [pc, #520]	; (11f00 <atan+0x328>)
   11cf8:	f000 fc36 	bl	12568 <____subdf3_from_thumb>
   11cfc:	1c02      	adds	r2, r0, #0
   11cfe:	1c0b      	adds	r3, r1, #0
   11d00:	1c20      	adds	r0, r4, #0
   11d02:	1c29      	adds	r1, r5, #0
   11d04:	f000 fc24 	bl	12550 <____muldf3_from_thumb>
   11d08:	4a7e      	ldr	r2, [pc, #504]	; (11f04 <atan+0x32c>)
   11d0a:	4b7f      	ldr	r3, [pc, #508]	; (11f08 <atan+0x330>)
   11d0c:	f000 fc2c 	bl	12568 <____subdf3_from_thumb>
   11d10:	1c02      	adds	r2, r0, #0
   11d12:	1c0b      	adds	r3, r1, #0
   11d14:	1c20      	adds	r0, r4, #0
   11d16:	1c29      	adds	r1, r5, #0
   11d18:	f000 fc1a 	bl	12550 <____muldf3_from_thumb>
   11d1c:	1c0b      	adds	r3, r1, #0
   11d1e:	4651      	mov	r1, sl
   11d20:	1c02      	adds	r2, r0, #0
   11d22:	2900      	cmp	r1, #0
   11d24:	db61      	blt.n	11dea <atan+0x212>
   11d26:	4651      	mov	r1, sl
   11d28:	00cc      	lsls	r4, r1, #3
   11d2a:	9802      	ldr	r0, [sp, #8]
   11d2c:	9903      	ldr	r1, [sp, #12]
   11d2e:	f000 fc17 	bl	12560 <____adddf3_from_thumb>
   11d32:	1c02      	adds	r2, r0, #0
   11d34:	1c0b      	adds	r3, r1, #0
   11d36:	1c30      	adds	r0, r6, #0
   11d38:	1c39      	adds	r1, r7, #0
   11d3a:	f000 fc09 	bl	12550 <____muldf3_from_thumb>
   11d3e:	4d73      	ldr	r5, [pc, #460]	; (11f0c <atan+0x334>)
   11d40:	4b73      	ldr	r3, [pc, #460]	; (11f10 <atan+0x338>)
   11d42:	1965      	adds	r5, r4, r5
   11d44:	18e4      	adds	r4, r4, r3
   11d46:	6822      	ldr	r2, [r4, #0]
   11d48:	6863      	ldr	r3, [r4, #4]
   11d4a:	f000 fc0d 	bl	12568 <____subdf3_from_thumb>
   11d4e:	1c32      	adds	r2, r6, #0
   11d50:	1c3b      	adds	r3, r7, #0
   11d52:	f000 fc09 	bl	12568 <____subdf3_from_thumb>
   11d56:	1c02      	adds	r2, r0, #0
   11d58:	1c0b      	adds	r3, r1, #0
   11d5a:	6828      	ldr	r0, [r5, #0]
   11d5c:	6869      	ldr	r1, [r5, #4]
   11d5e:	f000 fc03 	bl	12568 <____subdf3_from_thumb>
   11d62:	4642      	mov	r2, r8
   11d64:	2a00      	cmp	r2, #0
   11d66:	db37      	blt.n	11dd8 <atan+0x200>
   11d68:	1c06      	adds	r6, r0, #0
   11d6a:	1c0f      	adds	r7, r1, #0
   11d6c:	e74e      	b.n	11c0c <atan+0x34>
   11d6e:	4295      	cmp	r5, r2
   11d70:	d038      	beq.n	11de4 <atan+0x20c>
   11d72:	4641      	mov	r1, r8
   11d74:	2900      	cmp	r1, #0
   11d76:	dd59      	ble.n	11e2c <atan+0x254>
   11d78:	4e66      	ldr	r6, [pc, #408]	; (11f14 <atan+0x33c>)
   11d7a:	4f67      	ldr	r7, [pc, #412]	; (11f18 <atan+0x340>)
   11d7c:	e746      	b.n	11c0c <atan+0x34>
   11d7e:	4a67      	ldr	r2, [pc, #412]	; (11f1c <atan+0x344>)
   11d80:	4b67      	ldr	r3, [pc, #412]	; (11f20 <atan+0x348>)
   11d82:	f000 fbed 	bl	12560 <____adddf3_from_thumb>
   11d86:	4a67      	ldr	r2, [pc, #412]	; (11f24 <atan+0x34c>)
   11d88:	4b67      	ldr	r3, [pc, #412]	; (11f28 <atan+0x350>)
   11d8a:	f000 fbf9 	bl	12580 <____gtdf2_from_thumb>
   11d8e:	2800      	cmp	r0, #0
   11d90:	dd00      	ble.n	11d94 <atan+0x1bc>
   11d92:	e73b      	b.n	11c0c <atan+0x34>
   11d94:	e74b      	b.n	11c2e <atan+0x56>
   11d96:	f000 f8df 	bl	11f58 <fabs>
   11d9a:	4b64      	ldr	r3, [pc, #400]	; (11f2c <atan+0x354>)
   11d9c:	1c06      	adds	r6, r0, #0
   11d9e:	1c0f      	adds	r7, r1, #0
   11da0:	429d      	cmp	r5, r3
   11da2:	dc35      	bgt.n	11e10 <atan+0x238>
   11da4:	4b62      	ldr	r3, [pc, #392]	; (11f30 <atan+0x358>)
   11da6:	429d      	cmp	r5, r3
   11da8:	dd43      	ble.n	11e32 <atan+0x25a>
   11daa:	4a5e      	ldr	r2, [pc, #376]	; (11f24 <atan+0x34c>)
   11dac:	4b5e      	ldr	r3, [pc, #376]	; (11f28 <atan+0x350>)
   11dae:	f000 fbdb 	bl	12568 <____subdf3_from_thumb>
   11db2:	4a5c      	ldr	r2, [pc, #368]	; (11f24 <atan+0x34c>)
   11db4:	4b5c      	ldr	r3, [pc, #368]	; (11f28 <atan+0x350>)
   11db6:	1c04      	adds	r4, r0, #0
   11db8:	1c0d      	adds	r5, r1, #0
   11dba:	1c30      	adds	r0, r6, #0
   11dbc:	1c39      	adds	r1, r7, #0
   11dbe:	f000 fbcf 	bl	12560 <____adddf3_from_thumb>
   11dc2:	1c0b      	adds	r3, r1, #0
   11dc4:	1c02      	adds	r2, r0, #0
   11dc6:	1c29      	adds	r1, r5, #0
   11dc8:	1c20      	adds	r0, r4, #0
   11dca:	f000 fba5 	bl	12518 <____divdf3_from_thumb>
   11dce:	2301      	movs	r3, #1
   11dd0:	1c06      	adds	r6, r0, #0
   11dd2:	1c0f      	adds	r7, r1, #0
   11dd4:	469a      	mov	sl, r3
   11dd6:	e72d      	b.n	11c34 <atan+0x5c>
   11dd8:	2280      	movs	r2, #128	; 0x80
   11dda:	0612      	lsls	r2, r2, #24
   11ddc:	1883      	adds	r3, r0, r2
   11dde:	1c1e      	adds	r6, r3, #0
   11de0:	1c0f      	adds	r7, r1, #0
   11de2:	e713      	b.n	11c0c <atan+0x34>
   11de4:	2900      	cmp	r1, #0
   11de6:	d0c4      	beq.n	11d72 <atan+0x19a>
   11de8:	e708      	b.n	11bfc <atan+0x24>
   11dea:	9802      	ldr	r0, [sp, #8]
   11dec:	9903      	ldr	r1, [sp, #12]
   11dee:	f000 fbb7 	bl	12560 <____adddf3_from_thumb>
   11df2:	1c02      	adds	r2, r0, #0
   11df4:	1c0b      	adds	r3, r1, #0
   11df6:	1c30      	adds	r0, r6, #0
   11df8:	1c39      	adds	r1, r7, #0
   11dfa:	f000 fba9 	bl	12550 <____muldf3_from_thumb>
   11dfe:	1c02      	adds	r2, r0, #0
   11e00:	1c0b      	adds	r3, r1, #0
   11e02:	1c30      	adds	r0, r6, #0
   11e04:	1c39      	adds	r1, r7, #0
   11e06:	f000 fbaf 	bl	12568 <____subdf3_from_thumb>
   11e0a:	1c06      	adds	r6, r0, #0
   11e0c:	1c0f      	adds	r7, r1, #0
   11e0e:	e6fd      	b.n	11c0c <atan+0x34>
   11e10:	4b48      	ldr	r3, [pc, #288]	; (11f34 <atan+0x35c>)
   11e12:	429d      	cmp	r5, r3
   11e14:	dd28      	ble.n	11e68 <atan+0x290>
   11e16:	1c32      	adds	r2, r6, #0
   11e18:	1c3b      	adds	r3, r7, #0
   11e1a:	4847      	ldr	r0, [pc, #284]	; (11f38 <atan+0x360>)
   11e1c:	4947      	ldr	r1, [pc, #284]	; (11f3c <atan+0x364>)
   11e1e:	f000 fb7b 	bl	12518 <____divdf3_from_thumb>
   11e22:	2203      	movs	r2, #3
   11e24:	1c06      	adds	r6, r0, #0
   11e26:	1c0f      	adds	r7, r1, #0
   11e28:	4692      	mov	sl, r2
   11e2a:	e703      	b.n	11c34 <atan+0x5c>
   11e2c:	4e44      	ldr	r6, [pc, #272]	; (11f40 <atan+0x368>)
   11e2e:	4f45      	ldr	r7, [pc, #276]	; (11f44 <atan+0x36c>)
   11e30:	e6ec      	b.n	11c0c <atan+0x34>
   11e32:	1c32      	adds	r2, r6, #0
   11e34:	1c3b      	adds	r3, r7, #0
   11e36:	f000 fb93 	bl	12560 <____adddf3_from_thumb>
   11e3a:	4a3a      	ldr	r2, [pc, #232]	; (11f24 <atan+0x34c>)
   11e3c:	4b3a      	ldr	r3, [pc, #232]	; (11f28 <atan+0x350>)
   11e3e:	f000 fb93 	bl	12568 <____subdf3_from_thumb>
   11e42:	4a41      	ldr	r2, [pc, #260]	; (11f48 <atan+0x370>)
   11e44:	4b41      	ldr	r3, [pc, #260]	; (11f4c <atan+0x374>)
   11e46:	1c04      	adds	r4, r0, #0
   11e48:	1c0d      	adds	r5, r1, #0
   11e4a:	1c30      	adds	r0, r6, #0
   11e4c:	1c39      	adds	r1, r7, #0
   11e4e:	f000 fb87 	bl	12560 <____adddf3_from_thumb>
   11e52:	1c02      	adds	r2, r0, #0
   11e54:	1c0b      	adds	r3, r1, #0
   11e56:	1c20      	adds	r0, r4, #0
   11e58:	1c29      	adds	r1, r5, #0
   11e5a:	f000 fb5d 	bl	12518 <____divdf3_from_thumb>
   11e5e:	2200      	movs	r2, #0
   11e60:	1c06      	adds	r6, r0, #0
   11e62:	1c0f      	adds	r7, r1, #0
   11e64:	4692      	mov	sl, r2
   11e66:	e6e5      	b.n	11c34 <atan+0x5c>
   11e68:	4a39      	ldr	r2, [pc, #228]	; (11f50 <atan+0x378>)
   11e6a:	4b3a      	ldr	r3, [pc, #232]	; (11f54 <atan+0x37c>)
   11e6c:	f000 fb7c 	bl	12568 <____subdf3_from_thumb>
   11e70:	4a37      	ldr	r2, [pc, #220]	; (11f50 <atan+0x378>)
   11e72:	4b38      	ldr	r3, [pc, #224]	; (11f54 <atan+0x37c>)
   11e74:	1c04      	adds	r4, r0, #0
   11e76:	1c0d      	adds	r5, r1, #0
   11e78:	1c30      	adds	r0, r6, #0
   11e7a:	1c39      	adds	r1, r7, #0
   11e7c:	f000 fb68 	bl	12550 <____muldf3_from_thumb>
   11e80:	4a28      	ldr	r2, [pc, #160]	; (11f24 <atan+0x34c>)
   11e82:	4b29      	ldr	r3, [pc, #164]	; (11f28 <atan+0x350>)
   11e84:	f000 fb6c 	bl	12560 <____adddf3_from_thumb>
   11e88:	1c02      	adds	r2, r0, #0
   11e8a:	1c0b      	adds	r3, r1, #0
   11e8c:	1c20      	adds	r0, r4, #0
   11e8e:	1c29      	adds	r1, r5, #0
   11e90:	f000 fb42 	bl	12518 <____divdf3_from_thumb>
   11e94:	1c0f      	adds	r7, r1, #0
   11e96:	2102      	movs	r1, #2
   11e98:	1c06      	adds	r6, r0, #0
   11e9a:	468a      	mov	sl, r1
   11e9c:	e6ca      	b.n	11c34 <atan+0x5c>
   11e9e:	46c0      	nop			; (mov r8, r8)
   11ea0:	7fffffff 	.word	0x7fffffff
   11ea4:	440fffff 	.word	0x440fffff
   11ea8:	7ff00000 	.word	0x7ff00000
   11eac:	3fdbffff 	.word	0x3fdbffff
   11eb0:	3e1fffff 	.word	0x3e1fffff
   11eb4:	3f90ad3a 	.word	0x3f90ad3a
   11eb8:	e322da11 	.word	0xe322da11
   11ebc:	3fa97b4b 	.word	0x3fa97b4b
   11ec0:	24760deb 	.word	0x24760deb
   11ec4:	3fb10d66 	.word	0x3fb10d66
   11ec8:	a0d03d51 	.word	0xa0d03d51
   11ecc:	3fb745cd 	.word	0x3fb745cd
   11ed0:	c54c206e 	.word	0xc54c206e
   11ed4:	3fc24924 	.word	0x3fc24924
   11ed8:	920083ff 	.word	0x920083ff
   11edc:	3fd55555 	.word	0x3fd55555
   11ee0:	5555550d 	.word	0x5555550d
   11ee4:	bfa2b444 	.word	0xbfa2b444
   11ee8:	2c6a6c2f 	.word	0x2c6a6c2f
   11eec:	3fadde2d 	.word	0x3fadde2d
   11ef0:	52defd9a 	.word	0x52defd9a
   11ef4:	3fb3b0f2 	.word	0x3fb3b0f2
   11ef8:	af749a6d 	.word	0xaf749a6d
   11efc:	3fbc71c6 	.word	0x3fbc71c6
   11f00:	fe231671 	.word	0xfe231671
   11f04:	3fc99999 	.word	0x3fc99999
   11f08:	9998ebc4 	.word	0x9998ebc4
   11f0c:	00012c38 	.word	0x00012c38
   11f10:	00012c58 	.word	0x00012c58
   11f14:	3ff921fb 	.word	0x3ff921fb
   11f18:	54442d18 	.word	0x54442d18
   11f1c:	7e37e43c 	.word	0x7e37e43c
   11f20:	8800759c 	.word	0x8800759c
   11f24:	3ff00000 	.word	0x3ff00000
   11f28:	00000000 	.word	0x00000000
   11f2c:	3ff2ffff 	.word	0x3ff2ffff
   11f30:	3fe5ffff 	.word	0x3fe5ffff
   11f34:	40037fff 	.word	0x40037fff
   11f38:	bff00000 	.word	0xbff00000
   11f3c:	00000000 	.word	0x00000000
   11f40:	bff921fb 	.word	0xbff921fb
   11f44:	54442d18 	.word	0x54442d18
   11f48:	40000000 	.word	0x40000000
   11f4c:	00000000 	.word	0x00000000
   11f50:	3ff80000 	.word	0x3ff80000
   11f54:	00000000 	.word	0x00000000

00011f58 <fabs>:
   11f58:	b510      	push	{r4, lr}
   11f5a:	1c03      	adds	r3, r0, #0
   11f5c:	4803      	ldr	r0, [pc, #12]	; (11f6c <fabs+0x14>)
   11f5e:	1c0a      	adds	r2, r1, #0
   11f60:	4003      	ands	r3, r0
   11f62:	1c18      	adds	r0, r3, #0
   11f64:	1c11      	adds	r1, r2, #0
   11f66:	bc10      	pop	{r4}
   11f68:	bc04      	pop	{r2}
   11f6a:	4710      	bx	r2
   11f6c:	7fffffff 	.word	0x7fffffff

00011f70 <floor>:
   11f70:	b5f0      	push	{r4, r5, r6, r7, lr}
   11f72:	465f      	mov	r7, fp
   11f74:	4656      	mov	r6, sl
   11f76:	464d      	mov	r5, r9
   11f78:	4644      	mov	r4, r8
   11f7a:	b4f0      	push	{r4, r5, r6, r7}
   11f7c:	2200      	movs	r2, #0
   11f7e:	2300      	movs	r3, #0
   11f80:	b082      	sub	sp, #8
   11f82:	9200      	str	r2, [sp, #0]
   11f84:	9301      	str	r3, [sp, #4]
   11f86:	0043      	lsls	r3, r0, #1
   11f88:	0d5a      	lsrs	r2, r3, #21
   11f8a:	4b4b      	ldr	r3, [pc, #300]	; (120b8 <floor+0x148>)
   11f8c:	189b      	adds	r3, r3, r2
   11f8e:	1c04      	adds	r4, r0, #0
   11f90:	1c0d      	adds	r5, r1, #0
   11f92:	1c06      	adds	r6, r0, #0
   11f94:	4682      	mov	sl, r0
   11f96:	4689      	mov	r9, r1
   11f98:	4698      	mov	r8, r3
   11f9a:	2b13      	cmp	r3, #19
   11f9c:	dc2e      	bgt.n	11ffc <floor+0x8c>
   11f9e:	2b00      	cmp	r3, #0
   11fa0:	db53      	blt.n	1204a <floor+0xda>
   11fa2:	4b46      	ldr	r3, [pc, #280]	; (120bc <floor+0x14c>)
   11fa4:	4642      	mov	r2, r8
   11fa6:	4113      	asrs	r3, r2
   11fa8:	469b      	mov	fp, r3
   11faa:	1c0a      	adds	r2, r1, #0
   11fac:	4003      	ands	r3, r0
   11fae:	4682      	mov	sl, r0
   11fb0:	4689      	mov	r9, r1
   11fb2:	431a      	orrs	r2, r3
   11fb4:	d017      	beq.n	11fe6 <floor+0x76>
   11fb6:	4a42      	ldr	r2, [pc, #264]	; (120c0 <floor+0x150>)
   11fb8:	4b42      	ldr	r3, [pc, #264]	; (120c4 <floor+0x154>)
   11fba:	f000 fad1 	bl	12560 <____adddf3_from_thumb>
   11fbe:	4a42      	ldr	r2, [pc, #264]	; (120c8 <floor+0x158>)
   11fc0:	4b42      	ldr	r3, [pc, #264]	; (120cc <floor+0x15c>)
   11fc2:	f000 fadd 	bl	12580 <____gtdf2_from_thumb>
   11fc6:	2800      	cmp	r0, #0
   11fc8:	dd07      	ble.n	11fda <floor+0x6a>
   11fca:	2c00      	cmp	r4, #0
   11fcc:	db4d      	blt.n	1206a <floor+0xfa>
   11fce:	4652      	mov	r2, sl
   11fd0:	465b      	mov	r3, fp
   11fd2:	439a      	bics	r2, r3
   11fd4:	2400      	movs	r4, #0
   11fd6:	4692      	mov	sl, r2
   11fd8:	46a1      	mov	r9, r4
   11fda:	4654      	mov	r4, sl
   11fdc:	464a      	mov	r2, r9
   11fde:	9400      	str	r4, [sp, #0]
   11fe0:	9201      	str	r2, [sp, #4]
   11fe2:	9c00      	ldr	r4, [sp, #0]
   11fe4:	9d01      	ldr	r5, [sp, #4]
   11fe6:	1c29      	adds	r1, r5, #0
   11fe8:	1c20      	adds	r0, r4, #0
   11fea:	b002      	add	sp, #8
   11fec:	bc3c      	pop	{r2, r3, r4, r5}
   11fee:	4690      	mov	r8, r2
   11ff0:	4699      	mov	r9, r3
   11ff2:	46a2      	mov	sl, r4
   11ff4:	46ab      	mov	fp, r5
   11ff6:	bcf0      	pop	{r4, r5, r6, r7}
   11ff8:	bc04      	pop	{r2}
   11ffa:	4710      	bx	r2
   11ffc:	2b33      	cmp	r3, #51	; 0x33
   11ffe:	dc19      	bgt.n	12034 <floor+0xc4>
   12000:	4b33      	ldr	r3, [pc, #204]	; (120d0 <floor+0x160>)
   12002:	18d2      	adds	r2, r2, r3
   12004:	2301      	movs	r3, #1
   12006:	425b      	negs	r3, r3
   12008:	40d3      	lsrs	r3, r2
   1200a:	469b      	mov	fp, r3
   1200c:	4689      	mov	r9, r1
   1200e:	420b      	tst	r3, r1
   12010:	d0e9      	beq.n	11fe6 <floor+0x76>
   12012:	4a2b      	ldr	r2, [pc, #172]	; (120c0 <floor+0x150>)
   12014:	4b2b      	ldr	r3, [pc, #172]	; (120c4 <floor+0x154>)
   12016:	f000 faa3 	bl	12560 <____adddf3_from_thumb>
   1201a:	4a2b      	ldr	r2, [pc, #172]	; (120c8 <floor+0x158>)
   1201c:	4b2b      	ldr	r3, [pc, #172]	; (120cc <floor+0x15c>)
   1201e:	f000 faaf 	bl	12580 <____gtdf2_from_thumb>
   12022:	2800      	cmp	r0, #0
   12024:	dd27      	ble.n	12076 <floor+0x106>
   12026:	2c00      	cmp	r4, #0
   12028:	db27      	blt.n	1207a <floor+0x10a>
   1202a:	464a      	mov	r2, r9
   1202c:	465b      	mov	r3, fp
   1202e:	439a      	bics	r2, r3
   12030:	4691      	mov	r9, r2
   12032:	e7d2      	b.n	11fda <floor+0x6a>
   12034:	2380      	movs	r3, #128	; 0x80
   12036:	00db      	lsls	r3, r3, #3
   12038:	4598      	cmp	r8, r3
   1203a:	d1d4      	bne.n	11fe6 <floor+0x76>
   1203c:	1c22      	adds	r2, r4, #0
   1203e:	1c2b      	adds	r3, r5, #0
   12040:	f000 fa8e 	bl	12560 <____adddf3_from_thumb>
   12044:	1c04      	adds	r4, r0, #0
   12046:	1c0d      	adds	r5, r1, #0
   12048:	e7cd      	b.n	11fe6 <floor+0x76>
   1204a:	4a1d      	ldr	r2, [pc, #116]	; (120c0 <floor+0x150>)
   1204c:	4b1d      	ldr	r3, [pc, #116]	; (120c4 <floor+0x154>)
   1204e:	f000 fa87 	bl	12560 <____adddf3_from_thumb>
   12052:	4a1d      	ldr	r2, [pc, #116]	; (120c8 <floor+0x158>)
   12054:	4b1d      	ldr	r3, [pc, #116]	; (120cc <floor+0x15c>)
   12056:	f000 fa93 	bl	12580 <____gtdf2_from_thumb>
   1205a:	2800      	cmp	r0, #0
   1205c:	ddbd      	ble.n	11fda <floor+0x6a>
   1205e:	2c00      	cmp	r4, #0
   12060:	db1a      	blt.n	12098 <floor+0x128>
   12062:	2200      	movs	r2, #0
   12064:	4692      	mov	sl, r2
   12066:	4691      	mov	r9, r2
   12068:	e7b7      	b.n	11fda <floor+0x6a>
   1206a:	2380      	movs	r3, #128	; 0x80
   1206c:	035b      	lsls	r3, r3, #13
   1206e:	4644      	mov	r4, r8
   12070:	4123      	asrs	r3, r4
   12072:	449a      	add	sl, r3
   12074:	e7ab      	b.n	11fce <floor+0x5e>
   12076:	46a2      	mov	sl, r4
   12078:	e7af      	b.n	11fda <floor+0x6a>
   1207a:	4644      	mov	r4, r8
   1207c:	2c14      	cmp	r4, #20
   1207e:	d018      	beq.n	120b2 <floor+0x142>
   12080:	4643      	mov	r3, r8
   12082:	2234      	movs	r2, #52	; 0x34
   12084:	1ad2      	subs	r2, r2, r3
   12086:	2301      	movs	r3, #1
   12088:	4093      	lsls	r3, r2
   1208a:	444b      	add	r3, r9
   1208c:	4599      	cmp	r9, r3
   1208e:	d901      	bls.n	12094 <floor+0x124>
   12090:	2401      	movs	r4, #1
   12092:	44a2      	add	sl, r4
   12094:	4699      	mov	r9, r3
   12096:	e7c8      	b.n	1202a <floor+0xba>
   12098:	4b0e      	ldr	r3, [pc, #56]	; (120d4 <floor+0x164>)
   1209a:	1c2a      	adds	r2, r5, #0
   1209c:	4033      	ands	r3, r6
   1209e:	431a      	orrs	r2, r3
   120a0:	d004      	beq.n	120ac <floor+0x13c>
   120a2:	4b0d      	ldr	r3, [pc, #52]	; (120d8 <floor+0x168>)
   120a4:	2400      	movs	r4, #0
   120a6:	469a      	mov	sl, r3
   120a8:	46a1      	mov	r9, r4
   120aa:	e796      	b.n	11fda <floor+0x6a>
   120ac:	46b2      	mov	sl, r6
   120ae:	46a9      	mov	r9, r5
   120b0:	e793      	b.n	11fda <floor+0x6a>
   120b2:	2201      	movs	r2, #1
   120b4:	4492      	add	sl, r2
   120b6:	e7b8      	b.n	1202a <floor+0xba>
   120b8:	fffffc01 	.word	0xfffffc01
   120bc:	000fffff 	.word	0x000fffff
   120c0:	7e37e43c 	.word	0x7e37e43c
   120c4:	8800759c 	.word	0x8800759c
	...
   120d0:	fffffbed 	.word	0xfffffbed
   120d4:	7fffffff 	.word	0x7fffffff
   120d8:	bff00000 	.word	0xbff00000

000120dc <isnan>:
   120dc:	424a      	negs	r2, r1
   120de:	4b04      	ldr	r3, [pc, #16]	; (120f0 <isnan+0x14>)
   120e0:	430a      	orrs	r2, r1
   120e2:	4003      	ands	r3, r0
   120e4:	0fd2      	lsrs	r2, r2, #31
   120e6:	4803      	ldr	r0, [pc, #12]	; (120f4 <isnan+0x18>)
   120e8:	431a      	orrs	r2, r3
   120ea:	1a80      	subs	r0, r0, r2
   120ec:	0fc0      	lsrs	r0, r0, #31
   120ee:	4770      	bx	lr
   120f0:	7fffffff 	.word	0x7fffffff
   120f4:	7ff00000 	.word	0x7ff00000

000120f8 <matherr>:
   120f8:	2000      	movs	r0, #0
   120fa:	4770      	bx	lr

000120fc <scalbn>:
   120fc:	b5f0      	push	{r4, r5, r6, r7, lr}
   120fe:	4647      	mov	r7, r8
   12100:	b480      	push	{r7}
   12102:	4f3b      	ldr	r7, [pc, #236]	; (121f0 <scalbn+0xf4>)
   12104:	1c03      	adds	r3, r0, #0
   12106:	403b      	ands	r3, r7
   12108:	4690      	mov	r8, r2
   1210a:	151a      	asrs	r2, r3, #20
   1210c:	1c05      	adds	r5, r0, #0
   1210e:	1c0e      	adds	r6, r1, #0
   12110:	2a00      	cmp	r2, #0
   12112:	d121      	bne.n	12158 <scalbn+0x5c>
   12114:	4b37      	ldr	r3, [pc, #220]	; (121f4 <scalbn+0xf8>)
   12116:	4003      	ands	r3, r0
   12118:	4319      	orrs	r1, r3
   1211a:	d011      	beq.n	12140 <scalbn+0x44>
   1211c:	1c28      	adds	r0, r5, #0
   1211e:	1c31      	adds	r1, r6, #0
   12120:	4a35      	ldr	r2, [pc, #212]	; (121f8 <scalbn+0xfc>)
   12122:	4b36      	ldr	r3, [pc, #216]	; (121fc <scalbn+0x100>)
   12124:	f000 fa14 	bl	12550 <____muldf3_from_thumb>
   12128:	4b35      	ldr	r3, [pc, #212]	; (12200 <scalbn+0x104>)
   1212a:	1c05      	adds	r5, r0, #0
   1212c:	1c0e      	adds	r6, r1, #0
   1212e:	4598      	cmp	r8, r3
   12130:	da0d      	bge.n	1214e <scalbn+0x52>
   12132:	1c28      	adds	r0, r5, #0
   12134:	4a33      	ldr	r2, [pc, #204]	; (12204 <scalbn+0x108>)
   12136:	4b34      	ldr	r3, [pc, #208]	; (12208 <scalbn+0x10c>)
   12138:	f000 fa0a 	bl	12550 <____muldf3_from_thumb>
   1213c:	1c05      	adds	r5, r0, #0
   1213e:	1c0e      	adds	r6, r1, #0
   12140:	1c28      	adds	r0, r5, #0
   12142:	1c31      	adds	r1, r6, #0
   12144:	bc04      	pop	{r2}
   12146:	4690      	mov	r8, r2
   12148:	bcf0      	pop	{r4, r5, r6, r7}
   1214a:	bc04      	pop	{r2}
   1214c:	4710      	bx	r2
   1214e:	1c03      	adds	r3, r0, #0
   12150:	403b      	ands	r3, r7
   12152:	151b      	asrs	r3, r3, #20
   12154:	1c1a      	adds	r2, r3, #0
   12156:	3a36      	subs	r2, #54	; 0x36
   12158:	4b2c      	ldr	r3, [pc, #176]	; (1220c <scalbn+0x110>)
   1215a:	429a      	cmp	r2, r3
   1215c:	d00e      	beq.n	1217c <scalbn+0x80>
   1215e:	4643      	mov	r3, r8
   12160:	18d7      	adds	r7, r2, r3
   12162:	4b2b      	ldr	r3, [pc, #172]	; (12210 <scalbn+0x114>)
   12164:	429f      	cmp	r7, r3
   12166:	dc12      	bgt.n	1218e <scalbn+0x92>
   12168:	2f00      	cmp	r7, #0
   1216a:	dd1d      	ble.n	121a8 <scalbn+0xac>
   1216c:	4a29      	ldr	r2, [pc, #164]	; (12214 <scalbn+0x118>)
   1216e:	1c01      	adds	r1, r0, #0
   12170:	4011      	ands	r1, r2
   12172:	1c0b      	adds	r3, r1, #0
   12174:	053a      	lsls	r2, r7, #20
   12176:	4313      	orrs	r3, r2
   12178:	1c1d      	adds	r5, r3, #0
   1217a:	e7e1      	b.n	12140 <scalbn+0x44>
   1217c:	1c28      	adds	r0, r5, #0
   1217e:	1c31      	adds	r1, r6, #0
   12180:	1c2a      	adds	r2, r5, #0
   12182:	1c33      	adds	r3, r6, #0
   12184:	f000 f9ec 	bl	12560 <____adddf3_from_thumb>
   12188:	1c05      	adds	r5, r0, #0
   1218a:	1c0e      	adds	r6, r1, #0
   1218c:	e7d8      	b.n	12140 <scalbn+0x44>
   1218e:	1c2a      	adds	r2, r5, #0
   12190:	1c33      	adds	r3, r6, #0
   12192:	4821      	ldr	r0, [pc, #132]	; (12218 <scalbn+0x11c>)
   12194:	4921      	ldr	r1, [pc, #132]	; (1221c <scalbn+0x120>)
   12196:	f000 f909 	bl	123ac <copysign>
   1219a:	4a1f      	ldr	r2, [pc, #124]	; (12218 <scalbn+0x11c>)
   1219c:	4b1f      	ldr	r3, [pc, #124]	; (1221c <scalbn+0x120>)
   1219e:	f000 f9d7 	bl	12550 <____muldf3_from_thumb>
   121a2:	1c05      	adds	r5, r0, #0
   121a4:	1c0e      	adds	r6, r1, #0
   121a6:	e7cb      	b.n	12140 <scalbn+0x44>
   121a8:	1c3b      	adds	r3, r7, #0
   121aa:	3336      	adds	r3, #54	; 0x36
   121ac:	dc0f      	bgt.n	121ce <scalbn+0xd2>
   121ae:	4b1c      	ldr	r3, [pc, #112]	; (12220 <scalbn+0x124>)
   121b0:	4598      	cmp	r8, r3
   121b2:	dcec      	bgt.n	1218e <scalbn+0x92>
   121b4:	1c2a      	adds	r2, r5, #0
   121b6:	1c33      	adds	r3, r6, #0
   121b8:	4812      	ldr	r0, [pc, #72]	; (12204 <scalbn+0x108>)
   121ba:	4913      	ldr	r1, [pc, #76]	; (12208 <scalbn+0x10c>)
   121bc:	f000 f8f6 	bl	123ac <copysign>
   121c0:	4a10      	ldr	r2, [pc, #64]	; (12204 <scalbn+0x108>)
   121c2:	4b11      	ldr	r3, [pc, #68]	; (12208 <scalbn+0x10c>)
   121c4:	f000 f9c4 	bl	12550 <____muldf3_from_thumb>
   121c8:	1c05      	adds	r5, r0, #0
   121ca:	1c0e      	adds	r6, r1, #0
   121cc:	e7b8      	b.n	12140 <scalbn+0x44>
   121ce:	4b11      	ldr	r3, [pc, #68]	; (12214 <scalbn+0x118>)
   121d0:	4018      	ands	r0, r3
   121d2:	1c3b      	adds	r3, r7, #0
   121d4:	3336      	adds	r3, #54	; 0x36
   121d6:	051b      	lsls	r3, r3, #20
   121d8:	1c01      	adds	r1, r0, #0
   121da:	4319      	orrs	r1, r3
   121dc:	1c08      	adds	r0, r1, #0
   121de:	4a11      	ldr	r2, [pc, #68]	; (12224 <scalbn+0x128>)
   121e0:	4b11      	ldr	r3, [pc, #68]	; (12228 <scalbn+0x12c>)
   121e2:	1c31      	adds	r1, r6, #0
   121e4:	f000 f9b4 	bl	12550 <____muldf3_from_thumb>
   121e8:	1c05      	adds	r5, r0, #0
   121ea:	1c0e      	adds	r6, r1, #0
   121ec:	e7a8      	b.n	12140 <scalbn+0x44>
   121ee:	46c0      	nop			; (mov r8, r8)
   121f0:	7ff00000 	.word	0x7ff00000
   121f4:	7fffffff 	.word	0x7fffffff
   121f8:	43500000 	.word	0x43500000
   121fc:	00000000 	.word	0x00000000
   12200:	ffff3cb0 	.word	0xffff3cb0
   12204:	01a56e1f 	.word	0x01a56e1f
   12208:	c2f8f359 	.word	0xc2f8f359
   1220c:	000007ff 	.word	0x000007ff
   12210:	000007fe 	.word	0x000007fe
   12214:	800fffff 	.word	0x800fffff
   12218:	7e37e43c 	.word	0x7e37e43c
   1221c:	8800759c 	.word	0x8800759c
   12220:	0000c350 	.word	0x0000c350
   12224:	3c900000 	.word	0x3c900000
   12228:	00000000 	.word	0x00000000

0001222c <fabsf>:
   1222c:	4b01      	ldr	r3, [pc, #4]	; (12234 <fabsf+0x8>)
   1222e:	4018      	ands	r0, r3
   12230:	4770      	bx	lr
   12232:	46c0      	nop			; (mov r8, r8)
   12234:	7fffffff 	.word	0x7fffffff

00012238 <floorf>:
   12238:	b570      	push	{r4, r5, r6, lr}
   1223a:	4b20      	ldr	r3, [pc, #128]	; (122bc <floorf+0x84>)
   1223c:	1c05      	adds	r5, r0, #0
   1223e:	401d      	ands	r5, r3
   12240:	0deb      	lsrs	r3, r5, #23
   12242:	1c1c      	adds	r4, r3, #0
   12244:	3c7f      	subs	r4, #127	; 0x7f
   12246:	1c01      	adds	r1, r0, #0
   12248:	1c06      	adds	r6, r0, #0
   1224a:	2c16      	cmp	r4, #22
   1224c:	dc16      	bgt.n	1227c <floorf+0x44>
   1224e:	2c00      	cmp	r4, #0
   12250:	db1b      	blt.n	1228a <floorf+0x52>
   12252:	4b1b      	ldr	r3, [pc, #108]	; (122c0 <floorf+0x88>)
   12254:	1c1d      	adds	r5, r3, #0
   12256:	4125      	asrs	r5, r4
   12258:	4228      	tst	r0, r5
   1225a:	d00b      	beq.n	12274 <floorf+0x3c>
   1225c:	4919      	ldr	r1, [pc, #100]	; (122c4 <floorf+0x8c>)
   1225e:	f000 f96b 	bl	12538 <____addsf3_from_thumb>
   12262:	4919      	ldr	r1, [pc, #100]	; (122c8 <floorf+0x90>)
   12264:	f000 f960 	bl	12528 <____gtsf2_from_thumb>
   12268:	2800      	cmp	r0, #0
   1226a:	dd02      	ble.n	12272 <floorf+0x3a>
   1226c:	2e00      	cmp	r6, #0
   1226e:	db19      	blt.n	122a4 <floorf+0x6c>
   12270:	43ae      	bics	r6, r5
   12272:	1c31      	adds	r1, r6, #0
   12274:	1c08      	adds	r0, r1, #0
   12276:	bc70      	pop	{r4, r5, r6}
   12278:	bc02      	pop	{r1}
   1227a:	4708      	bx	r1
   1227c:	4b13      	ldr	r3, [pc, #76]	; (122cc <floorf+0x94>)
   1227e:	429d      	cmp	r5, r3
   12280:	d9f8      	bls.n	12274 <floorf+0x3c>
   12282:	f000 f959 	bl	12538 <____addsf3_from_thumb>
   12286:	1c01      	adds	r1, r0, #0
   12288:	e7f4      	b.n	12274 <floorf+0x3c>
   1228a:	490e      	ldr	r1, [pc, #56]	; (122c4 <floorf+0x8c>)
   1228c:	f000 f954 	bl	12538 <____addsf3_from_thumb>
   12290:	490d      	ldr	r1, [pc, #52]	; (122c8 <floorf+0x90>)
   12292:	f000 f949 	bl	12528 <____gtsf2_from_thumb>
   12296:	2800      	cmp	r0, #0
   12298:	ddeb      	ble.n	12272 <floorf+0x3a>
   1229a:	2e00      	cmp	r6, #0
   1229c:	db08      	blt.n	122b0 <floorf+0x78>
   1229e:	2600      	movs	r6, #0
   122a0:	1c31      	adds	r1, r6, #0
   122a2:	e7e7      	b.n	12274 <floorf+0x3c>
   122a4:	2380      	movs	r3, #128	; 0x80
   122a6:	041b      	lsls	r3, r3, #16
   122a8:	4123      	asrs	r3, r4
   122aa:	18f6      	adds	r6, r6, r3
   122ac:	43ae      	bics	r6, r5
   122ae:	e7e0      	b.n	12272 <floorf+0x3a>
   122b0:	2d00      	cmp	r5, #0
   122b2:	d0de      	beq.n	12272 <floorf+0x3a>
   122b4:	4e06      	ldr	r6, [pc, #24]	; (122d0 <floorf+0x98>)
   122b6:	1c31      	adds	r1, r6, #0
   122b8:	e7dc      	b.n	12274 <floorf+0x3c>
   122ba:	46c0      	nop			; (mov r8, r8)
   122bc:	7fffffff 	.word	0x7fffffff
   122c0:	007fffff 	.word	0x007fffff
   122c4:	7149f2ca 	.word	0x7149f2ca
   122c8:	00000000 	.word	0x00000000
   122cc:	7f7fffff 	.word	0x7f7fffff
   122d0:	bf800000 	.word	0xbf800000

000122d4 <scalbnf>:
   122d4:	b510      	push	{r4, lr}
   122d6:	4b2b      	ldr	r3, [pc, #172]	; (12384 <scalbnf+0xb0>)
   122d8:	1c0c      	adds	r4, r1, #0
   122da:	1c01      	adds	r1, r0, #0
   122dc:	1c02      	adds	r2, r0, #0
   122de:	4019      	ands	r1, r3
   122e0:	d01a      	beq.n	12318 <scalbnf+0x44>
   122e2:	4b29      	ldr	r3, [pc, #164]	; (12388 <scalbnf+0xb4>)
   122e4:	4299      	cmp	r1, r3
   122e6:	d81b      	bhi.n	12320 <scalbnf+0x4c>
   122e8:	4b28      	ldr	r3, [pc, #160]	; (1238c <scalbnf+0xb8>)
   122ea:	4299      	cmp	r1, r3
   122ec:	d81e      	bhi.n	1232c <scalbnf+0x58>
   122ee:	1c10      	adds	r0, r2, #0
   122f0:	4927      	ldr	r1, [pc, #156]	; (12390 <scalbnf+0xbc>)
   122f2:	f000 f931 	bl	12558 <____mulsf3_from_thumb>
   122f6:	4b27      	ldr	r3, [pc, #156]	; (12394 <scalbnf+0xc0>)
   122f8:	1c02      	adds	r2, r0, #0
   122fa:	429c      	cmp	r4, r3
   122fc:	db21      	blt.n	12342 <scalbnf+0x6e>
   122fe:	0043      	lsls	r3, r0, #1
   12300:	0e1b      	lsrs	r3, r3, #24
   12302:	3b19      	subs	r3, #25
   12304:	1919      	adds	r1, r3, r4
   12306:	29fe      	cmp	r1, #254	; 0xfe
   12308:	dc12      	bgt.n	12330 <scalbnf+0x5c>
   1230a:	2900      	cmp	r1, #0
   1230c:	dd1e      	ble.n	1234c <scalbnf+0x78>
   1230e:	4b22      	ldr	r3, [pc, #136]	; (12398 <scalbnf+0xc4>)
   12310:	1c02      	adds	r2, r0, #0
   12312:	401a      	ands	r2, r3
   12314:	05cb      	lsls	r3, r1, #23
   12316:	431a      	orrs	r2, r3
   12318:	1c10      	adds	r0, r2, #0
   1231a:	bc10      	pop	{r4}
   1231c:	bc02      	pop	{r1}
   1231e:	4708      	bx	r1
   12320:	1c10      	adds	r0, r2, #0
   12322:	1c11      	adds	r1, r2, #0
   12324:	f000 f908 	bl	12538 <____addsf3_from_thumb>
   12328:	1c02      	adds	r2, r0, #0
   1232a:	e7f5      	b.n	12318 <scalbnf+0x44>
   1232c:	0dcb      	lsrs	r3, r1, #23
   1232e:	e7e9      	b.n	12304 <scalbnf+0x30>
   12330:	1c11      	adds	r1, r2, #0
   12332:	481a      	ldr	r0, [pc, #104]	; (1239c <scalbnf+0xc8>)
   12334:	f000 f84c 	bl	123d0 <copysignf>
   12338:	4918      	ldr	r1, [pc, #96]	; (1239c <scalbnf+0xc8>)
   1233a:	f000 f90d 	bl	12558 <____mulsf3_from_thumb>
   1233e:	1c02      	adds	r2, r0, #0
   12340:	e7ea      	b.n	12318 <scalbnf+0x44>
   12342:	4917      	ldr	r1, [pc, #92]	; (123a0 <scalbnf+0xcc>)
   12344:	f000 f908 	bl	12558 <____mulsf3_from_thumb>
   12348:	1c02      	adds	r2, r0, #0
   1234a:	e7e5      	b.n	12318 <scalbnf+0x44>
   1234c:	1c0b      	adds	r3, r1, #0
   1234e:	3316      	adds	r3, #22
   12350:	da0b      	bge.n	1236a <scalbnf+0x96>
   12352:	4b14      	ldr	r3, [pc, #80]	; (123a4 <scalbnf+0xd0>)
   12354:	429c      	cmp	r4, r3
   12356:	dceb      	bgt.n	12330 <scalbnf+0x5c>
   12358:	1c11      	adds	r1, r2, #0
   1235a:	4811      	ldr	r0, [pc, #68]	; (123a0 <scalbnf+0xcc>)
   1235c:	f000 f838 	bl	123d0 <copysignf>
   12360:	490f      	ldr	r1, [pc, #60]	; (123a0 <scalbnf+0xcc>)
   12362:	f000 f8f9 	bl	12558 <____mulsf3_from_thumb>
   12366:	1c02      	adds	r2, r0, #0
   12368:	e7d6      	b.n	12318 <scalbnf+0x44>
   1236a:	4b0b      	ldr	r3, [pc, #44]	; (12398 <scalbnf+0xc4>)
   1236c:	1c02      	adds	r2, r0, #0
   1236e:	401a      	ands	r2, r3
   12370:	1c0b      	adds	r3, r1, #0
   12372:	3319      	adds	r3, #25
   12374:	1c10      	adds	r0, r2, #0
   12376:	05db      	lsls	r3, r3, #23
   12378:	4318      	orrs	r0, r3
   1237a:	490b      	ldr	r1, [pc, #44]	; (123a8 <scalbnf+0xd4>)
   1237c:	f000 f8ec 	bl	12558 <____mulsf3_from_thumb>
   12380:	1c02      	adds	r2, r0, #0
   12382:	e7c9      	b.n	12318 <scalbnf+0x44>
   12384:	7fffffff 	.word	0x7fffffff
   12388:	7f7fffff 	.word	0x7f7fffff
   1238c:	007fffff 	.word	0x007fffff
   12390:	4c000000 	.word	0x4c000000
   12394:	ffff3cb0 	.word	0xffff3cb0
   12398:	807fffff 	.word	0x807fffff
   1239c:	7149f2ca 	.word	0x7149f2ca
   123a0:	0da24260 	.word	0x0da24260
   123a4:	0000c350 	.word	0x0000c350
   123a8:	33000000 	.word	0x33000000

000123ac <copysign>:
   123ac:	b530      	push	{r4, r5, lr}
   123ae:	4b07      	ldr	r3, [pc, #28]	; (123cc <copysign+0x20>)
   123b0:	1c04      	adds	r4, r0, #0
   123b2:	401c      	ands	r4, r3
   123b4:	2380      	movs	r3, #128	; 0x80
   123b6:	1c15      	adds	r5, r2, #0
   123b8:	061b      	lsls	r3, r3, #24
   123ba:	402b      	ands	r3, r5
   123bc:	1c0a      	adds	r2, r1, #0
   123be:	431c      	orrs	r4, r3
   123c0:	1c20      	adds	r0, r4, #0
   123c2:	1c11      	adds	r1, r2, #0
   123c4:	bc30      	pop	{r4, r5}
   123c6:	bc04      	pop	{r2}
   123c8:	4710      	bx	r2
   123ca:	46c0      	nop			; (mov r8, r8)
   123cc:	7fffffff 	.word	0x7fffffff

000123d0 <copysignf>:
   123d0:	4b03      	ldr	r3, [pc, #12]	; (123e0 <copysignf+0x10>)
   123d2:	4018      	ands	r0, r3
   123d4:	2380      	movs	r3, #128	; 0x80
   123d6:	1c0a      	adds	r2, r1, #0
   123d8:	061b      	lsls	r3, r3, #24
   123da:	401a      	ands	r2, r3
   123dc:	4310      	orrs	r0, r2
   123de:	4770      	bx	lr
   123e0:	7fffffff 	.word	0x7fffffff

000123e4 <__aeabi_d2f>:
   123e4:	e1a02080 	lsl	r2, r0, #1
   123e8:	e2523207 	subs	r3, r2, #1879048192	; 0x70000000
   123ec:	2253c602 	subscs	ip, r3, #2097152	; 0x200000
   123f0:	227cc57f 	rsbscs	ip, ip, #532676608	; 0x1fc00000
   123f4:	9a000006 	bls	12414 <__aeabi_d2f+0x30>
   123f8:	e200c102 	and	ip, r0, #-2147483648	; 0x80000000
   123fc:	e1a02181 	lsl	r2, r1, #3
   12400:	e18c1ea1 	orr	r1, ip, r1, lsr #29
   12404:	e3520102 	cmp	r2, #-2147483648	; 0x80000000
   12408:	e0a10103 	adc	r0, r1, r3, lsl #2
   1240c:	03c00001 	biceq	r0, r0, #1
   12410:	e12fff1e 	bx	lr
   12414:	e3100101 	tst	r0, #1073741824	; 0x40000000
   12418:	1a00000f 	bne	1245c <__aeabi_d2f+0x78>
   1241c:	e293262e 	adds	r2, r3, #48234496	; 0x2e00000
   12420:	b2000102 	andlt	r0, r0, #-2147483648	; 0x80000000
   12424:	b12fff1e 	bxlt	lr
   12428:	e3800601 	orr	r0, r0, #1048576	; 0x100000
   1242c:	e1a02aa2 	lsr	r2, r2, #21
   12430:	e2622018 	rsb	r2, r2, #24
   12434:	e262c020 	rsb	ip, r2, #32
   12438:	e1b03c11 	lsls	r3, r1, ip
   1243c:	e1a01231 	lsr	r1, r1, r2
   12440:	13811001 	orrne	r1, r1, #1
   12444:	e1a03580 	lsl	r3, r0, #11
   12448:	e1a035a3 	lsr	r3, r3, #11
   1244c:	e1811c13 	orr	r1, r1, r3, lsl ip
   12450:	e1a03233 	lsr	r3, r3, r2
   12454:	e1a03083 	lsl	r3, r3, #1
   12458:	eaffffe6 	b	123f8 <__aeabi_d2f+0x14>
   1245c:	e1f03ac2 	mvns	r3, r2, asr #21
   12460:	1a000003 	bne	12474 <__aeabi_d2f+0x90>
   12464:	e1913600 	orrs	r3, r1, r0, lsl #12
   12468:	13a0047f 	movne	r0, #2130706432	; 0x7f000000
   1246c:	13800503 	orrne	r0, r0, #12582912	; 0xc00000
   12470:	112fff1e 	bxne	lr
   12474:	e2000102 	and	r0, r0, #-2147483648	; 0x80000000
   12478:	e380047f 	orr	r0, r0, #2130706432	; 0x7f000000
   1247c:	e3800502 	orr	r0, r0, #8388608	; 0x800000
   12480:	e12fff1e 	bx	lr

00012484 <__errno>:
   12484:	4b01      	ldr	r3, [pc, #4]	; (1248c <__errno+0x8>)
   12486:	6818      	ldr	r0, [r3, #0]
   12488:	4770      	bx	lr
   1248a:	46c0      	nop			; (mov r8, r8)
   1248c:	4000077c 	.word	0x4000077c

00012490 <__cos_from_arm>:
   12490:	e59fc000 	ldr	ip, [pc]	; 12498 <__cos_from_arm+0x8>
   12494:	e12fff1c 	bx	ip
   12498:	0000f625 	.word	0x0000f625

0001249c <__memcpy_from_arm>:
   1249c:	e59fc000 	ldr	ip, [pc]	; 124a4 <__memcpy_from_arm+0x8>
   124a0:	e12fff1c 	bx	ip
   124a4:	000091e5 	.word	0x000091e5

000124a8 <__memset_from_arm>:
   124a8:	e59fc000 	ldr	ip, [pc]	; 124b0 <__memset_from_arm+0x8>
   124ac:	e12fff1c 	bx	ip
   124b0:	00009241 	.word	0x00009241

000124b4 <__cosf_from_arm>:
   124b4:	e59fc000 	ldr	ip, [pc]	; 124bc <__cosf_from_arm+0x8>
   124b8:	e12fff1c 	bx	ip
   124bc:	0000f799 	.word	0x0000f799

000124c0 <__sinf_from_arm>:
   124c0:	e59fc000 	ldr	ip, [pc]	; 124c8 <__sinf_from_arm+0x8>
   124c4:	e12fff1c 	bx	ip
   124c8:	0000f821 	.word	0x0000f821

000124cc <____divsi3_from_arm>:
   124cc:	e59fc000 	ldr	ip, [pc]	; 124d4 <____divsi3_from_arm+0x8>
   124d0:	e12fff1c 	bx	ip
   124d4:	0000932d 	.word	0x0000932d

000124d8 <____udivsi3_from_arm>:
   124d8:	e59fc000 	ldr	ip, [pc]	; 124e0 <____udivsi3_from_arm+0x8>
   124dc:	e12fff1c 	bx	ip
   124e0:	000092a1 	.word	0x000092a1

000124e4 <__sqrt_from_arm>:
   124e4:	e59fc000 	ldr	ip, [pc]	; 124ec <__sqrt_from_arm+0x8>
   124e8:	e12fff1c 	bx	ip
   124ec:	0000f979 	.word	0x0000f979

000124f0 <__sin_from_arm>:
   124f0:	e59fc000 	ldr	ip, [pc]	; 124f8 <__sin_from_arm+0x8>
   124f4:	e12fff1c 	bx	ip
   124f8:	0000f6dd 	.word	0x0000f6dd

000124fc <__atan2_from_arm>:
   124fc:	e59fc000 	ldr	ip, [pc]	; 12504 <__atan2_from_arm+0x8>
   12500:	e12fff1c 	bx	ip
   12504:	0000f8a9 	.word	0x0000f8a9

00012508 <____floatsidf_from_thumb>:
   12508:	4778      	bx	pc
   1250a:	46c0      	nop			; (mov r8, r8)
   1250c:	eaffdc81 	b	9718 <__aeabi_i2d>

00012510 <____ltdf2_from_thumb>:
   12510:	4778      	bx	pc
   12512:	46c0      	nop			; (mov r8, r8)
   12514:	eaffdde3 	b	9ca8 <__ledf2>

00012518 <____divdf3_from_thumb>:
   12518:	4778      	bx	pc
   1251a:	46c0      	nop			; (mov r8, r8)
   1251c:	eaffdd5c 	b	9a94 <__aeabi_ddiv>

00012520 <____eqdf2_from_thumb>:
   12520:	4778      	bx	pc
   12522:	46c0      	nop			; (mov r8, r8)
   12524:	eaffdde1 	b	9cb0 <__cmpdf2>

00012528 <____gtsf2_from_thumb>:
   12528:	4778      	bx	pc
   1252a:	46c0      	nop			; (mov r8, r8)
   1252c:	eaffdfab 	b	a3e0 <__gesf2>

00012530 <____gedf2_from_thumb>:
   12530:	4778      	bx	pc
   12532:	46c0      	nop			; (mov r8, r8)
   12534:	eaffddd9 	b	9ca0 <__gedf2>

00012538 <____addsf3_from_thumb>:
   12538:	4778      	bx	pc
   1253a:	46c0      	nop			; (mov r8, r8)
   1253c:	eaffde41 	b	9e48 <__addsf3>

00012540 <____eqsf2_from_thumb>:
   12540:	4778      	bx	pc
   12542:	46c0      	nop			; (mov r8, r8)
   12544:	eaffdfa9 	b	a3f0 <__cmpsf2>

00012548 <____subsf3_from_thumb>:
   12548:	4778      	bx	pc
   1254a:	46c0      	nop			; (mov r8, r8)
   1254c:	eaffde3c 	b	9e44 <__aeabi_fsub>

00012550 <____muldf3_from_thumb>:
   12550:	4778      	bx	pc
   12552:	46c0      	nop			; (mov r8, r8)
   12554:	eaffdcaa 	b	9804 <__aeabi_dmul>

00012558 <____mulsf3_from_thumb>:
   12558:	4778      	bx	pc
   1255a:	46c0      	nop			; (mov r8, r8)
   1255c:	eaffdee1 	b	a0e8 <__aeabi_fmul>

00012560 <____adddf3_from_thumb>:
   12560:	4778      	bx	pc
   12562:	46c0      	nop			; (mov r8, r8)
   12564:	eaffdb9d 	b	93e0 <__adddf3>

00012568 <____subdf3_from_thumb>:
   12568:	4778      	bx	pc
   1256a:	46c0      	nop			; (mov r8, r8)
   1256c:	eaffdb9a 	b	93dc <__aeabi_dsub>

00012570 <____fixdfsi_from_thumb>:
   12570:	4778      	bx	pc
   12572:	46c0      	nop			; (mov r8, r8)
   12574:	eaffde19 	b	9de0 <__aeabi_d2iz>

00012578 <____fixsfsi_from_thumb>:
   12578:	4778      	bx	pc
   1257a:	46c0      	nop			; (mov r8, r8)
   1257c:	eaffdfdb 	b	a4f0 <__aeabi_f2iz>

00012580 <____gtdf2_from_thumb>:
   12580:	4778      	bx	pc
   12582:	46c0      	nop			; (mov r8, r8)
   12584:	eaffddc5 	b	9ca0 <__gedf2>

00012588 <____gesf2_from_thumb>:
   12588:	4778      	bx	pc
   1258a:	46c0      	nop			; (mov r8, r8)
   1258c:	eaffdf93 	b	a3e0 <__gesf2>

00012590 <____floatsisf_from_thumb>:
   12590:	4778      	bx	pc
   12592:	46c0      	nop			; (mov r8, r8)
   12594:	eaffde9c 	b	a00c <__aeabi_i2f>

00012598 <thrustScale>:
   12598:	447a0000 16130800 08002324 001a1613     ..zD....$#......
   125a8:	e1002580 16130800 08002324 001a1613     .%......$#......
   125b8:	03ffff00 03000000 0a0a0302 00010100     ................
   125c8:	0005f800 01000000 00000001 00007864     ............dx..
   125d8:	00000000 ff000000 000206ff 10000000     ................
   125e8:	0a000027 fa00fa00 2c006400 00000001     '........d.,....
	...
   12600:	05000000 04000000 50020a03 0f0000c3     ...........P....
   12610:	003c0a0a fa000001 6400fa00 00012c00     ..<........d.,..
	...
   12628:	01000000 03010102 01060101 01011201     ................
   12638:	090a0230 05010a05 c8011002 00000100     0...............
   12648:	00120100 0008c000 00e10000 01000100     ................
   12658:	00000000 00000100 0008d000 00e10000     ................
   12668:	01000100 00000000 01000000 00000000     ................
   12678:	00000b00 00000000 6e617461 00000032     ........atan2...
   12688:	74727173 00000000                       sqrt....

00012690 <npio2_hw>:
   12690:	3ff921fb 400921fb 4012d97c 401921fb     .!.?.!.@|..@.!.@
   126a0:	401f6a7a 4022d97c 4025fdbb 402921fb     zj.@|."@..%@.!)@
   126b0:	402c463a 402f6a7a 4031475c 4032d97c     :F,@zj/@\G1@|.2@
   126c0:	40346b9c 4035fdbb 40378fdb 403921fb     .k4@..5@..7@.!9@
   126d0:	403ab41b 403c463a 403dd85a 403f6a7a     ..:@:F<@Z.=@zj?@
   126e0:	40407e4c 4041475c 4042106c 4042d97c     L~@@\GA@l.B@|.B@
   126f0:	4043a28c 40446b9c 404534ac 4045fdbb     ..C@.kD@.4E@..E@
   12700:	4046c6cb 40478fdb 404858eb 404921fb     ..F@..G@.XH@.!I@

00012710 <two_over_pi>:
   12710:	00a2f983 006e4e44 001529fc 002757d1     ....DNn..)...W'.
   12720:	00f534dd 00c0db62 0095993c 00439041     .4..b...<...A.C.
   12730:	00fe5163 00abdebb 00c561b7 00246e3a     cQ.......a..:n$.
   12740:	00424dd2 00e00649 002eea09 00d1921c     .MB.I...........
   12750:	00fe1deb 001cb129 00a73ee8 008235f5     ....)....>...5..
   12760:	002ebb44 0084e99c 007026b4 005f7e41     D........&p.A~_.
   12770:	003991d6 00398353 0039f49c 00845f8b     ..9.S.9...9.._..
   12780:	00bdf928 003b1ff8 0097ffde 0005980f     (.....;.........
   12790:	00ef2f11 008b5a0a 006d1f6d 00367ecf     ./...Z..m.m..~6.
   127a0:	0027cb09 00b74f46 003f669e 005fea2d     ..'.FO...f?.-._.
   127b0:	007527ba 00c7ebe5 00f17b3d 000739f7     .'u.....={...9..
   127c0:	008a5292 00ea6bfb 005fb11f 008d5d08     .R...k...._..]..
   127d0:	00560330 0046fc7b 006babf0 00cfbc20     0.V.{.F...k. ...
   127e0:	009af436 001da9e3 0091615e 00e61b08     6.......^a......
   127f0:	00659985 005f14a0 0068408d 00ffd880     ..e..._..@h.....
   12800:	004d7327 00310606 001556ca 0073a8c9     'sM...1..V....s.
   12810:	0060e27b 00c08c6b                       {.`.k...

00012818 <npio2_hw>:
   12818:	3fc90f00 40490f00 4096cb00 40c90f00     ...?..I@...@...@
   12828:	40fb5300 4116cb00 412fed00 41490f00     .S.@...A../A..IA
   12838:	41623100 417b5300 418a3a00 4196cb00     .1bA.S{A.:.A...A
   12848:	41a35c00 41afed00 41bc7e00 41c90f00     .\.A...A.~.A...A
   12858:	41d5a000 41e23100 41eec200 41fb5300     ...A.1.A...A.S.A
   12868:	4203f200 420a3a00 42108300 4216cb00     ...B.:.B...B...B
   12878:	421d1400 42235c00 4229a500 422fed00     ...B.\#B..)B../B
   12888:	42363600 423c7e00 4242c700 42490f00     .66B.~<B..BB..IB

00012898 <two_over_pi>:
   12898:	000000a2 000000f9 00000083 0000006e     ............n...
   128a8:	0000004e 00000044 00000015 00000029     N...D.......)...
   128b8:	000000fc 00000027 00000057 000000d1     ....'...W.......
   128c8:	000000f5 00000034 000000dd 000000c0     ....4...........
   128d8:	000000db 00000062 00000095 00000099     ....b...........
   128e8:	0000003c 00000043 00000090 00000041     <...C.......A...
   128f8:	000000fe 00000051 00000063 000000ab     ....Q...c.......
   12908:	000000de 000000bb 000000c5 00000061     ............a...
   12918:	000000b7 00000024 0000006e 0000003a     ....$...n...:...
   12928:	00000042 0000004d 000000d2 000000e0     B...M...........
   12938:	00000006 00000049 0000002e 000000ea     ....I...........
   12948:	00000009 000000d1 00000092 0000001c     ................
   12958:	000000fe 0000001d 000000eb 0000001c     ................
   12968:	000000b1 00000029 000000a7 0000003e     ....).......>...
   12978:	000000e8 00000082 00000035 000000f5     ........5.......
   12988:	0000002e 000000bb 00000044 00000084     ........D.......
   12998:	000000e9 0000009c 00000070 00000026     ........p...&...
   129a8:	000000b4 0000005f 0000007e 00000041     ...._...~...A...
   129b8:	00000039 00000091 000000d6 00000039     9...........9...
   129c8:	00000083 00000053 00000039 000000f4     ....S...9.......
   129d8:	0000009c 00000084 0000005f 0000008b     ........_.......
   129e8:	000000bd 000000f9 00000028 0000003b     ........(...;...
   129f8:	0000001f 000000f8 00000097 000000ff     ................
   12a08:	000000de 00000005 00000098 0000000f     ................
   12a18:	000000ef 0000002f 00000011 0000008b     ..../...........
   12a28:	0000005a 0000000a 0000006d 0000001f     Z.......m.......
   12a38:	0000006d 00000036 0000007e 000000cf     m...6...~.......
   12a48:	00000027 000000cb 00000009 000000b7     '...............
   12a58:	0000004f 00000046 0000003f 00000066     O...F...?...f...
   12a68:	0000009e 0000005f 000000ea 0000002d     ...._.......-...
   12a78:	00000075 00000027 000000ba 000000c7     u...'...........
   12a88:	000000eb 000000e5 000000f1 0000007b     ............{...
   12a98:	0000003d 00000007 00000039 000000f7     =.......9.......
   12aa8:	0000008a 00000052 00000092 000000ea     ....R...........
   12ab8:	0000006b 000000fb 0000005f 000000b1     k......._.......
   12ac8:	0000001f 0000008d 0000005d 00000008     ........].......
   12ad8:	00000056 00000003 00000030 00000046     V.......0...F...
   12ae8:	000000fc 0000007b 0000006b 000000ab     ....{...k.......
   12af8:	000000f0 000000cf 000000bc 00000020     ............ ...
   12b08:	0000009a 000000f4 00000036 0000001d     ........6.......
   12b18:	000000a9 000000e3 00000091 00000061     ............a...
   12b28:	0000005e 000000e6 0000001b 00000008     ^...............
   12b38:	00000065 00000099 00000085 0000005f     e..........._...
   12b48:	00000014 000000a0 00000068 00000040     ........h...@...
   12b58:	0000008d 000000ff 000000d8 00000080     ................
   12b68:	0000004d 00000073 00000027 00000031     M...s...'...1...
   12b78:	00000006 00000006 00000015 00000056     ............V...
   12b88:	000000ca 00000073 000000a8 000000c9     ....s...........
   12b98:	00000060 000000e2 0000007b 000000c0     `.......{.......
   12ba8:	0000008c 0000006b                       ....k...

00012bb0 <init_jk>:
   12bb0:	00000002 00000003 00000004 00000006     ................

00012bc0 <PIo2>:
   12bc0:	3ff921fb 40000000 3e74442d 00000000     .!.?...@-Dt>....
   12bd0:	3cf84698 80000000 3b78cc51 60000000     .F.<....Q.x;...`
   12be0:	39f01b83 80000000 387a2520 40000000     ...9.... %z8...@
   12bf0:	36e38222 80000000 3569f31d 00000000     "..6......i5....

00012c00 <init_jk>:
   12c00:	00000004 00000007 00000009              ............

00012c0c <PIo2>:
   12c0c:	3fc90000 39f00000 37da0000 33a20000     ...?...9...7...3
   12c1c:	2e840000 2b500000 27c20000 22d00000     ......P+...'..."
   12c2c:	1fc40000 1bc60000 17440000              ..........D.

00012c38 <atanhi>:
   12c38:	3fddac67 0561bb4f 3fe921fb 54442d18     g..?O.a..!.?.-DT
   12c48:	3fef730b d281f69b 3ff921fb 54442d18     .s.?.....!.?.-DT

00012c58 <atanlo>:
   12c58:	3c7a2b7f 222f65e2 3c81a626 33145c07     .+z<.e/"&..<.\.3
   12c68:	3c700788 7af0cbbd 3c91a626 33145c07     ..p<...z&..<.\.3

00012c78 <__fdlib_version>:
   12c78:	00000001                                ....

00012c7c <_global_impure_ptr>:
   12c7c:	40000780 00000043                       ...@C...
