   1              		.file	"main.c"
   3              		.text
   4              	.Ltext0:
 143              		.global	int_cnt
 144              		.bss
 145              		.align	2
 148              	int_cnt:
 149 0000 00000000 		.space	4
 150              		.global	cnt
 151              		.align	2
 154              	cnt:
 155 0004 00000000 		.space	4
 156              		.global	mainloop_cnt
 157              		.align	2
 160              	mainloop_cnt:
 161 0008 00000000 		.space	4
 162              		.global	mainloop_trigger
 165              	mainloop_trigger:
 166 000c 00       		.space	1
 167              		.global	GPS_timeout
 168 000d 000000   		.align	2
 171              	GPS_timeout:
 172 0010 00000000 		.space	4
 173              		.global	trigger_cnt
 174              		.align	2
 177              	trigger_cnt:
 178 0014 00000000 		.space	4
 179              		.global	SYSTEM_initialized
 182              	SYSTEM_initialized:
 183 0018 00       		.space	1
 184              		.global	DataOutputsPerSecond
 185              		.data
 188              	DataOutputsPerSecond:
 189 0000 0A       		.byte	10
 190              		.text
 191              		.align	2
 193              		.global	timer0ISR
 195              	timer0ISR:
   1:main.c        **** /*
   2:main.c        **** 
   3:main.c        **** AscTec AutoPilot HL SDK v2.0
   4:main.c        **** 
   5:main.c        **** Copyright (c) 2011, Ascending Technologies GmbH
   6:main.c        **** All rights reserved.
   7:main.c        **** 
   8:main.c        **** Redistribution and use in source and binary forms, with or without
   9:main.c        **** modification, are permitted provided that the following conditions are met:
  10:main.c        **** 
  11:main.c        ****  * Redistributions of source code must retain the above copyright notice,
  12:main.c        ****    this list of conditions and the following disclaimer.
  13:main.c        ****  * Redistributions in binary form must reproduce the above copyright
  14:main.c        ****    notice, this list of conditions and the following disclaimer in the
  15:main.c        ****    documentation and/or other materials provided with the distribution.
  16:main.c        **** 
  17:main.c        **** THIS SOFTWARE IS PROVIDED BY THE AUTHOR AND CONTRIBUTORS ``AS IS'' AND ANY
  18:main.c        **** EXPRESS OR IMPLIED WARRANTIES, INCLUDING, BUT NOT LIMITED TO, THE IMPLIED
  19:main.c        **** WARRANTIES OF MERCHANTABILITY AND FITNESS FOR A PARTICULAR PURPOSE ARE
  20:main.c        **** DISCLAIMED. IN NO EVENT SHALL THE AUTHOR OR CONTRIBUTORS BE LIABLE FOR ANY
  21:main.c        **** DIRECT, INDIRECT, INCIDENTAL, SPECIAL, EXEMPLARY, OR CONSEQUENTIAL DAMAGES
  22:main.c        **** (INCLUDING, BUT NOT LIMITED TO, PROCUREMENT OF SUBSTITUTE GOODS OR
  23:main.c        **** SERVICES; LOSS OF USE, DATA, OR PROFITS; OR BUSINESS INTERRUPTION) HOWEVER
  24:main.c        **** CAUSED AND ON ANY THEORY OF LIABILITY, WHETHER IN CONTRACT, STRICT
  25:main.c        **** LIABILITY, OR TORT (INCLUDING NEGLIGENCE OR OTHERWISE) ARISING IN ANY WAY
  26:main.c        **** OUT OF THE USE OF THIS SOFTWARE, EVEN IF ADVISED OF THE POSSIBILITY OF SUCH
  27:main.c        **** DAMAGE.
  28:main.c        **** 
  29:main.c        ****  */
  30:main.c        **** 
  31:main.c        **** /**********************************************************
  32:main.c        ****                   Header files
  33:main.c        ****  **********************************************************/
  34:main.c        **** #include "LPC214x.h"
  35:main.c        **** #include "main.h"
  36:main.c        **** #include "system.h"
  37:main.c        **** #include "uart.h"
  38:main.c        **** #include "mymath.h"
  39:main.c        **** #include "hardware.h"
  40:main.c        **** #include "irq.h"
  41:main.c        **** #include "i2c.h"
  42:main.c        **** #include "gpsmath.h"
  43:main.c        **** #include "adc.h"
  44:main.c        **** #include "uart.h"
  45:main.c        **** #include "ssp.h"
  46:main.c        **** #include "LL_HL_comm.h"
  47:main.c        **** #include "sdk.h"
  48:main.c        **** #include "buzzer.h"
  49:main.c        **** #include "ublox.h"
  50:main.c        **** #include "pelican_ptu.h"
  51:main.c        **** #include "declination.h"
  52:main.c        **** #include "MyProtocol.h"
  53:main.c        **** #include "pid.h"
  54:main.c        **** #include "common_header.h"
  55:main.c        **** 
  56:main.c        **** /* *********************************************************
  57:main.c        ****                Function declarations
  58:main.c        ****   ********************************************************* */
  59:main.c        **** 
  60:main.c        **** void Initialize(void);
  61:main.c        **** void feed(void);
  62:main.c        **** void beeper(unsigned char);
  63:main.c        **** 
  64:main.c        **** /**********************************************************
  65:main.c        ****                   Global Variables
  66:main.c        ****  **********************************************************/
  67:main.c        **** struct HL_STATUS HL_Status;
  68:main.c        **** struct IMU_CALCDATA IMU_CalcData, IMU_CalcData_tmp;
  69:main.c        **** struct GPS_TIME GPS_Time;
  70:main.c        **** 
  71:main.c        **** volatile unsigned int int_cnt=0, cnt=0, mainloop_cnt=0;
  72:main.c        **** volatile unsigned char mainloop_trigger=0;
  73:main.c        **** volatile unsigned int GPS_timeout=0;
  74:main.c        **** volatile unsigned int trigger_cnt=0;
  75:main.c        **** volatile char SYSTEM_initialized=0;
  76:main.c        **** 
  77:main.c        **** unsigned int uart_cnt;
  78:main.c        **** unsigned char DataOutputsPerSecond=10;
  79:main.c        **** 
  80:main.c        **** extern MyViconData receivedViconData;
  81:main.c        **** extern DebugData sendDebugData;
  82:main.c        **** extern ParamDebug sendParamDebug;
  83:main.c        **** extern CmdData receiveCmdData;
  84:main.c        **** extern state_t my_setpoint;
  85:main.c        **** extern state_t my_state;
  86:main.c        **** extern int cpu_load;
  87:main.c        **** extern int vicon_count;
  88:main.c        **** extern float calc_thrust;
  89:main.c        **** extern struct this_s my_this ;
  90:main.c        **** extern int output_thrust;
  91:main.c        **** extern int receive_valid_data_flag;
  92:main.c        **** extern int vicon_tp;
  93:main.c        **** extern float calc_pitch;
  94:main.c        **** extern float calc_roll;
  95:main.c        **** 
  96:main.c        **** void timer0ISR(void) __irq
  97:main.c        **** {
 197              	.LM0:
 198              		@ Function supports interworking.
 199              		@ args = 0, pretend = 0, frame = 0
 200              		@ frame_needed = 1, uses_anonymous_args = 0
 201 0000 0DC0A0E1 		mov	ip, sp
 202 0004 00D82DE9 		stmfd	sp!, {fp, ip, lr, pc}
 203 0008 04B04CE2 		sub	fp, ip, #4
  98:main.c        ****   T0IR = 0x01;      //Clear the timer 0 interrupt
 205              	.LM1:
 206 000c 0E32A0E3 		mov	r3, #-536870912
 207 0010 013983E2 		add	r3, r3, #16384
 208 0014 0120A0E3 		mov	r2, #1
 209 0018 002083E5 		str	r2, [r3, #0]
  99:main.c        ****   IENABLE;
 100:main.c        ****   trigger_cnt++;
 211              	.LM2:
 212 001c B4309FE5 		ldr	r3, .L7
 213 0020 003093E5 		ldr	r3, [r3, #0]
 214 0024 012083E2 		add	r2, r3, #1
 215 0028 A8309FE5 		ldr	r3, .L7
 216 002c 002083E5 		str	r2, [r3, #0]
 101:main.c        ****   if(trigger_cnt==ControllerCyclesPerSecond)
 218              	.LM3:
 219 0030 A0309FE5 		ldr	r3, .L7
 220 0034 003093E5 		ldr	r3, [r3, #0]
 221 0038 FA0F53E3 		cmp	r3, #1000
 222 003c 1200001A 		bne	.L2
 102:main.c        ****   {
 103:main.c        ****   	trigger_cnt=0;
 224              	.LM4:
 225 0040 90209FE5 		ldr	r2, .L7
 226 0044 0030A0E3 		mov	r3, #0
 227 0048 003082E5 		str	r3, [r2, #0]
 104:main.c        ****   	HL_Status.up_time++;
 229              	.LM5:
 230 004c 88309FE5 		ldr	r3, .L7+4
 231 0050 B430D3E1 		ldrh	r3, [r3, #4]
 232 0054 013083E2 		add	r3, r3, #1
 233 0058 0338A0E1 		mov	r3, r3, asl #16
 234 005c 2328A0E1 		mov	r2, r3, lsr #16
 235 0060 74309FE5 		ldr	r3, .L7+4
 236 0064 B420C3E1 		strh	r2, [r3, #4]	@ movhi
 105:main.c        ****   	HL_Status.cpu_load=mainloop_cnt;
 238              	.LM6:
 239 0068 70309FE5 		ldr	r3, .L7+8
 240 006c 003093E5 		ldr	r3, [r3, #0]
 241 0070 0338A0E1 		mov	r3, r3, asl #16
 242 0074 2328A0E1 		mov	r2, r3, lsr #16
 243 0078 5C309FE5 		ldr	r3, .L7+4
 244 007c B221C3E1 		strh	r2, [r3, #18]	@ movhi
 106:main.c        **** 
 107:main.c        ****   	mainloop_cnt=0;
 246              	.LM7:
 247 0080 58209FE5 		ldr	r2, .L7+8
 248 0084 0030A0E3 		mov	r3, #0
 249 0088 003082E5 		str	r3, [r2, #0]
 250              	.L2:
 108:main.c        ****   }
 109:main.c        **** 
 110:main.c        ****   if(mainloop_trigger<10) mainloop_trigger++;
 252              	.LM8:
 253 008c 50309FE5 		ldr	r3, .L7+12
 254 0090 0030D3E5 		ldrb	r3, [r3, #0]
 255 0094 FF3003E2 		and	r3, r3, #255
 256 0098 090053E3 		cmp	r3, #9
 257 009c 0600008A 		bhi	.L4
 258 00a0 3C309FE5 		ldr	r3, .L7+12
 259 00a4 0030D3E5 		ldrb	r3, [r3, #0]
 260 00a8 FF3003E2 		and	r3, r3, #255
 261 00ac 013083E2 		add	r3, r3, #1
 262 00b0 FF3003E2 		and	r3, r3, #255
 263 00b4 28209FE5 		ldr	r2, .L7+12
 264 00b8 0030C2E5 		strb	r3, [r2, #0]
 265              	.L4:
 111:main.c        **** 
 112:main.c        ****   IDISABLE;
 113:main.c        ****   VICVectAddr = 0;		// Acknowledge Interrupt
 267              	.LM9:
 268 00bc 0030A0E3 		mov	r3, #0
 269 00c0 FD3E43E2 		sub	r3, r3, #4048
 270 00c4 0020A0E3 		mov	r2, #0
 271 00c8 002083E5 		str	r2, [r3, #0]
 114:main.c        **** }
 273              	.LM10:
 274 00cc 0CD04BE2 		sub	sp, fp, #12
 275 00d0 00689DE8 		ldmfd	sp, {fp, sp, lr}
 276 00d4 1EFF2FE1 		bx	lr
 277              	.L8:
 278              		.align	2
 279              	.L7:
 280 00d8 00000000 		.word	trigger_cnt
 281 00dc 00000000 		.word	HL_Status
 282 00e0 00000000 		.word	mainloop_cnt
 283 00e4 00000000 		.word	mainloop_trigger
 285              	.Lscope0:
 286              		.bss
 287 0019 000000   		.align	2
 288              	vbat1.2325:
 289 001c 00000000 		.space	4
 291              		.text
 292              		.align	2
 294              		.global	main
 296              	main:
 115:main.c        **** 
 116:main.c        **** /**********************************************************
 117:main.c        ****                        MAIN
 118:main.c        **** **********************************************************/
 119:main.c        **** int	main (void) {
 298              	.LM11:
 299              		@ Function supports interworking.
 300              		@ args = 0, pretend = 0, frame = 4
 301              		@ frame_needed = 1, uses_anonymous_args = 0
 302 00e8 0DC0A0E1 		mov	ip, sp
 303 00ec 00D82DE9 		stmfd	sp!, {fp, ip, lr, pc}
 304 00f0 04B04CE2 		sub	fp, ip, #4
 305 00f4 04D04DE2 		sub	sp, sp, #4
 120:main.c        **** 
 121:main.c        ****   static int vbat1; //battery_voltage (lowpass-filtered)
 122:main.c        **** 
 123:main.c        ****   init();
 307              	.LM12:
 308 00f8 FEFFFFEB 		bl	init
 124:main.c        ****   buzzer(OFF);
 310              	.LM13:
 311 00fc 0000A0E3 		mov	r0, #0
 312 0100 FEFFFFEB 		bl	buzzer
 125:main.c        ****   LL_write_init();
 314              	.LM14:
 315 0104 FEFFFFEB 		bl	LL_write_init
 126:main.c        ****   PTU_init();
 317              	.LM15:
 318 0108 FEFFFFEB 		bl	PTU_init
 127:main.c        ****   ADC0triggerSampling(1<<VOLTAGE_1); //activate ADC sampling
 320              	.LM16:
 321 010c 0400A0E3 		mov	r0, #4
 322 0110 FEFFFFEB 		bl	ADC0triggerSampling
 128:main.c        **** 
 129:main.c        ****   HL_Status.up_time=0;
 324              	.LM17:
 325 0114 D8319FE5 		ldr	r3, .L23
 326 0118 0020A0E3 		mov	r2, #0
 327 011c B420C3E1 		strh	r2, [r3, #4]	@ movhi
 130:main.c        **** 
 131:main.c        ****   LED(1,ON);
 329              	.LM18:
 330 0120 0100A0E3 		mov	r0, #1
 331 0124 0110A0E3 		mov	r1, #1
 332 0128 FEFFFFEB 		bl	LED
 333 012c FFFFFFEA 		b	.L22
 334              	.L10:
 335              	.L22:
 132:main.c        **** 
 133:main.c        **** //  read_callback=my_read_callback;
 134:main.c        **** //  write_callback=my_write_callback;
 135:main.c        **** 
 136:main.c        ****   while(1)
 137:main.c        ****   {
 138:main.c        ****       if(mainloop_trigger)
 337              	.LM19:
 338 0130 C0319FE5 		ldr	r3, .L23+4
 339 0134 0030D3E5 		ldrb	r3, [r3, #0]
 340 0138 FF3003E2 		and	r3, r3, #255
 341 013c 000053E3 		cmp	r3, #0
 342 0140 FAFFFF0A 		beq	.L10
 139:main.c        ****       {
 140:main.c        ****      	if(GPS_timeout<ControllerCyclesPerSecond) GPS_timeout++;
 344              	.LM20:
 345 0144 B0319FE5 		ldr	r3, .L23+8
 346 0148 002093E5 		ldr	r2, [r3, #0]
 347 014c F93FA0E3 		mov	r3, #996
 348 0150 033083E2 		add	r3, r3, #3
 349 0154 030052E1 		cmp	r2, r3
 350 0158 0500008A 		bhi	.L13
 351 015c 98319FE5 		ldr	r3, .L23+8
 352 0160 003093E5 		ldr	r3, [r3, #0]
 353 0164 012083E2 		add	r2, r3, #1
 354 0168 8C319FE5 		ldr	r3, .L23+8
 355 016c 002083E5 		str	r2, [r3, #0]
 356 0170 0D0000EA 		b	.L15
 357              	.L13:
 141:main.c        **** 	  	else if(GPS_timeout==ControllerCyclesPerSecond)
 359              	.LM21:
 360 0174 80319FE5 		ldr	r3, .L23+8
 361 0178 003093E5 		ldr	r3, [r3, #0]
 362 017c FA0F53E3 		cmp	r3, #1000
 363 0180 0900001A 		bne	.L15
 142:main.c        **** 	  	{
 143:main.c        ****   	 		GPS_timeout=ControllerCyclesPerSecond+1;
 365              	.LM22:
 366 0184 70219FE5 		ldr	r2, .L23+8
 367 0188 FA3FA0E3 		mov	r3, #1000
 368 018c 013083E2 		add	r3, r3, #1
 369 0190 003082E5 		str	r3, [r2, #0]
 144:main.c        **** 	  		GPS_Data.status=0;
 371              	.LM23:
 372 0194 64219FE5 		ldr	r2, .L23+12
 373 0198 0030A0E3 		mov	r3, #0
 374 019c 283082E5 		str	r3, [r2, #40]
 145:main.c        **** 	  		GPS_Data.numSV=0;
 376              	.LM24:
 377 01a0 58219FE5 		ldr	r2, .L23+12
 378 01a4 0030A0E3 		mov	r3, #0
 379 01a8 243082E5 		str	r3, [r2, #36]
 380              	.L15:
 146:main.c        **** 	  	}
 147:main.c        **** 
 148:main.c        ****         //battery monitoring
 149:main.c        ****         ADC0getSamplingResults(0xFF,adcChannelValues);
 382              	.LM25:
 383 01ac FF00A0E3 		mov	r0, #255
 384 01b0 4C119FE5 		ldr	r1, .L23+16
 385 01b4 FEFFFFEB 		bl	ADC0getSamplingResults
 150:main.c        ****         vbat1=(vbat1*14+(adcChannelValues[VOLTAGE_1]*9872/579))/15;	//voltage in mV
 387              	.LM26:
 388 01b8 48319FE5 		ldr	r3, .L23+20
 389 01bc 002093E5 		ldr	r2, [r3, #0]
 390 01c0 0230A0E1 		mov	r3, r2
 391 01c4 8331A0E1 		mov	r3, r3, asl #3
 392 01c8 033062E0 		rsb	r3, r2, r3
 393 01cc 8330A0E1 		mov	r3, r3, asl #1
 394 01d0 0300A0E1 		mov	r0, r3
 395 01d4 28319FE5 		ldr	r3, .L23+16
 396 01d8 081093E5 		ldr	r1, [r3, #8]
 397 01dc 0120A0E1 		mov	r2, r1
 398 01e0 0221A0E1 		mov	r2, r2, asl #2
 399 01e4 012082E0 		add	r2, r2, r1
 400 01e8 8220A0E1 		mov	r2, r2, asl #1
 401 01ec 012082E0 		add	r2, r2, r1
 402 01f0 8231A0E1 		mov	r3, r2, asl #3
 403 01f4 033062E0 		rsb	r3, r2, r3
 404 01f8 8331A0E1 		mov	r3, r3, asl #3
 405 01fc 013083E0 		add	r3, r3, r1
 406 0200 0332A0E1 		mov	r3, r3, asl #4
 407 0204 0320A0E1 		mov	r2, r3
 408 0208 BE32A0E3 		mov	r3, #-536870901
 409 020c 263683E2 		add	r3, r3, #39845888
 410 0210 633C83E2 		add	r3, r3, #25344
 411 0214 921383E0 		umull	r1, r3, r2, r3
 412 0218 A334A0E1 		mov	r3, r3, lsr #9
 413 021c 032080E0 		add	r2, r0, r3
 414 0220 E4309FE5 		ldr	r3, .L23+24
 415 0224 921383E0 		umull	r1, r3, r2, r3
 416 0228 A331A0E1 		mov	r3, r3, lsr #3
 417 022c 0320A0E1 		mov	r2, r3
 418 0230 D0309FE5 		ldr	r3, .L23+20
 419 0234 002083E5 		str	r2, [r3, #0]
 151:main.c        **** 
 152:main.c        **** 		HL_Status.battery_voltage_1=vbat1;
 421              	.LM27:
 422 0238 C8309FE5 		ldr	r3, .L23+20
 423 023c 003093E5 		ldr	r3, [r3, #0]
 424 0240 0338A0E1 		mov	r3, r3, asl #16
 425 0244 2328A0E1 		mov	r2, r3, lsr #16
 426 0248 A4309FE5 		ldr	r3, .L23
 427 024c B020C3E1 		strh	r2, [r3, #0]	@ movhi
 153:main.c        ****         mainloop_cnt++;
 429              	.LM28:
 430 0250 B8309FE5 		ldr	r3, .L23+28
 431 0254 003093E5 		ldr	r3, [r3, #0]
 432 0258 012083E2 		add	r2, r3, #1
 433 025c AC309FE5 		ldr	r3, .L23+28
 434 0260 002083E5 		str	r2, [r3, #0]
 154:main.c        **** 		if(!(mainloop_cnt%10)) buzzer_handler(HL_Status.battery_voltage_1);
 436              	.LM29:
 437 0264 A4309FE5 		ldr	r3, .L23+28
 438 0268 002093E5 		ldr	r2, [r3, #0]
 439 026c A0309FE5 		ldr	r3, .L23+32
 440 0270 921383E0 		umull	r1, r3, r2, r3
 441 0274 A331A0E1 		mov	r3, r3, lsr #3
 442 0278 10300BE5 		str	r3, [fp, #-16]
 443 027c 10301BE5 		ldr	r3, [fp, #-16]
 444 0280 0331A0E1 		mov	r3, r3, asl #2
 445 0284 10101BE5 		ldr	r1, [fp, #-16]
 446 0288 013083E0 		add	r3, r3, r1
 447 028c 8330A0E1 		mov	r3, r3, asl #1
 448 0290 022063E0 		rsb	r2, r3, r2
 449 0294 10200BE5 		str	r2, [fp, #-16]
 450 0298 10301BE5 		ldr	r3, [fp, #-16]
 451 029c 000053E3 		cmp	r3, #0
 452 02a0 0500001A 		bne	.L17
 453 02a4 48309FE5 		ldr	r3, .L23
 454 02a8 B030D3E1 		ldrh	r3, [r3, #0]
 455 02ac 0338A0E1 		mov	r3, r3, asl #16
 456 02b0 4338A0E1 		mov	r3, r3, asr #16
 457 02b4 0300A0E1 		mov	r0, r3
 458 02b8 FEFFFFEB 		bl	buzzer_handler
 459              	.L17:
 155:main.c        **** 
 156:main.c        **** 	    if(mainloop_trigger) mainloop_trigger--;
 461              	.LM30:
 462 02bc 34309FE5 		ldr	r3, .L23+4
 463 02c0 0030D3E5 		ldrb	r3, [r3, #0]
 464 02c4 FF3003E2 		and	r3, r3, #255
 465 02c8 000053E3 		cmp	r3, #0
 466 02cc 0600000A 		beq	.L19
 467 02d0 20309FE5 		ldr	r3, .L23+4
 468 02d4 0030D3E5 		ldrb	r3, [r3, #0]
 469 02d8 FF3003E2 		and	r3, r3, #255
 470 02dc 013043E2 		sub	r3, r3, #1
 471 02e0 FF3003E2 		and	r3, r3, #255
 472 02e4 0C209FE5 		ldr	r2, .L23+4
 473 02e8 0030C2E5 		strb	r3, [r2, #0]
 474              	.L19:
 157:main.c        ****         mainloop();
 476              	.LM31:
 477 02ec FEFFFFEB 		bl	mainloop
 158:main.c        ****       }
 159:main.c        ****   }
 479              	.LM32:
 480 02f0 8EFFFFEA 		b	.L10
 481              	.L24:
 482              		.align	2
 483              	.L23:
 484 02f4 00000000 		.word	HL_Status
 485 02f8 00000000 		.word	mainloop_trigger
 486 02fc 00000000 		.word	GPS_timeout
 487 0300 00000000 		.word	GPS_Data
 488 0304 00000000 		.word	adcChannelValues
 489 0308 1C000000 		.word	vbat1.2325
 490 030c 89888888 		.word	-2004318071
 491 0310 00000000 		.word	mainloop_cnt
 492 0314 CDCCCCCC 		.word	-858993459
 497              	.Lscope1:
 498              		.data
 501              	led_state.2369:
 502 0001 01       		.byte	1
 504              		.bss
 505              	led_cnt.2368:
 506 0020 00       		.space	1
 508              		.global	__divsi3
 509              		.global	__floatsisf
 510 0021 000000   		.text
 511              		.align	2
 513              		.global	mainloop
 515              	mainloop:
 160:main.c        ****   return 0;
 161:main.c        **** }
 162:main.c        **** 
 163:main.c        **** 
 164:main.c        **** void mainloop(void) //mainloop is triggered at 1 kHz
 165:main.c        **** {
 517              	.LM33:
 518              		@ Function supports interworking.
 519              		@ args = 0, pretend = 0, frame = 8
 520              		@ frame_needed = 1, uses_anonymous_args = 0
 521 0318 0DC0A0E1 		mov	ip, sp
 522 031c 10D82DE9 		stmfd	sp!, {r4, fp, ip, lr, pc}
 523 0320 04B04CE2 		sub	fp, ip, #4
 524 0324 0CD04DE2 		sub	sp, sp, #12
 166:main.c        ****     static unsigned char led_cnt=0, led_state=1;
 167:main.c        **** 	unsigned char t;
 168:main.c        **** 
 169:main.c        **** 	//blink red led if no GPS lock available
 170:main.c        **** 	led_cnt++;
 526              	.LM34:
 527 0328 54359FE5 		ldr	r3, .L52
 528 032c 0030D3E5 		ldrb	r3, [r3, #0]	@ zero_extendqisi2
 529 0330 013083E2 		add	r3, r3, #1
 530 0334 FF3003E2 		and	r3, r3, #255
 531 0338 44259FE5 		ldr	r2, .L52
 532 033c 0030C2E5 		strb	r3, [r2, #0]
 171:main.c        **** 	if((GPS_Data.status&0xFF)==0x03)
 534              	.LM35:
 535 0340 40359FE5 		ldr	r3, .L52+4
 536 0344 283093E5 		ldr	r3, [r3, #40]
 537 0348 FF3003E2 		and	r3, r3, #255
 538 034c 030053E3 		cmp	r3, #3
 539 0350 0300001A 		bne	.L26
 172:main.c        **** 	{
 173:main.c        **** 		LED(0,OFF);
 541              	.LM36:
 542 0354 0000A0E3 		mov	r0, #0
 543 0358 0010A0E3 		mov	r1, #0
 544 035c FEFFFFEB 		bl	LED
 545 0360 110000EA 		b	.L28
 546              	.L26:
 174:main.c        **** 	}
 175:main.c        **** 	else
 176:main.c        **** 	{
 177:main.c        **** 	    if(led_cnt==150)
 548              	.LM37:
 549 0364 18359FE5 		ldr	r3, .L52
 550 0368 0030D3E5 		ldrb	r3, [r3, #0]	@ zero_extendqisi2
 551 036c 960053E3 		cmp	r3, #150
 552 0370 0300001A 		bne	.L29
 178:main.c        **** 	    {
 179:main.c        **** 	      LED(0,ON);
 554              	.LM38:
 555 0374 0000A0E3 		mov	r0, #0
 556 0378 0110A0E3 		mov	r1, #1
 557 037c FEFFFFEB 		bl	LED
 558 0380 090000EA 		b	.L28
 559              	.L29:
 180:main.c        **** 	    }
 181:main.c        **** 	    else if(led_cnt==200)
 561              	.LM39:
 562 0384 F8349FE5 		ldr	r3, .L52
 563 0388 0030D3E5 		ldrb	r3, [r3, #0]	@ zero_extendqisi2
 564 038c C80053E3 		cmp	r3, #200
 565 0390 0500001A 		bne	.L28
 182:main.c        **** 	    {
 183:main.c        **** 	      led_cnt=0;
 567              	.LM40:
 568 0394 E8349FE5 		ldr	r3, .L52
 569 0398 0020A0E3 		mov	r2, #0
 570 039c 0020C3E5 		strb	r2, [r3, #0]
 184:main.c        **** 	      LED(0,OFF);
 572              	.LM41:
 573 03a0 0000A0E3 		mov	r0, #0
 574 03a4 0010A0E3 		mov	r1, #0
 575 03a8 FEFFFFEB 		bl	LED
 576              	.L28:
 185:main.c        **** 	    }
 186:main.c        **** 	}
 187:main.c        **** 
 188:main.c        **** 	//after first lock, determine magnetic inclination and declination
 189:main.c        **** 	if (SYSTEM_initialized)
 578              	.LM42:
 579 03ac D8349FE5 		ldr	r3, .L52+8
 580 03b0 0030D3E5 		ldrb	r3, [r3, #0]
 581 03b4 FF3003E2 		and	r3, r3, #255
 582 03b8 000053E3 		cmp	r3, #0
 583 03bc 3500000A 		beq	.L32
 190:main.c        **** 	{
 191:main.c        **** 		if ((!declinationAvailable) && (GPS_Data.horizontal_accuracy<10000) && ((GPS_Data.status&0x03)==0
 585              	.LM43:
 586 03c0 C8349FE5 		ldr	r3, .L52+12
 587 03c4 0030D3E5 		ldrb	r3, [r3, #0]
 588 03c8 FF3003E2 		and	r3, r3, #255
 589 03cc 000053E3 		cmp	r3, #0
 590 03d0 3000001A 		bne	.L32
 591 03d4 AC349FE5 		ldr	r3, .L52+4
 592 03d8 182093E5 		ldr	r2, [r3, #24]
 593 03dc 273CA0E3 		mov	r3, #9984
 594 03e0 0F3083E2 		add	r3, r3, #15
 595 03e4 030052E1 		cmp	r2, r3
 596 03e8 2A00008A 		bhi	.L32
 597 03ec 94349FE5 		ldr	r3, .L52+4
 598 03f0 283093E5 		ldr	r3, [r3, #40]
 599 03f4 033003E2 		and	r3, r3, #3
 600 03f8 030053E3 		cmp	r3, #3
 601 03fc 2500001A 		bne	.L32
 602              	.LBB2:
 192:main.c        **** 		{
 193:main.c        **** 			int status;
 194:main.c        **** 			estimatedDeclination=getDeclination(GPS_Data.latitude,GPS_Data.longitude,GPS_Data.height/1000,20
 604              	.LM44:
 605 0400 80349FE5 		ldr	r3, .L52+4
 606 0404 000093E5 		ldr	r0, [r3, #0]
 607 0408 78349FE5 		ldr	r3, .L52+4
 608 040c 04C093E5 		ldr	ip, [r3, #4]
 609 0410 70349FE5 		ldr	r3, .L52+4
 610 0414 081093E5 		ldr	r1, [r3, #8]
 611 0418 74349FE5 		ldr	r3, .L52+16
 612 041c 9123C3E0 		smull	r2, r3, r1, r3
 613 0420 4323A0E1 		mov	r2, r3, asr #6
 614 0424 C13FA0E1 		mov	r3, r1, asr #31
 615 0428 022063E0 		rsb	r2, r3, r2
 616 042c 18304BE2 		sub	r3, fp, #24
 617 0430 00308DE5 		str	r3, [sp, #0]
 618 0434 0C10A0E1 		mov	r1, ip
 619 0438 7D3EA0E3 		mov	r3, #2000
 620 043c 0C3083E2 		add	r3, r3, #12
 621 0440 FEFFFFEB 		bl	getDeclination
 622 0444 0020A0E1 		mov	r2, r0
 623 0448 48349FE5 		ldr	r3, .L52+20
 624 044c 002083E5 		str	r2, [r3, #0]
 195:main.c        **** 			if (estimatedDeclination<-32000) estimatedDeclination=-32000;
 626              	.LM45:
 627 0450 40349FE5 		ldr	r3, .L52+20
 628 0454 003093E5 		ldr	r3, [r3, #0]
 629 0458 7D0C73E3 		cmn	r3, #32000
 630 045c 030000AA 		bge	.L37
 631 0460 30249FE5 		ldr	r2, .L52+20
 632 0464 8334A0E3 		mov	r3, #-2097152000
 633 0468 4338A0E1 		mov	r3, r3, asr #16
 634 046c 003082E5 		str	r3, [r2, #0]
 635              	.L37:
 196:main.c        **** 			if (estimatedDeclination>32000) estimatedDeclination=32000;
 637              	.LM46:
 638 0470 20349FE5 		ldr	r3, .L52+20
 639 0474 003093E5 		ldr	r3, [r3, #0]
 640 0478 7D0C53E3 		cmp	r3, #32000
 641 047c 020000DA 		ble	.L39
 642 0480 10249FE5 		ldr	r2, .L52+20
 643 0484 7D3CA0E3 		mov	r3, #32000
 644 0488 003082E5 		str	r3, [r2, #0]
 645              	.L39:
 197:main.c        **** 			declinationAvailable=1;
 647              	.LM47:
 648 048c FC339FE5 		ldr	r3, .L52+12
 649 0490 0120A0E3 		mov	r2, #1
 650 0494 0020C3E5 		strb	r2, [r3, #0]
 651              	.L32:
 652              	.LBE2:
 198:main.c        **** 		}
 199:main.c        **** 	}
 200:main.c        **** 
 201:main.c        **** 	//toggle green LED and update SDK input struct when GPS data packet is received
 202:main.c        ****     if (gpsLEDTrigger)
 654              	.LM48:
 655 0498 FC339FE5 		ldr	r3, .L52+24
 656 049c 0030D3E5 		ldrb	r3, [r3, #0]	@ zero_extendqisi2
 657 04a0 000053E3 		cmp	r3, #0
 658 04a4 4700000A 		beq	.L41
 203:main.c        ****     {
 204:main.c        **** 		if(led_state)
 660              	.LM49:
 661 04a8 F0339FE5 		ldr	r3, .L52+28
 662 04ac 0030D3E5 		ldrb	r3, [r3, #0]	@ zero_extendqisi2
 663 04b0 000053E3 		cmp	r3, #0
 664 04b4 0600000A 		beq	.L43
 205:main.c        **** 		{
 206:main.c        **** 			led_state=0;
 666              	.LM50:
 667 04b8 E0339FE5 		ldr	r3, .L52+28
 668 04bc 0020A0E3 		mov	r2, #0
 669 04c0 0020C3E5 		strb	r2, [r3, #0]
 207:main.c        **** 			LED(1,OFF);
 671              	.LM51:
 672 04c4 0100A0E3 		mov	r0, #1
 673 04c8 0010A0E3 		mov	r1, #0
 674 04cc FEFFFFEB 		bl	LED
 675 04d0 050000EA 		b	.L45
 676              	.L43:
 208:main.c        **** 		}
 209:main.c        **** 		else
 210:main.c        **** 		{
 211:main.c        **** 			LED(1,ON);
 678              	.LM52:
 679 04d4 0100A0E3 		mov	r0, #1
 680 04d8 0110A0E3 		mov	r1, #1
 681 04dc FEFFFFEB 		bl	LED
 212:main.c        **** 			led_state=1;
 683              	.LM53:
 684 04e0 B8339FE5 		ldr	r3, .L52+28
 685 04e4 0120A0E3 		mov	r2, #1
 686 04e8 0020C3E5 		strb	r2, [r3, #0]
 687              	.L45:
 213:main.c        **** 		}
 214:main.c        **** 
 215:main.c        **** 		RO_ALL_Data.GPS_height=GPS_Data.height;
 689              	.LM54:
 690 04ec 94339FE5 		ldr	r3, .L52+4
 691 04f0 082093E5 		ldr	r2, [r3, #8]
 692 04f4 A8339FE5 		ldr	r3, .L52+32
 693 04f8 4C2083E5 		str	r2, [r3, #76]
 216:main.c        **** 		RO_ALL_Data.GPS_latitude=GPS_Data.latitude;
 695              	.LM55:
 696 04fc 84339FE5 		ldr	r3, .L52+4
 697 0500 002093E5 		ldr	r2, [r3, #0]
 698 0504 98339FE5 		ldr	r3, .L52+32
 699 0508 442083E5 		str	r2, [r3, #68]
 217:main.c        **** 		RO_ALL_Data.GPS_longitude=GPS_Data.longitude;
 701              	.LM56:
 702 050c 74339FE5 		ldr	r3, .L52+4
 703 0510 042093E5 		ldr	r2, [r3, #4]
 704 0514 88339FE5 		ldr	r3, .L52+32
 705 0518 482083E5 		str	r2, [r3, #72]
 218:main.c        **** 		RO_ALL_Data.GPS_speed_x=GPS_Data.speed_x;
 707              	.LM57:
 708 051c 64339FE5 		ldr	r3, .L52+4
 709 0520 0C2093E5 		ldr	r2, [r3, #12]
 710 0524 78339FE5 		ldr	r3, .L52+32
 711 0528 502083E5 		str	r2, [r3, #80]
 219:main.c        **** 		RO_ALL_Data.GPS_speed_y=GPS_Data.speed_y;
 713              	.LM58:
 714 052c 54339FE5 		ldr	r3, .L52+4
 715 0530 102093E5 		ldr	r2, [r3, #16]
 716 0534 68339FE5 		ldr	r3, .L52+32
 717 0538 542083E5 		str	r2, [r3, #84]
 220:main.c        **** 		RO_ALL_Data.GPS_status=GPS_Data.status;
 719              	.LM59:
 720 053c 44339FE5 		ldr	r3, .L52+4
 721 0540 282093E5 		ldr	r2, [r3, #40]
 722 0544 58339FE5 		ldr	r3, .L52+32
 723 0548 6C2083E5 		str	r2, [r3, #108]
 221:main.c        **** 		RO_ALL_Data.GPS_sat_num=GPS_Data.numSV;
 725              	.LM60:
 726 054c 34339FE5 		ldr	r3, .L52+4
 727 0550 242093E5 		ldr	r2, [r3, #36]
 728 0554 48339FE5 		ldr	r3, .L52+32
 729 0558 682083E5 		str	r2, [r3, #104]
 222:main.c        **** 		RO_ALL_Data.GPS_week=GPS_Time.week;
 731              	.LM61:
 732 055c 44339FE5 		ldr	r3, .L52+36
 733 0560 B420D3E1 		ldrh	r2, [r3, #4]
 734 0564 38339FE5 		ldr	r3, .L52+32
 735 0568 B427C3E1 		strh	r2, [r3, #116]	@ movhi
 223:main.c        **** 		RO_ALL_Data.GPS_time_of_week=GPS_Time.time_of_week;
 737              	.LM62:
 738 056c 34339FE5 		ldr	r3, .L52+36
 739 0570 002093E5 		ldr	r2, [r3, #0]
 740 0574 28339FE5 		ldr	r3, .L52+32
 741 0578 702083E5 		str	r2, [r3, #112]
 224:main.c        **** 		RO_ALL_Data.GPS_heading=GPS_Data.heading;
 743              	.LM63:
 744 057c 04339FE5 		ldr	r3, .L52+4
 745 0580 142093E5 		ldr	r2, [r3, #20]
 746 0584 18339FE5 		ldr	r3, .L52+32
 747 0588 582083E5 		str	r2, [r3, #88]
 225:main.c        **** 		RO_ALL_Data.GPS_position_accuracy=GPS_Data.horizontal_accuracy;
 749              	.LM64:
 750 058c F4329FE5 		ldr	r3, .L52+4
 751 0590 182093E5 		ldr	r2, [r3, #24]
 752 0594 08339FE5 		ldr	r3, .L52+32
 753 0598 5C2083E5 		str	r2, [r3, #92]
 226:main.c        **** 		RO_ALL_Data.GPS_speed_accuracy=GPS_Data.speed_accuracy;
 755              	.LM65:
 756 059c E4329FE5 		ldr	r3, .L52+4
 757 05a0 202093E5 		ldr	r2, [r3, #32]
 758 05a4 F8329FE5 		ldr	r3, .L52+32
 759 05a8 642083E5 		str	r2, [r3, #100]
 227:main.c        **** 		RO_ALL_Data.GPS_height_accuracy=GPS_Data.vertical_accuracy;
 761              	.LM66:
 762 05ac D4329FE5 		ldr	r3, .L52+4
 763 05b0 1C2093E5 		ldr	r2, [r3, #28]
 764 05b4 E8329FE5 		ldr	r3, .L52+32
 765 05b8 602083E5 		str	r2, [r3, #96]
 228:main.c        **** 
 229:main.c        **** 		gpsLEDTrigger=0;
 767              	.LM67:
 768 05bc D8229FE5 		ldr	r2, .L52+24
 769 05c0 0030A0E3 		mov	r3, #0
 770 05c4 0030C2E5 		strb	r3, [r2, #0]
 771              	.L41:
 230:main.c        ****     }
 231:main.c        **** 
 232:main.c        **** //	//re-trigger UART-transmission if it was paused by modem CTS pin
 233:main.c        **** //	if(trigger_transmission)
 234:main.c        **** //	{
 235:main.c        **** //		if(!(IOPIN0&(1<<CTS_RADIO)))
 236:main.c        **** //	  	{
 237:main.c        **** //	  		trigger_transmission=0;
 238:main.c        **** //	    if(ringbuffer(RBREAD, &t, 1))
 239:main.c        **** //		    {
 240:main.c        **** //		      transmission_running=1;
 241:main.c        **** //		      UARTWriteChar(t);
 242:main.c        **** //		    }
 243:main.c        **** //	  	}
 244:main.c        **** //	}
 245:main.c        **** //
 246:main.c        **** //	//send attitude data packet as an example how to use HL_serial_0 (please refer to uart.c for det
 247:main.c        **** 
 248:main.c        **** //
 249:main.c        **** //
 250:main.c        **** 	if(uart_cnt++==ControllerCyclesPerSecond/DataOutputsPerSecond)
 773              	.LM68:
 774 05c8 DC329FE5 		ldr	r3, .L52+40
 775 05cc 004093E5 		ldr	r4, [r3, #0]
 776 05d0 D8329FE5 		ldr	r3, .L52+44
 777 05d4 0030D3E5 		ldrb	r3, [r3, #0]	@ zero_extendqisi2
 778 05d8 FA0FA0E3 		mov	r0, #1000
 779 05dc 0310A0E1 		mov	r1, r3
 780 05e0 FEFFFFEB 		bl	__divsi3
 781 05e4 0030A0E1 		mov	r3, r0
 782 05e8 030054E1 		cmp	r4, r3
 783 05ec 0030A013 		movne	r3, #0
 784 05f0 0130A003 		moveq	r3, #1
 785 05f4 FF1003E2 		and	r1, r3, #255
 786 05f8 012084E2 		add	r2, r4, #1
 787 05fc A8329FE5 		ldr	r3, .L52+40
 788 0600 002083E5 		str	r2, [r3, #0]
 789 0604 000051E3 		cmp	r1, #0
 790 0608 9600000A 		beq	.L46
 251:main.c        **** 	{
 252:main.c        **** 		uart_cnt=0;
 792              	.LM69:
 793 060c 98229FE5 		ldr	r2, .L52+40
 794 0610 0030A0E3 		mov	r3, #0
 795 0614 003082E5 		str	r3, [r2, #0]
 253:main.c        **** 		if(receiveCmdData.cmd==PACKAGE_DEFINE_DEBUG){
 797              	.LM70:
 798 0618 94329FE5 		ldr	r3, .L52+48
 799 061c 003093E5 		ldr	r3, [r3, #0]
 800 0620 050053E3 		cmp	r3, #5
 801 0624 5D00001A 		bne	.L48
 254:main.c        **** 			sendDebugData.timestamp=vicon_tp;
 803              	.LM71:
 804 0628 88329FE5 		ldr	r3, .L52+52
 805 062c 002093E5 		ldr	r2, [r3, #0]
 806 0630 84329FE5 		ldr	r3, .L52+56
 807 0634 002083E5 		str	r2, [r3, #0]
 255:main.c        **** 			sendDebugData.x=my_state.position.x;
 809              	.LM72:
 810 0638 80329FE5 		ldr	r3, .L52+60
 811 063c 002093E5 		ldr	r2, [r3, #0]	@ float
 812 0640 74329FE5 		ldr	r3, .L52+56
 813 0644 042083E5 		str	r2, [r3, #4]	@ float
 256:main.c        **** 			sendDebugData.y=my_state.position.y;
 815              	.LM73:
 816 0648 70329FE5 		ldr	r3, .L52+60
 817 064c 042093E5 		ldr	r2, [r3, #4]	@ float
 818 0650 64329FE5 		ldr	r3, .L52+56
 819 0654 082083E5 		str	r2, [r3, #8]	@ float
 257:main.c        **** 			sendDebugData.z=my_state.position.z;
 821              	.LM74:
 822 0658 60329FE5 		ldr	r3, .L52+60
 823 065c 082093E5 		ldr	r2, [r3, #8]	@ float
 824 0660 54329FE5 		ldr	r3, .L52+56
 825 0664 0C2083E5 		str	r2, [r3, #12]	@ float
 258:main.c        **** 			sendDebugData.vx=my_state.velocity.x;
 827              	.LM75:
 828 0668 50329FE5 		ldr	r3, .L52+60
 829 066c 0C2093E5 		ldr	r2, [r3, #12]	@ float
 830 0670 44329FE5 		ldr	r3, .L52+56
 831 0674 102083E5 		str	r2, [r3, #16]	@ float
 259:main.c        **** 			sendDebugData.vy=my_state.velocity.y;
 833              	.LM76:
 834 0678 40329FE5 		ldr	r3, .L52+60
 835 067c 102093E5 		ldr	r2, [r3, #16]	@ float
 836 0680 34329FE5 		ldr	r3, .L52+56
 837 0684 142083E5 		str	r2, [r3, #20]	@ float
 260:main.c        **** 			sendDebugData.vz=my_state.velocity.z;
 839              	.LM77:
 840 0688 30329FE5 		ldr	r3, .L52+60
 841 068c 142093E5 		ldr	r2, [r3, #20]	@ float
 842 0690 24329FE5 		ldr	r3, .L52+56
 843 0694 182083E5 		str	r2, [r3, #24]	@ float
 261:main.c        **** //			sendDebugData.pitch=my_state.attitude.pitch;
 262:main.c        **** //			sendDebugData.roll=my_state.attitude.roll;
 263:main.c        **** //			sendDebugData.yaw=my_state.attitude.yaw;
 264:main.c        **** 			sendDebugData.pitch=RO_ALL_Data.angle_pitch;
 845              	.LM78:
 846 0698 04329FE5 		ldr	r3, .L52+32
 847 069c 103093E5 		ldr	r3, [r3, #16]
 848 06a0 0300A0E1 		mov	r0, r3
 849 06a4 FEFFFFEB 		bl	__floatsisf
 850 06a8 0020A0E1 		mov	r2, r0
 851 06ac 08329FE5 		ldr	r3, .L52+56
 852 06b0 1C2083E5 		str	r2, [r3, #28]	@ float
 265:main.c        **** 			sendDebugData.roll=RO_ALL_Data.angle_roll;
 854              	.LM79:
 855 06b4 E8319FE5 		ldr	r3, .L52+32
 856 06b8 143093E5 		ldr	r3, [r3, #20]
 857 06bc 0300A0E1 		mov	r0, r3
 858 06c0 FEFFFFEB 		bl	__floatsisf
 859 06c4 0020A0E1 		mov	r2, r0
 860 06c8 EC319FE5 		ldr	r3, .L52+56
 861 06cc 202083E5 		str	r2, [r3, #32]	@ float
 266:main.c        **** 			sendDebugData.yaw=RO_ALL_Data.angle_yaw;
 863              	.LM80:
 864 06d0 CC319FE5 		ldr	r3, .L52+32
 865 06d4 183093E5 		ldr	r3, [r3, #24]
 866 06d8 0300A0E1 		mov	r0, r3
 867 06dc FEFFFFEB 		bl	__floatsisf
 868 06e0 0020A0E1 		mov	r2, r0
 869 06e4 D0319FE5 		ldr	r3, .L52+56
 870 06e8 242083E5 		str	r2, [r3, #36]	@ float
 267:main.c        **** 			sendDebugData.battery=RO_ALL_Data.fusion_height;
 872              	.LM81:
 873 06ec B0319FE5 		ldr	r3, .L52+32
 874 06f0 782093E5 		ldr	r2, [r3, #120]
 875 06f4 C0319FE5 		ldr	r3, .L52+56
 876 06f8 282083E5 		str	r2, [r3, #40]
 268:main.c        **** 			sendDebugData.cpu_load=RO_ALL_Data.fusion_dheight;
 878              	.LM82:
 879 06fc A0319FE5 		ldr	r3, .L52+32
 880 0700 7C2093E5 		ldr	r2, [r3, #124]
 881 0704 B0319FE5 		ldr	r3, .L52+56
 882 0708 2C2083E5 		str	r2, [r3, #44]
 269:main.c        **** 			sendDebugData.set_position=WO_CTRL_Input.pitch;
 884              	.LM83:
 885 070c B0319FE5 		ldr	r3, .L52+64
 886 0710 B030D3E1 		ldrh	r3, [r3, #0]
 887 0714 0338A0E1 		mov	r3, r3, asl #16
 888 0718 4338A0E1 		mov	r3, r3, asr #16
 889 071c 0300A0E1 		mov	r0, r3
 890 0720 FEFFFFEB 		bl	__floatsisf
 891 0724 0020A0E1 		mov	r2, r0
 892 0728 8C319FE5 		ldr	r3, .L52+56
 893 072c 342083E5 		str	r2, [r3, #52]	@ float
 270:main.c        **** 			sendDebugData.set_velocity=WO_CTRL_Input.roll;
 895              	.LM84:
 896 0730 8C319FE5 		ldr	r3, .L52+64
 897 0734 B230D3E1 		ldrh	r3, [r3, #2]
 898 0738 0338A0E1 		mov	r3, r3, asl #16
 899 073c 4338A0E1 		mov	r3, r3, asr #16
 900 0740 0300A0E1 		mov	r0, r3
 901 0744 FEFFFFEB 		bl	__floatsisf
 902 0748 0020A0E1 		mov	r2, r0
 903 074c 68319FE5 		ldr	r3, .L52+56
 904 0750 382083E5 		str	r2, [r3, #56]	@ float
 271:main.c        **** 			sendDebugData.vicon_count=vicon_count;
 906              	.LM85:
 907 0754 6C319FE5 		ldr	r3, .L52+68
 908 0758 002093E5 		ldr	r2, [r3, #0]
 909 075c 58319FE5 		ldr	r3, .L52+56
 910 0760 302083E5 		str	r2, [r3, #48]
 272:main.c        **** 			sendDebugData.calc_thrust=calc_thrust;
 912              	.LM86:
 913 0764 60319FE5 		ldr	r3, .L52+72
 914 0768 002093E5 		ldr	r2, [r3, #0]	@ float
 915 076c 48319FE5 		ldr	r3, .L52+56
 916 0770 3C2083E5 		str	r2, [r3, #60]	@ float
 273:main.c        **** 			my_send(1,PACKAGE_DEFINE_DEBUG,
 918              	.LM87:
 919 0774 0500A0E3 		mov	r0, #5
 920 0778 FEFFFFEB 		bl	getPackageLength
 921 077c 0030A0E1 		mov	r3, r0
 922 0780 0320A0E1 		mov	r2, r3
 923 0784 0130A0E3 		mov	r3, #1
 924 0788 00308DE5 		str	r3, [sp, #0]
 925 078c 0100A0E3 		mov	r0, #1
 926 0790 0510A0E3 		mov	r1, #5
 927 0794 20319FE5 		ldr	r3, .L52+56
 928 0798 FEFFFFEB 		bl	my_send
 929 079c 310000EA 		b	.L46
 930              	.L48:
 274:main.c        **** 					getPackageLength(PACKAGE_DEFINE_DEBUG),
 275:main.c        **** 					&sendDebugData,1);
 276:main.c        **** 		}else if(receiveCmdData.cmd==PACKAGE_DEFINE_PARAM){
 932              	.LM88:
 933 07a0 0C319FE5 		ldr	r3, .L52+48
 934 07a4 003093E5 		ldr	r3, [r3, #0]
 935 07a8 060053E3 		cmp	r3, #6
 936 07ac 2D00001A 		bne	.L46
 277:main.c        **** 			sendParamDebug.calc_thrust=calc_thrust;
 938              	.LM89:
 939 07b0 14319FE5 		ldr	r3, .L52+72
 940 07b4 002093E5 		ldr	r2, [r3, #0]	@ float
 941 07b8 10319FE5 		ldr	r3, .L52+76
 942 07bc 202083E5 		str	r2, [r3, #32]	@ float
 278:main.c        **** 			sendParamDebug.ki_p=my_this.pidZ.pid.ki;
 944              	.LM90:
 945 07c0 0C319FE5 		ldr	r3, .L52+80
 946 07c4 642093E5 		ldr	r2, [r3, #100]	@ float
 947 07c8 00319FE5 		ldr	r3, .L52+76
 948 07cc 102083E5 		str	r2, [r3, #16]	@ float
 279:main.c        **** 			sendParamDebug.kp_p=my_this.pidZ.pid.kp;
 950              	.LM91:
 951 07d0 FC309FE5 		ldr	r3, .L52+80
 952 07d4 602093E5 		ldr	r2, [r3, #96]	@ float
 953 07d8 F0309FE5 		ldr	r3, .L52+76
 954 07dc 0C2083E5 		str	r2, [r3, #12]	@ float
 280:main.c        **** 			sendParamDebug.ki_v=my_this.pidVZ.pid.ki;
 956              	.LM92:
 957 07e0 EC309FE5 		ldr	r3, .L52+80
 958 07e4 182093E5 		ldr	r2, [r3, #24]	@ float
 959 07e8 E0309FE5 		ldr	r3, .L52+76
 960 07ec 082083E5 		str	r2, [r3, #8]	@ float
 281:main.c        **** 			sendParamDebug.kp_v=my_this.pidVZ.pid.kp;
 962              	.LM93:
 963 07f0 DC309FE5 		ldr	r3, .L52+80
 964 07f4 142093E5 		ldr	r2, [r3, #20]	@ float
 965 07f8 D0309FE5 		ldr	r3, .L52+76
 966 07fc 042083E5 		str	r2, [r3, #4]	@ float
 282:main.c        **** 			sendParamDebug.set_velocity=my_setpoint.velocity.z;
 968              	.LM94:
 969 0800 D0309FE5 		ldr	r3, .L52+84
 970 0804 142093E5 		ldr	r2, [r3, #20]	@ float
 971 0808 C0309FE5 		ldr	r3, .L52+76
 972 080c 1C2083E5 		str	r2, [r3, #28]	@ float
 283:main.c        **** 			sendParamDebug.vz=my_state.velocity.z;
 974              	.LM95:
 975 0810 A8309FE5 		ldr	r3, .L52+60
 976 0814 142093E5 		ldr	r2, [r3, #20]	@ float
 977 0818 B0309FE5 		ldr	r3, .L52+76
 978 081c 182083E5 		str	r2, [r3, #24]	@ float
 284:main.c        **** 			sendParamDebug.z=my_state.position.z;
 980              	.LM96:
 981 0820 98309FE5 		ldr	r3, .L52+60
 982 0824 082093E5 		ldr	r2, [r3, #8]	@ float
 983 0828 A0309FE5 		ldr	r3, .L52+76
 984 082c 142083E5 		str	r2, [r3, #20]	@ float
 285:main.c        **** 			sendParamDebug.thrust=output_thrust;
 986              	.LM97:
 987 0830 A4309FE5 		ldr	r3, .L52+88
 988 0834 002093E5 		ldr	r2, [r3, #0]
 989 0838 90309FE5 		ldr	r3, .L52+76
 990 083c 002083E5 		str	r2, [r3, #0]
 286:main.c        **** 			my_send(1,PACKAGE_DEFINE_PARAM,
 992              	.LM98:
 993 0840 0600A0E3 		mov	r0, #6
 994 0844 FEFFFFEB 		bl	getPackageLength
 995 0848 0030A0E1 		mov	r3, r0
 996 084c 0320A0E1 		mov	r2, r3
 997 0850 0130A0E3 		mov	r3, #1
 998 0854 00308DE5 		str	r3, [sp, #0]
 999 0858 0100A0E3 		mov	r0, #1
 1000 085c 0610A0E3 		mov	r1, #6
 1001 0860 68309FE5 		ldr	r3, .L52+76
 1002 0864 FEFFFFEB 		bl	my_send
 1003              	.L46:
 287:main.c        **** 					getPackageLength(PACKAGE_DEFINE_PARAM),
 288:main.c        **** 					&sendParamDebug,1);
 289:main.c        **** 		}
 290:main.c        **** 	}
 291:main.c        **** 	//handle gps data reception
 292:main.c        ****     uBloxReceiveEngine();
 1005              	.LM99:
 1006 0868 FEFFFFEB 		bl	uBloxReceiveEngine
 293:main.c        **** 
 294:main.c        **** 	//run SDK mainloop. Please put all your data handling / controller code in sdk.c
 295:main.c        **** 	SDK_mainloop();
 1008              	.LM100:
 1009 086c FEFFFFEB 		bl	SDK_mainloop
 296:main.c        **** 
 297:main.c        ****     //write data to transmit buffer for immediate transfer to LL processor
 298:main.c        ****     HL2LL_write_cycle();
 1011              	.LM101:
 1012 0870 FEFFFFEB 		bl	HL2LL_write_cycle
 299:main.c        **** 
 300:main.c        ****     //control pan-tilt-unit ("cam option 4" @ AscTec Pelican)
 301:main.c        ****     PTU_update();
 1014              	.LM102:
 1015 0874 FEFFFFEB 		bl	PTU_update
 302:main.c        **** 
 303:main.c        **** 
 304:main.c        **** }
 1017              	.LM103:
 1018 0878 10D04BE2 		sub	sp, fp, #16
 1019 087c 10689DE8 		ldmfd	sp, {r4, fp, sp, lr}
 1020 0880 1EFF2FE1 		bx	lr
 1021              	.L53:
 1022              		.align	2
 1023              	.L52:
 1024 0884 20000000 		.word	led_cnt.2368
 1025 0888 00000000 		.word	GPS_Data
 1026 088c 00000000 		.word	SYSTEM_initialized
 1027 0890 00000000 		.word	declinationAvailable
 1028 0894 D34D6210 		.word	274877907
 1029 0898 00000000 		.word	estimatedDeclination
 1030 089c 00000000 		.word	gpsLEDTrigger
 1031 08a0 01000000 		.word	led_state.2369
 1032 08a4 00000000 		.word	RO_ALL_Data
 1033 08a8 00000000 		.word	GPS_Time
 1034 08ac 00000000 		.word	uart_cnt
 1035 08b0 00000000 		.word	DataOutputsPerSecond
 1036 08b4 00000000 		.word	receiveCmdData
 1037 08b8 00000000 		.word	vicon_tp
 1038 08bc 00000000 		.word	sendDebugData
 1039 08c0 00000000 		.word	my_state
 1040 08c4 00000000 		.word	WO_CTRL_Input
 1041 08c8 00000000 		.word	vicon_count
 1042 08cc 00000000 		.word	calc_thrust
 1043 08d0 00000000 		.word	sendParamDebug
 1044 08d4 00000000 		.word	my_this
 1045 08d8 00000000 		.word	my_setpoint
 1046 08dc 00000000 		.word	output_thrust
 1056              	.Lscope2:
 1057              		.comm	IMU_CalcData,92,4
 1058              		.comm	IMU_CalcData_tmp,92,4
 1059              		.comm	HL_Status,24,4
 1060              		.comm	GPS_Time,8,4
 1061              		.comm	SSP_trans_cnt,4,4
 1062              		.comm	uart_cnt,4,4
 1078              	.Letext0:
 1079              		.ident	"GCC: (GNU) 4.1.1"
DEFINED SYMBOLS
                            *ABS*:00000000 main.c
     /tmp/ccWvv8GI.s:148    .bss:00000000 int_cnt
     /tmp/ccWvv8GI.s:145    .bss:00000000 $d
     /tmp/ccWvv8GI.s:154    .bss:00000004 cnt
     /tmp/ccWvv8GI.s:160    .bss:00000008 mainloop_cnt
     /tmp/ccWvv8GI.s:165    .bss:0000000c mainloop_trigger
     /tmp/ccWvv8GI.s:171    .bss:00000010 GPS_timeout
     /tmp/ccWvv8GI.s:177    .bss:00000014 trigger_cnt
     /tmp/ccWvv8GI.s:182    .bss:00000018 SYSTEM_initialized
     /tmp/ccWvv8GI.s:188    .data:00000000 DataOutputsPerSecond
     /tmp/ccWvv8GI.s:191    .text:00000000 $a
     /tmp/ccWvv8GI.s:195    .text:00000000 timer0ISR
     /tmp/ccWvv8GI.s:280    .text:000000d8 $d
                            *COM*:00000018 HL_Status
     /tmp/ccWvv8GI.s:288    .bss:0000001c vbat1.2325
     /tmp/ccWvv8GI.s:292    .text:000000e8 $a
     /tmp/ccWvv8GI.s:296    .text:000000e8 main
     /tmp/ccWvv8GI.s:515    .text:00000318 mainloop
     /tmp/ccWvv8GI.s:484    .text:000002f4 $d
     /tmp/ccWvv8GI.s:501    .data:00000001 led_state.2369
     /tmp/ccWvv8GI.s:505    .bss:00000020 led_cnt.2368
     /tmp/ccWvv8GI.s:511    .text:00000318 $a
     /tmp/ccWvv8GI.s:1024   .text:00000884 $d
                            *COM*:00000008 GPS_Time
                            *COM*:00000004 uart_cnt
                            *COM*:0000005c IMU_CalcData
                            *COM*:0000005c IMU_CalcData_tmp
                            *COM*:00000004 SSP_trans_cnt

UNDEFINED SYMBOLS
init
buzzer
LL_write_init
PTU_init
ADC0triggerSampling
LED
ADC0getSamplingResults
buzzer_handler
GPS_Data
adcChannelValues
__divsi3
__floatsisf
getDeclination
getPackageLength
my_send
uBloxReceiveEngine
SDK_mainloop
HL2LL_write_cycle
PTU_update
declinationAvailable
estimatedDeclination
gpsLEDTrigger
RO_ALL_Data
receiveCmdData
vicon_tp
sendDebugData
my_state
WO_CTRL_Input
vicon_count
calc_thrust
sendParamDebug
my_this
my_setpoint
output_thrust
